 CoreServer

 Timestamp is 65410c2c (Tue Oct 31 21:16:12 2023)

 Preferred load address is 10000000

 Start         Length     Name                   Class
 0001:00000000 000a030aH .text                   CODE
 0001:000a0310 000022eeH .text$x                 CODE
 0002:00000000 0000033cH .idata$5                DATA
 0002:00000340 0000d054H .rdata                  DATA
 0002:0000d398 0000017cH .rdata$r                DATA
 0002:0000d518 00003510H .xdata$x                DATA
 0002:00010a28 00000078H .idata$2                DATA
 0002:00010aa0 00000014H .idata$3                DATA
 0002:00010ab4 0000033cH .idata$4                DATA
 0002:00010df0 00001322H .idata$6                DATA
 0002:00012120 00001a97H .edata                  DATA
 0003:00000000 00000004H .CRT$XCA                DATA
 0003:00000004 00000114H .CRT$XCU                DATA
 0003:00000118 00000004H .CRT$XCZ                DATA
 0003:0000011c 00000004H .CRT$XIA                DATA
 0003:00000120 0000000cH .CRT$XIC                DATA
 0003:0000012c 00000004H .CRT$XIY                DATA
 0003:00000130 00000004H .CRT$XIZ                DATA
 0003:00000134 00000004H .CRT$XPA                DATA
 0003:00000138 00000004H .CRT$XPX                DATA
 0003:0000013c 00000004H .CRT$XPZ                DATA
 0003:00000140 00000004H .CRT$XTA                DATA
 0003:00000144 00000004H .CRT$XTB                DATA
 0003:00000148 00000004H .CRT$XTZ                DATA
 0003:00000150 00009084H .data                   DATA
 0003:000091d8 2aaa518cH .bss                    DATA

  Address         Publics by Value              Rva+Base     Lib:Object

 0001:00000000       ??_H@YGXPAXIHP6EX0@Z@Z     10001000 f i KPartnerSkill.obj
 0001:00000030       ?GetMoney@KInventory@@QAEHXZ 10001030 f i KThiefSkill.obj
 0001:00000050       ?SetMoney@KInventory@@QAEHH@Z 10001050 f i KThiefSkill.obj
 0001:00000080       ??4KInventory@@QAEAAV0@ABV0@@Z 10001080 f i KThiefSkill.obj
 0001:000000b0       ?GetEquipment@KItemList@@QAEHH@Z 100010b0 f i KThiefSkill.obj
 0001:000000d0       ?GetMoney@KItemList@@QAEHH@Z 100010d0 f i KThiefSkill.obj
 0001:00000100       ?Hand@KItemList@@QAEHXZ    10001100 f i KThiefSkill.obj
 0001:00000120       ?GetHorseIdx@KItemList@@QAEHXZ 10001120 f i KThiefSkill.obj
 0001:00000140       ?GetMaskLock@KItemList@@QAEHXZ 10001140 f i KThiefSkill.obj
 0001:00000160       ?GetCompoundItem@KItemList@@QAEHH@Z 10001160 f i KThiefSkill.obj
 0001:00000180       ?ClearRoomItemOnly@KItemList@@QAEXH@Z 10001180 f i KThiefSkill.obj
 0001:000001b0       ??4KItemList@@QAEAAV0@ABV0@@Z 100011b0 f i KThiefSkill.obj
 0001:000001e0       ??0KThiefSkill@@QAE@XZ     100011e0 f   KThiefSkill.obj
 0001:00000227       ??1KThiefSkill@@UAE@XZ     10001227 f   KThiefSkill.obj
 0001:00000243       ?GetSkillId@KThiefSkill@@UAEHXZ 10001243 f   KThiefSkill.obj
 0001:00000253       ?GetSkillName@KThiefSkill@@UAEPBDXZ 10001253 f   KThiefSkill.obj
 0001:00000264       ?GetSkillStyle@KThiefSkill@@UAEHXZ 10001264 f   KThiefSkill.obj
 0001:00000274       ?LoadSkillLevelData@KThiefSkill@@UAEXKH@Z 10001274 f   KThiefSkill.obj
 0001:00000281       ?DoSkill@KThiefSkill@@QAEHPAVKNpc@@HH@Z 10001281 f   KThiefSkill.obj
 0001:000002dc       ?Cast_Redress@KThiefSkill@@AAEHPAVKPlayer@@0@Z 100012dc f   KThiefSkill.obj
 0001:00000501       ?Cast_ShowLife@KThiefSkill@@AAEHPAVKPlayer@@0@Z 10001501 f   KThiefSkill.obj
 0001:000005a2       ?Cast_ShowMana@KThiefSkill@@AAEHPAVKPlayer@@0@Z 100015a2 f   KThiefSkill.obj
 0001:00000643       ?Cast_ShowMoney@KThiefSkill@@AAEHPAVKPlayer@@0@Z 10001643 f   KThiefSkill.obj
 0001:000006c9       ?Cast_RunScript@KThiefSkill@@AAEHPAVKPlayer@@0@Z 100016c9 f   KThiefSkill.obj
 0001:00000701       ?Cast@KThiefSkill@@QAEHPAVKPlayer@@0@Z 10001701 f   KThiefSkill.obj
 0001:000007ac       ?OnSkill@KThiefSkill@@QAEHPAVKNpc@@@Z 100017ac f   KThiefSkill.obj
 0001:000008c3       ?CanCastSkill@KThiefSkill@@UBEHHAAH0@Z 100018c3 f   KThiefSkill.obj
 0001:000009b7       ?LoadSetting@KThiefSkill@@QAEHPAD@Z 100019b7 f   KThiefSkill.obj
 0001:00000c29       ?GetSkillCost@KThiefSkill@@UBEHPAX@Z 10001c29 f   KThiefSkill.obj
 0001:00000d00       ?GetSkillCostType@KThiefSkill@@UBE?AW4NPCATTRIB@@XZ 10001d00 f i KThiefSkill.obj
 0001:00000d20       ?GetAttackRadius@KThiefSkill@@UBEHXZ 10001d20 f i KThiefSkill.obj
 0001:00000d40       ?IsTargetOnly@KThiefSkill@@UBEHXZ 10001d40 f i KThiefSkill.obj
 0001:00000d50       ?IsTargetEnemy@KThiefSkill@@UBEHXZ 10001d50 f i KThiefSkill.obj
 0001:00000d60       ?IsTargetAlly@KThiefSkill@@UBEHXZ 10001d60 f i KThiefSkill.obj
 0001:00000d70       ?IsTargetObj@KThiefSkill@@UBEHXZ 10001d70 f i KThiefSkill.obj
 0001:00000d80       ?IsTargetNoNpc@KThiefSkill@@UBEHXZ 10001d80 f i KThiefSkill.obj
 0001:00000d90       ??_EKThiefSkill@@UAEPAXI@Z 10001d90 f i KThiefSkill.obj
 0001:00000d90       ??_GKThiefSkill@@UAEPAXI@Z 10001d90 f i KThiefSkill.obj
 0001:00000dc0       ??0ISkill@@QAE@XZ          10001dc0 f i KThiefSkill.obj
 0001:00000de0       ??1ISkill@@UAE@XZ          10001de0 f i KThiefSkill.obj
 0001:00000e00       ?IsTargetSelf@ISkill@@UBEHXZ 10001e00 f i KThiefSkill.obj
 0001:00000e10       ?IsAura@ISkill@@UBEHXZ     10001e10 f i KThiefSkill.obj
 0001:00000e20       ?IsPhysical@ISkill@@UBEHXZ 10001e20 f i KThiefSkill.obj
 0001:00000e30       ?IsExp@ISkill@@UAEHXZ      10001e30 f i KThiefSkill.obj
 0001:00000e40       ?IsBase@ISkill@@UAEHXZ     10001e40 f i KThiefSkill.obj
 0001:00000e50       ?GetSkillLevelUpScriptId@ISkill@@UBEKXZ 10001e50 f i KThiefSkill.obj
 0001:00000e60       ?GetDelayPerCast@ISkill@@UBEHH@Z 10001e60 f i KThiefSkill.obj
 0001:00000e70       ?GetSkillSeries@ISkill@@UBEHXZ 10001e70 f i KThiefSkill.obj
 0001:00000e80       ??_EISkill@@UAEPAXI@Z      10001e80 f i KThiefSkill.obj
 0001:00000e80       ??_GISkill@@UAEPAXI@Z      10001e80 f i KThiefSkill.obj
 0001:00000eb0       ?GetRandomNumber@@YAHHH@Z  10001eb0 f i KThiefSkill.obj
 0001:00000ee0       ??0KMissleSet@@QAE@XZ      10001ee0 f i KMissle.obj
 0001:00000f30       ??4KMissleSet@@QAEAAV0@ABV0@@Z 10001f30 f i KMissle.obj
 0001:00000f60       ??1KMissleSet@@QAE@XZ      10001f60 f i KMissle.obj
 0001:00001074       ??0KMissle@@QAE@XZ         10002074 f   KMissle.obj
 0001:00001125       ?Release@KMissle@@AAEXXZ   10002125 f   KMissle.obj
 0001:0000118b       ??1KMissle@@UAE@XZ         1000218b f   KMissle.obj
 0001:000011aa       ?GetInfoFromTabFile@KMissle@@QAEHH@Z 100021aa f   KMissle.obj
 0001:000011da       ?GetInfoFromTabFile@KMissle@@QAEHPAVKITabFile@@H@Z 100021da f   KMissle.obj
 0001:000014ad       ?Init@KMissle@@AAEHHHHHH@Z 100024ad f   KMissle.obj
 0001:000014bf       ?Activate@KMissle@@QAEHXZ  100024bf f   KMissle.obj
 0001:000017e5       ?OnWait@KMissle@@AAEXXZ    100027e5 f   KMissle.obj
 0001:000017f0       ?OnCollision@KMissle@@AAEXXZ 100027f0 f   KMissle.obj
 0001:000017fb       ?CheckCollision@KMissle@@AAEHXZ 100027fb f   KMissle.obj
 0001:00001abe       ?OnFly@KMissle@@AAEXXZ     10002abe f   KMissle.obj
 0001:00002576       ?OnVanish@KMissle@@AAEXXZ  10003576 f   KMissle.obj
 0001:00002581       ?CheckBeyondRegion@KMissle@@AAEHHH@Z 10003581 f   KMissle.obj
 0001:00002974       ??4KMissle@@AAEAAV0@AAV0@@Z 10003974 f   KMissle.obj
 0001:00002bb5       ?ProcessDamage@KMissle@@QAEHH@Z 10003bb5 f   KMissle.obj
 0001:00002f83       ?DoVanish@KMissle@@AAEXXZ  10003f83 f   KMissle.obj
 0001:00003014       ?DoCollision@KMissle@@AAEXXZ 10004014 f   KMissle.obj
 0001:0000308e       ?DoFly@KMissle@@AAEXXZ     1000408e f   KMissle.obj
 0001:000030b4       ?GetOffsetAxis@KMissle@@SAHHHHHHHAAH00@Z 100040b4 f   KMissle.obj
 0001:00003235       ?ProcessCollision@KMissle@@AAEHHHHHHH@Z 10004235 f   KMissle.obj
 0001:000033bb       ?ProcessCollision@KMissle@@AAEHXZ 100043bb f   KMissle.obj
 0001:00003414       ?DoWait@KMissle@@AAEXXZ    10004414 f   KMissle.obj
 0001:0000342c       ?PrePareFly@KMissle@@AAEHXZ 1000442c f   KMissle.obj
 0001:000036f0       ?CheckNearestCollision@KMissle@@AAEHXZ 100046f0 f   KMissle.obj
 0001:0000398c       ?GetMpsPos@KMissle@@QAEXPAH0@Z 1000498c f   KMissle.obj
 0001:000039f0       ??0KIndexNode@@QAE@XZ      100049f0 f i KMissle.obj
 0001:00003a30       ??0KNode@@QAE@XZ           10004a30 f i KMissle.obj
 0001:00003a60       ??_GKNode@@UAEPAXI@Z       10004a60 f i KMissle.obj
 0001:00003a60       ??_EKNode@@UAEPAXI@Z       10004a60 f i KMissle.obj
 0001:00003a90       ??1KNode@@UAE@XZ           10004a90 f i KMissle.obj
 0001:00003ab0       ??_EKIndexNode@@UAEPAXI@Z  10004ab0 f i KMissle.obj
 0001:00003ab0       ??_GKIndexNode@@UAEPAXI@Z  10004ab0 f i KMissle.obj
 0001:00003ae0       ??1KIndexNode@@UAE@XZ      10004ae0 f i KMissle.obj
 0001:00003b00       ??_EKMissle@@UAEPAXI@Z     10004b00 f i KMissle.obj
 0001:00003b00       ??_GKMissle@@UAEPAXI@Z     10004b00 f i KMissle.obj
 0001:00003b30       ??_GKMissleMagicAttribsData@@QAEPAXI@Z 10004b30 f i KMissle.obj
 0001:00003b60       ?IsMatch@KNpc@@QAEHK@Z     10004b60 f i KMissle.obj
 0001:00003b80       ?FindNpc@KRegion@@QAEHHHHH@Z 10004b80 f i KMissle.obj
 0001:00003c40       ?GetNext@KNode@@QAEPAV1@XZ 10004c40 f i KMissle.obj
 0001:00003c70       ?GetHead@KList@@QAEPAVKNode@@XZ 10004c70 f i KMissle.obj
 0001:00003c90       ?g_DirSin@@YAHHH@Z         10004c90 f i KMissle.obj
 0001:00003cb0       ?g_DirCos@@YAHHH@Z         10004cb0 f i KMissle.obj
 0001:00003cd0       ?g_GetDirIndex@@YAHHHHH@Z  10004cd0 f i KMissle.obj
 0001:00003cf0       ?g_GetDirIdxForFindPath@@YAHHHHH@Z 10004cf0 f i KMissle.obj
 0001:00003dd0       ?g_GetDistance@@YAHHHHH@Z  10004dd0 f i KMissle.obj
 0001:00003e30       ?qsqrt@@YAMM@Z             10004e30 f i KMissle.obj
 0001:00003e80       ?g_DirIndex2Dir@@YAHHH@Z   10004e80 f i KMissle.obj
 0001:00003eb0       ?GetMapX@KNpc@@QBEHXZ      10004eb0 f i KMissle.obj
 0001:00003ed0       ?GetMapY@KNpc@@QBEHXZ      10004ed0 f i KMissle.obj
 0001:00003ef0       ?GetOffX@KNpc@@QBEHXZ      10004ef0 f i KMissle.obj
 0001:00003f10       ?GetOffY@KNpc@@QBEHXZ      10004f10 f i KMissle.obj
 0001:00003f30       ?Send@KWorldMsg@@QAEHKHHH@Z 10004f30 f i KMissle.obj
 0001:00003ff0       ?AddTail@KList@@QAEXPAVKNode@@@Z 10004ff0 f i KMissle.obj
 0001:00004010       ?InsertBefore@KNode@@QAEXPAV1@@Z 10005010 f i KMissle.obj
 0001:00004060       ??0KWorldMsgNode@@QAE@XZ   10005060 f i KMissle.obj
 0001:00004080       ??_GKWorldMsgNode@@UAEPAXI@Z 10005080 f i KMissle.obj
 0001:00004080       ??_EKWorldMsgNode@@UAEPAXI@Z 10005080 f i KMissle.obj
 0001:000040b0       ??1KWorldMsgNode@@UAE@XZ   100050b0 f i KMissle.obj
 0001:000040d0       ?g_RandPercent@@YAHH@Z     100050d0 f i KMissle.obj
 0001:00004110       ??0KMagicAttrib@@QAE@XZ    10005110 f i KMissle.obj
 0001:00004150       ?GetGameTime@KSubWorldSet@@QAEHXZ 10005150 f i KMissle.obj
 0001:00004160       ?DelRef@KMissleMagicAttribsData@@QAEHXZ 10005160 f i KMissle.obj
 0001:00004180       ??1KMissleMagicAttribsData@@QAE@XZ 10005180 f i KMissle.obj
 0001:000041a0       ?Remove@KMissleMagicAttribsData@@AAEXXZ 100051a0 f i KMissle.obj
 0001:000041d0       ?ZAxisMove@KMissle@@AAEXXZ 100051d0 f i KMissle.obj
 0001:00004240       ?TestBarrier@KMissle@@AAEHXZ 10005240 f i KMissle.obj
 0001:000042c0       ?IsSkillReduceResist@KSkill@@QBEHXZ 100052c0 f i KMissle.obj
 0001:000042e0       ?GetSkill@KSkillManager@@QAEPAVISkill@@HH@Z 100052e0 f i KMissle.obj
 0001:000043af       ?Init@KMissleSet@@QAEXXZ   100053af f   KMissleSet.obj
 0001:00004414       ?FindFree@KMissleSet@@QAEHXZ 10005414 f   KMissleSet.obj
 0001:0000442a       ?Add@KMissleSet@@QAEHHHHHHH@Z 1000542a f   KMissleSet.obj
 0001:00004511       ?Add@KMissleSet@@QAEHHHH@Z 10005511 f   KMissleSet.obj
 0001:000046dc       ?CreateMissile@KMissleSet@@QAEHHHHHHHHH@Z 100056dc f   KMissleSet.obj
 0001:0000471e       ?Activate@KMissleSet@@QAEHXZ 1000571e f   KMissleSet.obj
 0001:00004761       ?Remove@KMissleSet@@QAEXH@Z 10005761 f   KMissleSet.obj
 0001:000047bb       ?Draw@KMissleSet@@QAEXXZ   100057bb f   KMissleSet.obj
 0001:000047e5       ?GetCount@KMissleSet@@QAEHXZ 100057e5 f   KMissleSet.obj
 0001:00004834       ?ClearMissles@KMissleSet@@QAEXXZ 10005834 f   KMissleSet.obj
 0001:00004880       ??0KSkillList@@QAE@XZ      10005880 f   KSkillList.obj
 0001:000048bb       ??1KSkillList@@QAE@XZ      100058bb f   KSkillList.obj
 0001:000048c6       ?FindSame@KSkillList@@QAEHH@Z 100058c6 f   KSkillList.obj
 0001:0000491e       ?FindFree@KSkillList@@QAEHXZ 1000591e f   KSkillList.obj
 0001:0000495b       ?SetNpcSkill@KSkillList@@QAEXHHH@Z 1000595b f   KSkillList.obj
 0001:00004add       ?RemoveNpcSkill@KSkillList@@QAEXH@Z 10005add f   KSkillList.obj
 0001:00004c36       ?GetCount@KSkillList@@QAEHXZ 10005c36 f   KSkillList.obj
 0001:00004c7f       ?IsBaseSkill@KSkillList@@QAEHH@Z 10005c7f f   KSkillList.obj
 0001:00004cca       ?AllSkillV@KSkillList@@QAEXHH@Z 10005cca f   KSkillList.obj
 0001:000050b3       ?SeriesSkillV@KSkillList@@QAEXHH@Z 100060b3 f   KSkillList.obj
 0001:00005176       ?IncreaseLevel@KSkillList@@QAEHHH@Z 10006176 f   KSkillList.obj
 0001:000052b3       ?IncreaseExp@KSkillList@@QAEHHH@Z 100062b3 f   KSkillList.obj
 0001:0000535c       ?SetNextExp@KSkillList@@QAEHHH@Z 1000635c f   KSkillList.obj
 0001:00005398       ?SetTempSkill@KSkillList@@QAEHHH@Z 10006398 f   KSkillList.obj
 0001:000053ca       ?Add@KSkillList@@QAEHHHHHHH@Z 100063ca f   KSkillList.obj
 0001:0000562d       ?GetLevel@KSkillList@@QAEHH@Z 1000662d f   KSkillList.obj
 0001:0000566c       ?GetExp@KSkillList@@QAEHH@Z 1000666c f   KSkillList.obj
 0001:000056ab       ?GetNextExp@KSkillList@@QAEHH@Z 100066ab f   KSkillList.obj
 0001:000056ea       ?IsTempSkill@KSkillList@@QAEHH@Z 100066ea f   KSkillList.obj
 0001:00005729       ?GetCurrentLevel@KSkillList@@QAEHH@Z 10006729 f   KSkillList.obj
 0001:00005778       ?CanCast@KSkillList@@QAEHHK@Z 10006778 f   KSkillList.obj
 0001:000057d9       ?SetNextCastTime@KSkillList@@QAEXHKK@Z 100067d9 f   KSkillList.obj
 0001:0000582a       ?UpdateDBSkillList@KSkillList@@QAEHPAE@Z 1000682a f   KSkillList.obj
 0001:000058db       ?RollBackSkills@KSkillList@@QAEH_N@Z 100068db f   KSkillList.obj
 0001:000059d6       ?GetAddSkillDamage@KSkillList@@QAEHH@Z 100069d6 f   KSkillList.obj
 0001:00005af0       ?RemoveIdx@KSkillList@@QAEXH@Z 10006af0 f i KSkillList.obj
 0001:00005bd0       ?GetDelayPerCast@KThiefSkill@@QAEKXZ 10006bd0 f i KSkillList.obj
 0001:00005bf0       ?GetAddSkillDamage@KSkill@@QAEPAUKMagicAttrib@@XZ 10006bf0 f i KSkillList.obj
 0001:00005c10       ?id@?$ctype@G@std@@$D      10006c10 f i KSkillList.obj
 0001:00005c40       ?id@?$ctype@G@std@@$E      10006c40 f i KSkillList.obj
 0001:00005c8f       ??0KSkillManager@@QAE@XZ   10006c8f f   KSkillManager.obj
 0001:00005c9d       ??1KSkillManager@@QAE@XZ   10006c9d f   KSkillManager.obj
 0001:00005d69       ?Init@KSkillManager@@QAEHXZ 10006d69 f   KSkillManager.obj
 0001:00005fd7       ?InstanceSkill@KSkillManager@@AAEPAVISkill@@KK@Z 10006fd7 f   KSkillManager.obj
 0001:00006250       ??4KSkill@@QAEAAV0@ABV0@@Z 10007250 f i KSkillManager.obj
 0001:00006960       ??4ISkill@@QAEAAV0@ABV0@@Z 10007960 f i KSkillManager.obj
 0001:00006970       ?SetSkillId@KSkill@@QAEXH@Z 10007970 f i KSkillManager.obj
 0001:00006990       ?SetSkillLevel@KSkill@@QAEXK@Z 10007990 f i KSkillManager.obj
 0001:000069b0       ?GetSkillStyle@KSkillManager@@AAEHK@Z 100079b0 f i KSkillManager.obj
 0001:000069f0       ??0KSkill@@QAE@XZ          100079f0 f   KSkills.obj
 0001:00006ba6       ??1KSkill@@UAE@XZ          10007ba6 f   KSkills.obj
 0001:00006bc2       ?CanCastSkill@KSkill@@UBEHHAAH0@Z 10007bc2 f   KSkills.obj
 0001:00006ef4       ?Cast@KSkill@@QBEHHHHHW4eSkillLauncherType@@@Z 10007ef4 f   KSkills.obj
 0001:00007153       ?Vanish@KSkill@@ABEXPAVKMissle@@@Z 10008153 f   KSkills.obj
 0001:0000716e       ?OnMissleEvent@KSkill@@QBEHGPAVKMissle@@@Z 1000816e f   KSkills.obj
 0001:0000746f       ?FlyEvent@KSkill@@ABEXPAVKMissle@@@Z 1000846f f   KSkills.obj
 0001:0000748a       ?Collidsion@KSkill@@ABEXPAVKMissle@@@Z 1000848a f   KSkills.obj
 0001:000074a5       ?CastMissles@KSkill@@ABEHHHHHW4eSkillLauncherType@@@Z 100084a5 f   KSkills.obj
 0001:00008afd       ?CastZone@KSkill@@ABEHPAUTOrdinSkillParam@@HHH@Z 10009afd f   KSkills.obj
 0001:0000915f       ?CastLine@KSkill@@ABEHPAUTOrdinSkillParam@@HHH@Z 1000a15f f   KSkills.obj
 0001:000096ee       ?CastExtractiveLineMissle@KSkill@@ABEHPAUTOrdinSkillParam@@HHHHHHH@Z 1000a6ee f   KSkills.obj
 0001:00009c37       ?CastWall@KSkill@@ABEHPAUTOrdinSkillParam@@HHH@Z 1000ac37 f   KSkills.obj
 0001:0000a178       ?CastCircle@KSkill@@ABEHPAUTOrdinSkillParam@@HHH@Z 1000b178 f   KSkills.obj
 0001:0000a664       ?CastSpread@KSkill@@ABEHPAUTOrdinSkillParam@@HHH@Z 1000b664 f   KSkills.obj
 0001:0000ad28       ?GetChildSkillNum@KSkill@@QBEHH@Z 1000bd28 f   KSkills.obj
 0001:0000ad3e       ?CreateMissle@KSkill@@ABEXHHH@Z 1000bd3e f   KSkills.obj
 0001:0000b0ca       ?GetInfoFromTabFile@KSkill@@QAEHH@Z 1000c0ca f   KSkills.obj
 0001:0000b0f1       ?GetInfoFromTabFile@KSkill@@QAEHPAVKITabFile@@H@Z 1000c0f1 f   KSkills.obj
 0001:0000ba0a       ?LoadSkillLevelData@KSkill@@UAEXKH@Z 1000ca0a f   KSkills.obj
 0001:0000bd72       ?CreateMissleMagicAttribsData@KSkill@@QBEPAVKMissleMagicAttribsData@@H@Z 1000cd72 f   KSkills.obj
 0001:0000befd       ?GetMissleGenerateTime@KSkill@@QBEIH@Z 1000cefd f   KSkills.obj
 0001:0000c05c       ?GetSkillIdFromName@KSkill@@SAHPAD@Z 1000d05c f   KSkills.obj
 0001:0000c0d0       ?CastInitiativeSkill@KSkill@@ABEHHHHH@Z 1000d0d0 f   KSkills.obj
 0001:0000c2a4       ?CastPassivitySkill@KSkill@@ABEHHHHH@Z 1000d2a4 f   KSkills.obj
 0001:0000c310       ?ParseString2MagicAttrib@KSkill@@AAEHKPAD0@Z 1000d310 f   KSkills.obj
 0001:0000ce40       ?CastStateSkill@KSkill@@QBEHHHHHH@Z 1000de40 f   KSkills.obj
 0001:0000ceb0       ??_EKSkill@@UAEPAXI@Z      1000deb0 f i KSkills.obj
 0001:0000ceb0       ??_GKSkill@@UAEPAXI@Z      1000deb0 f i KSkills.obj
 0001:0000cee0       ?Param2PCoordinate@KSkill@@ABEHHHHPAH0W4eSkillLauncherType@@@Z 1000dee0 f i KSkills.obj
 0001:0000d060       ?g_Dir2DirIndex@@YAHHH@Z   1000e060 f i KSkills.obj
 0001:0000d090       ?GetRef@KMissleMagicAttribsData@@QAEHXZ 1000e090 f i KSkills.obj
 0001:0000d0a0       ?SetMagicAttribsData@KMissle@@QAEHPAVKMissleMagicAttribsData@@@Z 1000e0a0 f i KSkills.obj
 0001:0000d0d0       ?AddRef@KMissleMagicAttribsData@@QAEHXZ 1000e0d0 f i KSkills.obj
 0001:0000d0f0       ?IsTargetOnly@KSkill@@UBEHXZ 1000e0f0 f i KSkills.obj
 0001:0000d110       ?IsTargetEnemy@KSkill@@UBEHXZ 1000e110 f i KSkills.obj
 0001:0000d130       ?IsTargetAlly@KSkill@@UBEHXZ 1000e130 f i KSkills.obj
 0001:0000d150       ?IsTargetObj@KSkill@@UBEHXZ 1000e150 f i KSkills.obj
 0001:0000d170       ?IsTargetNoNpc@KSkill@@UBEHXZ 1000e170 f i KSkills.obj
 0001:0000d190       ?IsTargetSelf@KSkill@@UBEHXZ 1000e190 f i KSkills.obj
 0001:0000d1b0       ?GetSkillLevelUpScriptId@KSkill@@UBEKXZ 1000e1b0 f i KSkills.obj
 0001:0000d1d0       ?GetSkillName@KSkill@@UAEPBDXZ 1000e1d0 f i KSkills.obj
 0001:0000d1f0       ?GetSkillStyle@KSkill@@UAEHXZ 1000e1f0 f i KSkills.obj
 0001:0000d210       ?GetAttackRadius@KSkill@@UBEHXZ 1000e210 f i KSkills.obj
 0001:0000d230       ?GetSkillCost@KSkill@@UBEHPAX@Z 1000e230 f i KSkills.obj
 0001:0000d250       ?GetSkillCostType@KSkill@@UBE?AW4NPCATTRIB@@XZ 1000e250 f i KSkills.obj
 0001:0000d270       ?GetDelayPerCast@KSkill@@UBEHH@Z 1000e270 f i KSkills.obj
 0001:0000d2a0       ?GetSkillId@KSkill@@UAEHXZ 1000e2a0 f i KSkills.obj
 0001:0000d2c0       ?IsAura@KSkill@@UBEHXZ     1000e2c0 f i KSkills.obj
 0001:0000d2e0       ?IsPhysical@KSkill@@UBEHXZ 1000e2e0 f i KSkills.obj
 0001:0000d300       ?IsBase@KSkill@@UAEHXZ     1000e300 f i KSkills.obj
 0001:0000d320       ?IsExp@KSkill@@UAEHXZ      1000e320 f i KSkills.obj
 0001:0000d340       ?GetSkillSeries@KSkill@@UBEHXZ 1000e340 f i KSkills.obj
 0001:0000d360       ??0KMissleMagicAttribsData@@QAE@XZ 1000e360 f i KSkills.obj
 0001:0000d3c0       ?MagicAttrib2String@KSkill@@ABEPBDH@Z 1000e3c0 f i KSkills.obj
 0001:0000d3e0       ?Init@KFaction@@QAEHXZ     1000e3e0 f   KFaction.obj
 0001:0000d9ea       ?GetID@KFaction@@QAEHHH@Z  1000e9ea f   KFaction.obj
 0001:0000da1d       ?GetID@KFaction@@QAEHHPAD@Z 1000ea1d f   KFaction.obj
 0001:0000da95       ?GetID@KFaction@@QAEHPAD@Z 1000ea95 f   KFaction.obj
 0001:0000dafc       ?GetCamp@KFaction@@QAEHH@Z 1000eafc f   KFaction.obj
 0001:0000db49       ??0KGameData@@QAE@XZ       1000eb49 f   KGameData.obj
 0001:0000db9e       ?Init@KGameData@@QAEHXZ    1000eb9e f   KGameData.obj
 0001:0000dbcb       ?SetData@KGameData@@QAEXHPAD@Z 1000ebcb f   KGameData.obj
 0001:0000dbfe       ?GetDataInt@KGameData@@QAEHH@Z 1000ebfe f   KGameData.obj
 0001:0000dc44       ?GetDataStr@KGameData@@QAEPBDH@Z 1000ec44 f   KGameData.obj
 0001:0000dc6f       ?AddDataGr@KGameData@@QAEHPAUKDataGroup@@@Z 1000ec6f f   KGameData.obj
 0001:0000dd62       ?SetDataGr@KGameData@@QAEXHPAUKDataGroup@@@Z 1000ed62 f   KGameData.obj
 0001:0000de0d       ?FindFreeDataGr@KGameData@@QAEHXZ 1000ee0d f   KGameData.obj
 0001:0000de52       ?FindDataId@KGameData@@QAEHK@Z 1000ee52 f   KGameData.obj
 0001:0000de9b       ?GetDataGr_dwName@KGameData@@QAEHH@Z 1000ee9b f   KGameData.obj
 0001:0000deb8       ?GetDataGr_nValue@KGameData@@QAEHHH@Z 1000eeb8 f   KGameData.obj
 0001:0000dedc       ?GetStrDataGr_Name1@KGameData@@QAEPADH@Z 1000eedc f   KGameData.obj
 0001:0000def9       ?GetStrDataGr_Name2@KGameData@@QAEPADH@Z 1000eef9 f   KGameData.obj
 0001:0000df16       ?InitGameData@KGameData@@QAEHXZ 1000ef16 f   KGameData.obj
 0001:0000e1e3       ?Save@KGameData@@QAEHXZ    1000f1e3 f   KGameData.obj
 0001:0000e410       ?Clear@KDataGroup@@QAEXXZ  1000f410 f i KGameData.obj
 0001:0000e4c2       ??0KNpc@@QAE@XZ            1000f4c2 f   KNpc.obj
 0001:0000e639       ?Init@KNpc@@QAEXXZ         1000f639 f   KNpc.obj
 0001:0000ecb4       ?GetActiveSkill@KNpc@@QAEPAVISkill@@XZ 1000fcb4 f   KNpc.obj
 0001:0000ed0c       ?SetTempCurrentCamp@KNpc@@QAEXH@Z 1000fd0c f   KNpc.obj
 0001:0000ee7e       ?SetCurrentCamp@KNpc@@QAEXH@Z 1000fe7e f   KNpc.obj
 0001:0000f0b0       ?ChangeCurrentCamp@KNpc@@QAEXH@Z 100100b0 f   KNpc.obj
 0001:0000f282       ?SetCamp@KNpc@@QAEXH@Z     10010282 f   KNpc.obj
 0001:0000f454       ?RestoreCurrentCamp@KNpc@@QAEXXZ 10010454 f   KNpc.obj
 0001:0000f653       ?Activate@KNpc@@QAEXXZ     10010653 f   KNpc.obj
 0001:0000f783       ?ProcStatus@KNpc@@QAEXXZ   10010783 f   KNpc.obj
 0001:0000f8df       ?ProcCommand@KNpc@@QAEXH@Z 100108df f   KNpc.obj
 0001:0000fb7a       ?ProcessState@KNpc@@QAEHXZ 10010b7a f   KNpc.obj
 0001:00010c6b       ?UpdateDBStateList@KNpc@@QAEHPAE@Z 10011c6b f   KNpc.obj
 0001:00010d27       ?DoDeath@KNpc@@AAEXH@Z     10011d27 f   KNpc.obj
 0001:000111c4       ?OnDeath@KNpc@@AAEXXZ      100121c4 f   KNpc.obj
 0001:00011284       ?DoDefense@KNpc@@AAEXXZ    10012284 f   KNpc.obj
 0001:0001129c       ?OnDefense@KNpc@@AAEXXZ    1001229c f   KNpc.obj
 0001:000112a7       ?DoIdle@KNpc@@AAEXXZ       100122a7 f   KNpc.obj
 0001:000112cd       ?OnIdle@KNpc@@AAEXXZ       100122cd f   KNpc.obj
 0001:000112d8       ?DoHurt@KNpc@@AAEXHHH@Z    100122d8 f   KNpc.obj
 0001:00011547       ?OnHurt@KNpc@@AAEXXZ       10012547 f   KNpc.obj
 0001:000115b5       ?DoSpecial1@KNpc@@AAEXXZ   100125b5 f   KNpc.obj
 0001:000115c8       ?OnSpecial1@KNpc@@AAEXXZ   100125c8 f   KNpc.obj
 0001:0001169f       ?DoSpecial2@KNpc@@AAEXXZ   1001269f f   KNpc.obj
 0001:000116aa       ?OnSpecial2@KNpc@@AAEXXZ   100126aa f   KNpc.obj
 0001:00011740       ?DoSpecial3@KNpc@@AAEXXZ   10012740 f   KNpc.obj
 0001:0001174b       ?OnSpecial3@KNpc@@AAEXXZ   1001274b f   KNpc.obj
 0001:00011756       ?DoStand@KNpc@@AAEXXZ      10012756 f   KNpc.obj
 0001:00011962       ?OnStand@KNpc@@AAEXXZ      10012962 f   KNpc.obj
 0001:00011975       ?DoRevive@KNpc@@AAEXXZ     10012975 f   KNpc.obj
 0001:00011a8f       ?OnRevive@KNpc@@AAEXXZ     10012a8f f   KNpc.obj
 0001:00011aba       ?DoRun@KNpc@@AAEXXZ        10012aba f   KNpc.obj
 0001:00011cfb       ?OnRun@KNpc@@AAEXXZ        10012cfb f   KNpc.obj
 0001:00011e4c       ?DoSit@KNpc@@AAEXXZ        10012e4c f   KNpc.obj
 0001:00012030       ?OnSit@KNpc@@AAEXXZ        10013030 f   KNpc.obj
 0001:0001205c       ?DoSkill@KNpc@@AAEXHH@Z    1001305c f   KNpc.obj
 0001:000124d9       ?DoOrdinSkill@KNpc@@AAEHPAVKSkill@@HH@Z 100134d9 f   KNpc.obj
 0001:0001272d       ?CastMeleeSkill@KNpc@@AAEHPAVKSkill@@@Z 1001372d f   KNpc.obj
 0001:0001290b       ?DoBlurAttack@KNpc@@AAEHXZ 1001390b f   KNpc.obj
 0001:00012980       ?OnSkill@KNpc@@AAEXXZ      10013980 f   KNpc.obj
 0001:00012b0c       ?JumpTo@KNpc@@AAEXHH@Z     10013b0c f   KNpc.obj
 0001:00012b47       ?RunTo@KNpc@@AAEXHH@Z      10013b47 f   KNpc.obj
 0001:00012b70       ?Goto@KNpc@@AAEXHH@Z       10013b70 f   KNpc.obj
 0001:00012b99       ?DoWalk@KNpc@@AAEXXZ       10013b99 f   KNpc.obj
 0001:00012de0       ?OnWalk@KNpc@@AAEXXZ       10013de0 f   KNpc.obj
 0001:00012e0a       ?ModifyAttrib@KNpc@@QAEXHPAX@Z 10013e0a f   KNpc.obj
 0001:00012e2f       ?CalcDamage@KNpc@@QAEHHHHHW4DAMAGE_TYPE@@HHHHHHHH@Z 10013e2f f   KNpc.obj
 0001:000138e3       ?ReplySkill@KNpc@@QAEXXZ   100148e3 f   KNpc.obj
 0001:00013a3e       ?RescueSkill@KNpc@@QAEXXZ  10014a3e f   KNpc.obj
 0001:00013b99       ?AttackSkill@KNpc@@QAEXH@Z 10014b99 f   KNpc.obj
 0001:00013d5d       ?DeathSkill@KNpc@@QAEXXZ   10014d5d f   KNpc.obj
 0001:00013eb8       ?ReceiveDamage@KNpc@@QAEHHHHPAXHHH@Z 10014eb8 f   KNpc.obj
 0001:0001466f       ?SetImmediatelySkillEffect@KNpc@@QAEXHPAXH@Z 1001566f f   KNpc.obj
 0001:000146c7       ?AppendSkillEffect@KNpc@@QAEXHHHPAX0@Z 100156c7 f   KNpc.obj
 0001:000151fd       ?ServerMove@KNpc@@AAEXH@Z  100161fd f   KNpc.obj
 0001:00015903       ?ServerJump@KNpc@@AAEXH@Z  10016903 f   KNpc.obj
 0001:00015f66       ?SendCommand@KNpc@@QAEXW4NPCCMD@@HHH@Z 10016f66 f   KNpc.obj
 0001:00016074       ?NewPath@KNpc@@AAEHHH@Z    10017074 f   KNpc.obj
 0001:0001609e       ?NewJump@KNpc@@AAEHHH@Z    1001709e f   KNpc.obj
 0001:00016337       ?Cost@KNpc@@QAEHW4NPCATTRIB@@HHH@Z 10017337 f   KNpc.obj
 0001:00016492       ?Cast@KNpc@@QAEXHH@Z       10017492 f   KNpc.obj
 0001:000167a5       ?DoJump@KNpc@@AAEXXZ       100177a5 f   KNpc.obj
 0001:000169ee       ?OnJump@KNpc@@AAEHXZ       100179ee f   KNpc.obj
 0001:00016a35       ?WaitForFrame@KNpc@@AAEHXZ 10017a35 f   KNpc.obj
 0001:00016a7f       ?IsReachFrame@KNpc@@AAEHH@Z 10017a7f f   KNpc.obj
 0001:00016ab5       ?Load@KNpc@@QAEXHH@Z       10017ab5 f   KNpc.obj
 0001:00016b71       ?GetMpsPos@KNpc@@QAEXPAH0@Z 10017b71 f   KNpc.obj
 0001:00016bd2       ?SetActiveSkill@KNpc@@QAEHH@Z 10017bd2 f   KNpc.obj
 0001:00016c84       ?SetAuraSkill@KNpc@@QAEXH@Z 10017c84 f   KNpc.obj
 0001:00016d2a       ?SetPlayerIdx@KNpc@@QAEHH@Z 10017d2a f   KNpc.obj
 0001:00016d68       ?SwitchMaskFeature@KNpc@@QAEXXZ 10017d68 f   KNpc.obj
 0001:00016f45       ?SendSyncData@KNpc@@QAEHHH@Z 10017f45 f   KNpc.obj
 0001:0001767a       ?NormalSync@KNpc@@QAEXXZ   1001867a f   KNpc.obj
 0001:00018021       ?BroadCastRevive@KNpc@@QAEXH@Z 10019021 f   KNpc.obj
 0001:000181ce       ?GetPlayerIdx@KNpc@@QAEHXZ 100191ce f   KNpc.obj
 0001:000181ef       ?AddBaseLifeMax@KNpc@@QAEXH@Z 100191ef f   KNpc.obj
 0001:00018223       ?SetBaseLifeMax@KNpc@@QAEXH@Z 10019223 f   KNpc.obj
 0001:0001824e       ?AddCurLifeMax@KNpc@@QAEXH@Z 1001924e f   KNpc.obj
 0001:00018270       ?AddBaseStaminaMax@KNpc@@QAEXH@Z 10019270 f   KNpc.obj
 0001:000182a4       ?SetBaseStaminaMax@KNpc@@QAEXH@Z 100192a4 f   KNpc.obj
 0001:000182cf       ?AddCurStaminaMax@KNpc@@QAEXH@Z 100192cf f   KNpc.obj
 0001:000182f1       ?AddBaseManaMax@KNpc@@QAEXH@Z 100192f1 f   KNpc.obj
 0001:00018325       ?SetBaseManaMax@KNpc@@QAEXH@Z 10019325 f   KNpc.obj
 0001:00018350       ?AddCurManaMax@KNpc@@QAEXH@Z 10019350 f   KNpc.obj
 0001:00018372       ?CalcCurLifeReplenish@KNpc@@QAEXXZ 10019372 f   KNpc.obj
 0001:0001838f       ?CalcCurLucky@KNpc@@QAEXXZ 1001938f f   KNpc.obj
 0001:000183b8       ?Remove@KNpc@@QAEXXZ       100193b8 f   KNpc.obj
 0001:000183cb       ?SetSeries@KNpc@@QAEXH@Z   100193cb f   KNpc.obj
 0001:000183e1       ?SetStateSkillEffect@KNpc@@QAEXHHHPAXHHH@Z 100193e1 f   KNpc.obj
 0001:000187d2       ?ModifyMissleCollsion@KNpc@@QAEHH@Z 100197d2 f   KNpc.obj
 0001:0001880b       ?ModifyMissleLifeTime@KNpc@@QAEHH@Z 1001980b f   KNpc.obj
 0001:0001882c       ?ModifyMissleSpeed@KNpc@@QAEHH@Z 1001982c f   KNpc.obj
 0001:00018852       ?DoBlurMove@KNpc@@AAEHXZ   10019852 f   KNpc.obj
 0001:00018e08       ?OnBlurMove@KNpc@@AAEXXZ   10019e08 f   KNpc.obj
 0001:00018e97       ?DoManyAttack@KNpc@@AAEHXZ 10019e97 f   KNpc.obj
 0001:00018f9c       ?OnManyAttack@KNpc@@AAEXXZ 10019f9c f   KNpc.obj
 0001:00019041       ?DoRunAttack@KNpc@@AAEHXZ  1001a041 f   KNpc.obj
 0001:000191ef       ?OnRunAttack@KNpc@@AAEXXZ  1001a1ef f   KNpc.obj
 0001:00019417       ?DoJumpAttack@KNpc@@AAEHXZ 1001a417 f   KNpc.obj
 0001:000194f0       ?OnJumpAttack@KNpc@@AAEHXZ 1001a4f0 f   KNpc.obj
 0001:00019664       ?CheckHitTarget@KNpc@@AAEHHHH@Z 1001a664 f   KNpc.obj
 0001:0001970a       ?GetNpcCopyFromTemplate@KNpc@@QAEXH@Z 1001a70a f   KNpc.obj
 0001:000197f2       ?LoadDataFromTemplate@KNpc@@QAEXH@Z 1001a7f2 f   KNpc.obj
 0001:00019c31       ?SetPhysicsDamage@KNpc@@QAEXHH@Z 1001ac31 f   KNpc.obj
 0001:00019c56       ?SetReviveFrame@KNpc@@QAEXH@Z 1001ac56 f   KNpc.obj
 0001:00019c6f       ?SetBaseAttackRating@KNpc@@QAEXH@Z 1001ac6f f   KNpc.obj
 0001:00019c9a       ?SetBaseDefence@KNpc@@QAEXH@Z 1001ac9a f   KNpc.obj
 0001:00019cc5       ?DeathPunish@KNpc@@QAEXHH@Z 1001acc5 f   KNpc.obj
 0001:0001a15e       ?PlayerDeadCreateMoneyObj@KNpc@@AAEXH@Z 1001b15e f   KNpc.obj
 0001:0001a232       ?Revive@KNpc@@QAEXXZ       1001b232 f   KNpc.obj
 0001:0001a3ad       ?RestoreLiveData@KNpc@@QAEXXZ 1001b3ad f   KNpc.obj
 0001:0001a3b8       ?SendDataToNearRegion@KNpc@@QAEXPAXK@Z 1001b3b8 f   KNpc.obj
 0001:0001a56a       ?DeathCalcPKValue@KNpc@@QAEHH@Z 1001b56a f   KNpc.obj
 0001:0001aab7       ?FindAroundPlayer@KNpc@@QAEHPBD@Z 1001bab7 f   KNpc.obj
 0001:0001abb7       ?UpdateNpcStateInfo@KNpc@@AAEXXZ 1001bbb7 f   KNpc.obj
 0001:0001ad77       ?ClearNpcState@KNpc@@QAEXXZ 1001bd77 f   KNpc.obj
 0001:0001ade7       ?RestoreNpcBaseInfo@KNpc@@QAEXXZ 1001bde7 f   KNpc.obj
 0001:0001b30d       ?SetPos@KNpc@@QAEHHH@Z     1001c30d f   KNpc.obj
 0001:0001b598       ?ChangeWorld@KNpc@@QAEHKHH@Z 1001c598 f   KNpc.obj
 0001:0001b912       ?TobeExchangeServer@KNpc@@QAEXKHH@Z 1001c912 f   KNpc.obj
 0001:0001b98d       ?IsPlayer@KNpc@@QAEHXZ     1001c98d f   KNpc.obj
 0001:0001b9a6       ?ClearStateSkillEffect@KNpc@@QAEXXZ 1001c9a6 f   KNpc.obj
 0001:0001ba94       ?IgnoreState@KNpc@@QAEXH@Z 1001ca94 f   KNpc.obj
 0001:0001bc00       ?ClearNormalState@KNpc@@QAEXXZ 1001cc00 f   KNpc.obj
 0001:0001bd91       ?IsNpcStateExist@KNpc@@QAEHH@Z 1001cd91 f   KNpc.obj
 0001:0001bde2       ?IsNpcSkillExist@KNpc@@QAEHH@Z 1001cde2 f   KNpc.obj
 0001:0001be46       ?CheckTrap@KNpc@@QAEHHH@Z  1001ce46 f   KNpc.obj
 0001:0001bf28       ?SetFightMode@KNpc@@QAEXH@Z 1001cf28 f   KNpc.obj
 0001:0001bf64       ?TurnTo@KNpc@@QAEXH@Z      1001cf64 f   KNpc.obj
 0001:0001bfdd       ?ReCalcStateEffect@KNpc@@QAEXXZ 1001cfdd f   KNpc.obj
 0001:0001c0b0       ?GetCurActiveWeaponSkill@KNpc@@QAEHXZ 1001d0b0 f   KNpc.obj
 0001:0001c14b       ?SwitchRideHorse@KNpc@@QAEXH@Z 1001d14b f   KNpc.obj
 0001:0001c3a5       ?CanSwitchRideHorse@KNpc@@QAEHXZ 1001d3a5 f   KNpc.obj
 0001:0001c593       ?ResetNpcTypeName@KNpc@@QAEXH@Z 1001d593 f   KNpc.obj
 0001:0001c606       ?SetRank@KNpc@@QAEXH@Z     1001d606 f   KNpc.obj
 0001:0001c7d4       ?SetExpandRank@KNpc@@QAEXPAUKExpandRank@@@Z 1001d7d4 f   KNpc.obj
 0001:0001cbd0       ??1KNpc@@QAE@XZ            1001dbd0 f i KNpc.obj
 0001:0001cc40       ??1KList@@QAE@XZ           1001dc40 f i KNpc.obj
 0001:0001cc90       ??0KList@@QAE@XZ           1001dc90 f i KNpc.obj
 0001:0001cd00       ??0KMagicAutoSkill@@QAE@XZ 1001dd00 f i KNpc.obj
 0001:0001cd40       ?Release@KExpandRank@@QAEXXZ 1001dd40 f i KNpc.obj
 0001:0001cd80       ?Remove@KNode@@QAEXXZ      1001dd80 f i KNpc.obj
 0001:0001cdd0       ?GetChildSkillId@KSkill@@QBEHXZ 1001ddd0 f i KNpc.obj
 0001:0001cdf0       ?GetAppendSkillNum@KSkill@@QAEHXZ 1001ddf0 f i KNpc.obj
 0001:0001ce10       ?GetAppendSkillId@KSkill@@QAEHH@Z 1001de10 f i KNpc.obj
 0001:0001ce40       ??0tagSHOW_MSG_SYNC@@QAE@XZ 1001de40 f i KNpc.obj
 0001:0001ce60       ??1tagSHOW_MSG_SYNC@@QAE@XZ 1001de60 f i KNpc.obj
 0001:0001ce80       ?Release@tagSHOW_MSG_SYNC@@QAEXXZ 1001de80 f i KNpc.obj
 0001:0001cec0       ?GetActionType@KSkill@@QBE?AW4CLIENTACTION@@XZ 1001dec0 f i KNpc.obj
 0001:0001cee0       ?GetParam1@KSkill@@QBEHXZ  1001dee0 f i KNpc.obj
 0001:0001cf00       ?GetMeleeType@KSkill@@QBEHXZ 1001df00 f i KNpc.obj
 0001:0001cf20       ?GetSkillIdx@KSkillList@@QAEHH@Z 1001df20 f i KNpc.obj
 0001:0001cf70       ?GetAddLevel@KSkillList@@QAEHH@Z 1001df70 f i KNpc.obj
 0001:0001cfc0       ?GetPlayerWalkSpeed@KNpcSet@@QAEHXZ 1001dfc0 f i KNpc.obj
 0001:0001cfd0       ?GetPlayerRunSpeed@KNpcSet@@QAEHXZ 1001dfd0 f i KNpc.obj
 0001:0001cff0       ?GetPlayerAttackFrame@KNpcSet@@QAEHXZ 1001dff0 f i KNpc.obj
 0001:0001d010       ?GetPlayerHurtFrame@KNpcSet@@QAEHXZ 1001e010 f i KNpc.obj
 0001:0001d030       ??0tagS2C_PLAYER_SYNC@@QAE@XZ 1001e030 f i KNpc.obj
 0001:0001d050       ??1tagS2C_PLAYER_SYNC@@QAE@XZ 1001e050 f i KNpc.obj
 0001:0001d070       ?Release@tagS2C_PLAYER_SYNC@@QAEXXZ 1001e070 f i KNpc.obj
 0001:0001d0b0       ?GetDetailType@KItem@@QBEHXZ 1001e0b0 f i KNpc.obj
 0001:0001d0d0       ?GetParticular@KItem@@QAEHXZ 1001e0d0 f i KNpc.obj
 0001:0001d0f0       ?GetRow@KItem@@QBEHXZ      1001e0f0 f i KNpc.obj
 0001:0001d110       ?GetStateSpecailId@KSkill@@QBEHXZ 1001e110 f i KNpc.obj
 0001:0001d130       ??0STATE_EFFECT_SYNC@@QAE@XZ 1001e130 f i KNpc.obj
 0001:0001d160       ??0KStateNode@@QAE@XZ      1001e160 f i KNpc.obj
 0001:0001d1d0       ??_GKStateNode@@UAEPAXI@Z  1001e1d0 f i KNpc.obj
 0001:0001d1d0       ??_EKStateNode@@UAEPAXI@Z  1001e1d0 f i KNpc.obj
 0001:0001d200       ??1KStateNode@@UAE@XZ      1001e200 f i KNpc.obj
 0001:0001d220       ?GetChildSkillNum@KSkill@@QBEHXZ 1001e220 f i KNpc.obj
 0001:0001d240       ?GetSkill@KSkillManager@@QAEPAVISkill@@HHW4eSKillStyle@@@Z 1001e240 f i KNpc.obj
 0001:0001d280       ??0KNpcTemplate@@QAE@XZ    1001e280 f i KNpc.obj
 0001:0001d2c0       ?IsEnmityPKLauncher@KPlayerPK@@QAEHXZ 1001e2c0 f i KNpc.obj
 0001:0001d2e0       ?IsEnmitySpar@KPlayerPK@@QAEHXZ 1001e2e0 f i KNpc.obj
 0001:0001d300       ?GetPrev@KNode@@QAEPAV1@XZ 1001e300 f i KNpc.obj
 0001:0001d330       ?GetTail@KList@@QAEPAVKNode@@XZ 1001e330 f i KNpc.obj
 0001:0001d369       ??0KNpcAI@@QAE@XZ          1001e369 f   KNpcAI.obj
 0001:0001d38a       ?Activate@KNpcAI@@QAEXH@Z  1001e38a f   KNpcAI.obj
 0001:0001d4fa       ?FindPathNpc@KNpcAI@@AAEXXZ 1001e4fa f   KNpcAI.obj
 0001:0001d901       ?ProcessPlayer@KNpcAI@@AAEXXZ 1001e901 f   KNpcAI.obj
 0001:0001d90c       ?CheckNpc@KNpcAI@@AAEHH@Z  1001e90c f   KNpcAI.obj
 0001:0001d97b       ?GetNearestNpc@KNpcAI@@AAEHH@Z 1001e97b f   KNpcAI.obj
 0001:0001e0d2       ?GetNpcNumber@KNpcAI@@AAEHH@Z 1001f0d2 f   KNpcAI.obj
 0001:0001e362       ?KeepAttackRange@KNpcAI@@AAEXHH@Z 1001f362 f   KNpcAI.obj
 0001:0001e426       ?FollowAttack@KNpcAI@@AAEXH@Z 1001f426 f   KNpcAI.obj
 0001:0001e5ec       ?InEyeshot@KNpcAI@@AAEHH@Z 1001f5ec f   KNpcAI.obj
 0001:0001e629       ?CommonAction@KNpcAI@@AAEXXZ 1001f629 f   KNpcAI.obj
 0001:0001e74d       ?KeepActiveRange@KNpcAI@@AAEHXZ 1001f74d f   KNpcAI.obj
 0001:0001e86b       ?Flee@KNpcAI@@AAEXH@Z      1001f86b f   KNpcAI.obj
 0001:0001e8ec       ?ProcessAIType01@KNpcAI@@AAEXXZ 1001f8ec f   KNpcAI.obj
 0001:0001eb27       ?ProcessAIType02@KNpcAI@@AAEXXZ 1001fb27 f   KNpcAI.obj
 0001:0001ee12       ?ProcessAIType03@KNpcAI@@AAEXXZ 1001fe12 f   KNpcAI.obj
 0001:0001f08d       ?ProcessAIType04@KNpcAI@@AAEXXZ 1002008d f   KNpcAI.obj
 0001:0001f27f       ?ProcessAIType05@KNpcAI@@AAEXXZ 1002027f f   KNpcAI.obj
 0001:0001f521       ?ProcessAIType06@KNpcAI@@AAEXXZ 10020521 f   KNpcAI.obj
 0001:0001f760       ?IsAlive@KNpc@@QBE_NXZ     10020760 f i KNpcAI.obj
 0001:0001f7df       ??0KNpcAttribModify@@QAE@XZ 100207df f   KNpcAttribModify.obj
 0001:0001fe63       ??1KNpcAttribModify@@QAE@XZ 10020e63 f   KNpcAttribModify.obj
 0001:0001fe6e       ?ModifyAttrib@KNpcAttribModify@@QAEXPAVKNpc@@PAX@Z 10020e6e f   KNpcAttribModify.obj
 0001:0001feca       ?AddColdDamageV@KNpcAttribModify@@AAEXPAVKNpc@@PAX@Z 10020eca f   KNpcAttribModify.obj
 0001:0001ff5d       ?AddColdMagicV@KNpcAttribModify@@AAEXPAVKNpc@@PAX@Z 10020f5d f   KNpcAttribModify.obj
 0001:0001fff0       ?AddFireDamageV@KNpcAttribModify@@AAEXPAVKNpc@@PAX@Z 10020ff0 f   KNpcAttribModify.obj
 0001:00020035       ?AddFireMagicV@KNpcAttribModify@@AAEXPAVKNpc@@PAX@Z 10021035 f   KNpcAttribModify.obj
 0001:0002007a       ?AddLightingDamageV@KNpcAttribModify@@AAEXPAVKNpc@@PAX@Z 1002107a f   KNpcAttribModify.obj
 0001:000200bf       ?AddLightingMagicV@KNpcAttribModify@@AAEXPAVKNpc@@PAX@Z 100210bf f   KNpcAttribModify.obj
 0001:00020104       ?AddPhysicsDamageP@KNpcAttribModify@@AAEXPAVKNpc@@PAX@Z 10021104 f   KNpcAttribModify.obj
 0001:00020251       ?AddPoisonDamageV@KNpcAttribModify@@AAEXPAVKNpc@@PAX@Z 10021251 f   KNpcAttribModify.obj
 0001:000202cd       ?AddPoisonMagicV@KNpcAttribModify@@AAEXPAVKNpc@@PAX@Z 100212cd f   KNpcAttribModify.obj
 0001:00020349       ?AddPhysicsDamageV@KNpcAttribModify@@AAEXPAVKNpc@@PAX@Z 10021349 f   KNpcAttribModify.obj
 0001:00020376       ?AddPhysicsMagicV@KNpcAttribModify@@AAEXPAVKNpc@@PAX@Z 10021376 f   KNpcAttribModify.obj
 0001:000203a3       ?AllresP@KNpcAttribModify@@AAEXPAVKNpc@@PAX@Z 100213a3 f   KNpcAttribModify.obj
 0001:00020430       ?AllSkillV@KNpcAttribModify@@AAEXPAVKNpc@@PAX@Z 10021430 f   KNpcAttribModify.obj
 0001:0002047d       ?AttackRatingP@KNpcAttribModify@@AAEXPAVKNpc@@PAX@Z 1002147d f   KNpcAttribModify.obj
 0001:000204be       ?AttackRatingV@KNpcAttribModify@@AAEXPAVKNpc@@PAX@Z 100214be f   KNpcAttribModify.obj
 0001:000204eb       ?AttackSpeedV@KNpcAttribModify@@AAEXPAVKNpc@@PAX@Z 100214eb f   KNpcAttribModify.obj
 0001:00020518       ?BadStatusTimeReduceV@KNpcAttribModify@@AAEXPAVKNpc@@PAX@Z 10021518 f   KNpcAttribModify.obj
 0001:0002052d       ?BurnTimeReduceP@KNpcAttribModify@@AAEXPAVKNpc@@PAX@Z 1002152d f   KNpcAttribModify.obj
 0001:0002053a       ?CastSpeedV@KNpcAttribModify@@AAEXPAVKNpc@@PAX@Z 1002153a f   KNpcAttribModify.obj
 0001:00020567       ?ChangeCampV@KNpcAttribModify@@AAEXPAVKNpc@@PAX@Z 10021567 f   KNpcAttribModify.obj
 0001:000205ba       ?ColdArmorV@KNpcAttribModify@@AAEXPAVKNpc@@PAX@Z 100215ba f   KNpcAttribModify.obj
 0001:000205e7       ?ColdresP@KNpcAttribModify@@AAEXPAVKNpc@@PAX@Z 100215e7 f   KNpcAttribModify.obj
 0001:00020614       ?DeadlyStrikeEnhanceP@KNpcAttribModify@@AAEXPAVKNpc@@PAX@Z 10021614 f   KNpcAttribModify.obj
 0001:00020641       ?DexterityV@KNpcAttribModify@@AAEXPAVKNpc@@PAX@Z 10021641 f   KNpcAttribModify.obj
 0001:00020690       ?EarthSkillV@KNpcAttribModify@@AAEXPAVKNpc@@PAX@Z 10021690 f   KNpcAttribModify.obj
 0001:000206bc       ?FatallyStrikeResP@KNpcAttribModify@@AAEXPAVKNpc@@PAX@Z 100216bc f   KNpcAttribModify.obj
 0001:000206e9       ?EnergyV@KNpcAttribModify@@AAEXPAVKNpc@@PAX@Z 100216e9 f   KNpcAttribModify.obj
 0001:00020738       ?FastHitRecoverV@KNpcAttribModify@@AAEXPAVKNpc@@PAX@Z 10021738 f   KNpcAttribModify.obj
 0001:00020765       ?FastWalkRunP@KNpcAttribModify@@AAEXPAVKNpc@@PAX@Z 10021765 f   KNpcAttribModify.obj
 0001:000207d6       ?FireArmorV@KNpcAttribModify@@AAEXPAVKNpc@@PAX@Z 100217d6 f   KNpcAttribModify.obj
 0001:00020803       ?FireSkillV@KNpcAttribModify@@AAEXPAVKNpc@@PAX@Z 10021803 f   KNpcAttribModify.obj
 0001:0002082f       ?FreezeTimeReduceP@KNpcAttribModify@@AAEXPAVKNpc@@PAX@Z 1002182f f   KNpcAttribModify.obj
 0001:0002085c       ?LifeMaxP@KNpcAttribModify@@AAEXPAVKNpc@@PAX@Z 1002185c f   KNpcAttribModify.obj
 0001:0002089d       ?LifeMaxV@KNpcAttribModify@@AAEXPAVKNpc@@PAX@Z 1002189d f   KNpcAttribModify.obj
 0001:000208ca       ?LifeReplenishV@KNpcAttribModify@@AAEXPAVKNpc@@PAX@Z 100218ca f   KNpcAttribModify.obj
 0001:000208f7       ?LifeV@KNpcAttribModify@@AAEXPAVKNpc@@PAX@Z 100218f7 f   KNpcAttribModify.obj
 0001:00020924       ?LightingArmorV@KNpcAttribModify@@AAEXPAVKNpc@@PAX@Z 10021924 f   KNpcAttribModify.obj
 0001:00020951       ?LightingresP@KNpcAttribModify@@AAEXPAVKNpc@@PAX@Z 10021951 f   KNpcAttribModify.obj
 0001:0002097e       ?LuckyV@KNpcAttribModify@@AAEXPAVKNpc@@PAX@Z 1002197e f   KNpcAttribModify.obj
 0001:000209b7       ?ManaMaxP@KNpcAttribModify@@AAEXPAVKNpc@@PAX@Z 100219b7 f   KNpcAttribModify.obj
 0001:000209f8       ?ManaMaxV@KNpcAttribModify@@AAEXPAVKNpc@@PAX@Z 100219f8 f   KNpcAttribModify.obj
 0001:00020a25       ?ManaReplenishV@KNpcAttribModify@@AAEXPAVKNpc@@PAX@Z 10021a25 f   KNpcAttribModify.obj
 0001:00020a52       ?ManaV@KNpcAttribModify@@AAEXPAVKNpc@@PAX@Z 10021a52 f   KNpcAttribModify.obj
 0001:00020a7f       ?ManaShieldP@KNpcAttribModify@@AAEXPAVKNpc@@PAX@Z 10021a7f f   KNpcAttribModify.obj
 0001:00020aac       ?MeleeDamageReturnP@KNpcAttribModify@@AAEXPAVKNpc@@PAX@Z 10021aac f   KNpcAttribModify.obj
 0001:00020ad9       ?MeleeDamageReturnV@KNpcAttribModify@@AAEXPAVKNpc@@PAX@Z 10021ad9 f   KNpcAttribModify.obj
 0001:00020b06       ?MetalSkillV@KNpcAttribModify@@AAEXPAVKNpc@@PAX@Z 10021b06 f   KNpcAttribModify.obj
 0001:00020b32       ?PhysicsArmorV@KNpcAttribModify@@AAEXPAVKNpc@@PAX@Z 10021b32 f   KNpcAttribModify.obj
 0001:00020b5f       ?PhysicsresP@KNpcAttribModify@@AAEXPAVKNpc@@PAX@Z 10021b5f f   KNpcAttribModify.obj
 0001:00020b8c       ?Damage2AddManaP@KNpcAttribModify@@AAEXPAVKNpc@@PAX@Z 10021b8c f   KNpcAttribModify.obj
 0001:00020bb9       ?PoisonArmorV@KNpcAttribModify@@AAEXPAVKNpc@@PAX@Z 10021bb9 f   KNpcAttribModify.obj
 0001:00020be6       ?PoisonDamageReduceV@KNpcAttribModify@@AAEXPAVKNpc@@PAX@Z 10021be6 f   KNpcAttribModify.obj
 0001:00020c2c       ?PoisonresP@KNpcAttribModify@@AAEXPAVKNpc@@PAX@Z 10021c2c f   KNpcAttribModify.obj
 0001:00020c59       ?PoisonTimeReduceP@KNpcAttribModify@@AAEXPAVKNpc@@PAX@Z 10021c59 f   KNpcAttribModify.obj
 0001:00020c86       ?RangeDamageReturnV@KNpcAttribModify@@AAEXPAVKNpc@@PAX@Z 10021c86 f   KNpcAttribModify.obj
 0001:00020cb3       ?RangeDamageReturnP@KNpcAttribModify@@AAEXPAVKNpc@@PAX@Z 10021cb3 f   KNpcAttribModify.obj
 0001:00020ce0       ?SlowMissleB@KNpcAttribModify@@AAEXPAVKNpc@@PAX@Z 10021ce0 f   KNpcAttribModify.obj
 0001:00020d35       ?StaminaMaxP@KNpcAttribModify@@AAEXPAVKNpc@@PAX@Z 10021d35 f   KNpcAttribModify.obj
 0001:00020d76       ?StaminaMaxV@KNpcAttribModify@@AAEXPAVKNpc@@PAX@Z 10021d76 f   KNpcAttribModify.obj
 0001:00020da3       ?StaminaReplenishV@KNpcAttribModify@@AAEXPAVKNpc@@PAX@Z 10021da3 f   KNpcAttribModify.obj
 0001:00020dd0       ?StaminaV@KNpcAttribModify@@AAEXPAVKNpc@@PAX@Z 10021dd0 f   KNpcAttribModify.obj
 0001:00020dfd       ?StealLifeP@KNpcAttribModify@@AAEXPAVKNpc@@PAX@Z 10021dfd f   KNpcAttribModify.obj
 0001:00020e2a       ?StealManaP@KNpcAttribModify@@AAEXPAVKNpc@@PAX@Z 10021e2a f   KNpcAttribModify.obj
 0001:00020e57       ?StealStaminaP@KNpcAttribModify@@AAEXPAVKNpc@@PAX@Z 10021e57 f   KNpcAttribModify.obj
 0001:00020e84       ?StrengthV@KNpcAttribModify@@AAEXPAVKNpc@@PAX@Z 10021e84 f   KNpcAttribModify.obj
 0001:00020ed3       ?StunTimeReduceP@KNpcAttribModify@@AAEXPAVKNpc@@PAX@Z 10021ed3 f   KNpcAttribModify.obj
 0001:00020f00       ?VisionRadiusP@KNpcAttribModify@@AAEXPAVKNpc@@PAX@Z 10021f00 f   KNpcAttribModify.obj
 0001:00020f2d       ?VitalityV@KNpcAttribModify@@AAEXPAVKNpc@@PAX@Z 10021f2d f   KNpcAttribModify.obj
 0001:00020f7c       ?WaterSkillV@KNpcAttribModify@@AAEXPAVKNpc@@PAX@Z 10021f7c f   KNpcAttribModify.obj
 0001:00020fa8       ?WoodSkillV@KNpcAttribModify@@AAEXPAVKNpc@@PAX@Z 10021fa8 f   KNpcAttribModify.obj
 0001:00020fd4       ?FireresP@KNpcAttribModify@@AAEXPAVKNpc@@PAX@Z 10021fd4 f   KNpcAttribModify.obj
 0001:00021001       ?ArmorDefenseV@KNpcAttribModify@@AAEXPAVKNpc@@PAX@Z 10022001 f   KNpcAttribModify.obj
 0001:0002102e       ?ColdEnhanceP@KNpcAttribModify@@AAEXPAVKNpc@@PAX@Z 1002202e f   KNpcAttribModify.obj
 0001:0002105b       ?FireEnhanceP@KNpcAttribModify@@AAEXPAVKNpc@@PAX@Z 1002205b f   KNpcAttribModify.obj
 0001:00021088       ?LightingEnhanceP@KNpcAttribModify@@AAEXPAVKNpc@@PAX@Z 10022088 f   KNpcAttribModify.obj
 0001:000210b5       ?PoisonEnhanceP@KNpcAttribModify@@AAEXPAVKNpc@@PAX@Z 100220b5 f   KNpcAttribModify.obj
 0001:000210e2       ?LifePotionV@KNpcAttribModify@@AAEXPAVKNpc@@PAX@Z 100220e2 f   KNpcAttribModify.obj
 0001:00021171       ?ManaPotionV@KNpcAttribModify@@AAEXPAVKNpc@@PAX@Z 10022171 f   KNpcAttribModify.obj
 0001:00021200       ?PhysicsResMaxP@KNpcAttribModify@@AAEXPAVKNpc@@PAX@Z 10022200 f   KNpcAttribModify.obj
 0001:0002122d       ?ColdResMaxP@KNpcAttribModify@@AAEXPAVKNpc@@PAX@Z 1002222d f   KNpcAttribModify.obj
 0001:0002125a       ?FireResMaxP@KNpcAttribModify@@AAEXPAVKNpc@@PAX@Z 1002225a f   KNpcAttribModify.obj
 0001:00021287       ?LightingResMaxP@KNpcAttribModify@@AAEXPAVKNpc@@PAX@Z 10022287 f   KNpcAttribModify.obj
 0001:000212b4       ?PoisonResMaxP@KNpcAttribModify@@AAEXPAVKNpc@@PAX@Z 100222b4 f   KNpcAttribModify.obj
 0001:000212e1       ?AllResMaxP@KNpcAttribModify@@AAEXPAVKNpc@@PAX@Z 100222e1 f   KNpcAttribModify.obj
 0001:0002136e       ?FatallyStrikeEnhanceP@KNpcAttribModify@@AAEXPAVKNpc@@PAX@Z 1002236e f   KNpcAttribModify.obj
 0001:0002139b       ?MixPoisonDamage@KNpcAttribModify@@QAEXPAUKMagicAttrib@@0@Z 1002239b f   KNpcAttribModify.obj
 0001:0002147b       ?DynamicMagicShieldV@KNpcAttribModify@@AAEXPAVKNpc@@PAX@Z 1002247b f   KNpcAttribModify.obj
 0001:000214a8       ?StaticMagicShieldP@KNpcAttribModify@@AAEXPAVKNpc@@PAX@Z 100224a8 f   KNpcAttribModify.obj
 0001:000214d5       ?ExpEnhanceP@KNpcAttribModify@@AAEXPAVKNpc@@PAX@Z 100224d5 f   KNpcAttribModify.obj
 0001:0002150e       ?LifeReplenishP@KNpcAttribModify@@AAEXPAVKNpc@@PAX@Z 1002250e f   KNpcAttribModify.obj
 0001:0002153b       ?IgnoreSkillP@KNpcAttribModify@@AAEXPAVKNpc@@PAX@Z 1002253b f   KNpcAttribModify.obj
 0001:00021568       ?PoisonDamageReturnP@KNpcAttribModify@@AAEXPAVKNpc@@PAX@Z 10022568 f   KNpcAttribModify.obj
 0001:00021595       ?ReturnSkillP@KNpcAttribModify@@AAEXPAVKNpc@@PAX@Z 10022595 f   KNpcAttribModify.obj
 0001:000215c2       ?Poison2DecManaP@KNpcAttribModify@@AAEXPAVKNpc@@PAX@Z 100225c2 f   KNpcAttribModify.obj
 0001:00021630       ?AutoDeathSkill@KNpcAttribModify@@AAEXPAVKNpc@@PAX@Z 10022630 f   KNpcAttribModify.obj
 0001:00021741       ?AutoAttackSkill@KNpcAttribModify@@AAEXPAVKNpc@@PAX@Z 10022741 f   KNpcAttribModify.obj
 0001:00021852       ?Hide@KNpcAttribModify@@AAEXPAVKNpc@@PAX@Z 10022852 f   KNpcAttribModify.obj
 0001:0002187f       ?IgnoreNegativeStateP@KNpcAttribModify@@AAEXPAVKNpc@@PAX@Z 1002287f f   KNpcAttribModify.obj
 0001:000218ac       ?AutoReplySkill@KNpcAttribModify@@AAEXPAVKNpc@@PAX@Z 100228ac f   KNpcAttribModify.obj
 0001:000219bd       ?AutoRescueSkill@KNpcAttribModify@@AAEXPAVKNpc@@PAX@Z 100229bd f   KNpcAttribModify.obj
 0001:00021ace       ?ReturnResP@KNpcAttribModify@@AAEXPAVKNpc@@PAX@Z 10022ace f   KNpcAttribModify.obj
 0001:00021afb       ?SkillEnhanceP@KNpcAttribModify@@AAEXPAVKNpc@@PAX@Z 10022afb f   KNpcAttribModify.obj
 0001:00021b28       ?FiveElementsEnhanceV@KNpcAttribModify@@AAEXPAVKNpc@@PAX@Z 10022b28 f   KNpcAttribModify.obj
 0001:00021b55       ?FiveElementsResistV@KNpcAttribModify@@AAEXPAVKNpc@@PAX@Z 10022b55 f   KNpcAttribModify.obj
 0001:00021b82       ?FrozenAction@KNpcAttribModify@@AAEXPAVKNpc@@PAX@Z 10022b82 f   KNpcAttribModify.obj
 0001:00021bbe       ?WalkRunShadow@KNpcAttribModify@@AAEXPAVKNpc@@PAX@Z 10022bbe f   KNpcAttribModify.obj
 0001:00021c03       ?RandMove@KNpcAttribModify@@AAEXPAVKNpc@@PAX@Z 10022c03 f   KNpcAttribModify.obj
 0001:00021c48       ?ManaToSkillEnhanceP@KNpcAttribModify@@AAEXPAVKNpc@@PAX@Z 10022c48 f   KNpcAttribModify.obj
 0001:00021c80       ?Init@KNpcDeathCalcExp@@QAEXH@Z 10022c80 f   KNpcDeathCalcExp.obj
 0001:00021cb2       ?Active@KNpcDeathCalcExp@@QAEXXZ 10022cb2 f   KNpcDeathCalcExp.obj
 0001:00021d67       ?AddDamage@KNpcDeathCalcExp@@QAEXHH@Z 10022d67 f   KNpcDeathCalcExp.obj
 0001:00021efe       ?CalcExp@KNpcDeathCalcExp@@QAEHXZ 10022efe f   KNpcDeathCalcExp.obj
 0001:00022209       ?Clear@KNpcDeathCalcExp@@QAEXXZ 10023209 f   KNpcDeathCalcExp.obj
 0001:00022230       ??0KNpcFindPath@@QAE@XZ    10023230 f   KNpcFindPath.obj
 0001:0002228d       ?Init@KNpcFindPath@@QAEXH@Z 1002328d f   KNpcFindPath.obj
 0001:000222e8       ?GetDir@KNpcFindPath@@QAEHHHHHHHPAH@Z 100232e8 f   KNpcFindPath.obj
 0001:000228a9       ?Dir64To8@KNpcFindPath@@QAEHH@Z 100238a9 f   KNpcFindPath.obj
 0001:000228c2       ?Dir8To64@KNpcFindPath@@QAEHH@Z 100238c2 f   KNpcFindPath.obj
 0001:000228d5       ?CheckDistance@KNpcFindPath@@QAEHHHHHH@Z 100238d5 f   KNpcFindPath.obj
 0001:00022912       ?CheckBarrier@KNpcFindPath@@QAEHHH@Z 10023912 f   KNpcFindPath.obj
 0001:000229ef       ??0KNpcSet@@QAE@XZ         100239ef f   KNpcSet.obj
 0001:00022a4c       ?Init@KNpcSet@@QAEXXZ      10023a4c f   KNpcSet.obj
 0001:00022ea7       ?LoadPlayerBaseValue@KNpcSet@@QAEXPAD@Z 10023ea7 f   KNpcSet.obj
 0001:00022f78       ?IsNpcExist@KNpcSet@@QAEHHK@Z 10023f78 f   KNpcSet.obj
 0001:00022fa2       ?GenOneRelation@KNpcSet@@AAE?AW4NPC_RELATION@@W4NPCKIND@@0W4NPCCAMP@@1@Z 10023fa2 f   KNpcSet.obj
 0001:00023050       ?GenRelationTable@KNpcSet@@AAEHXZ 10024050 f   KNpcSet.obj
 0001:00023131       ?SearchID@KNpcSet@@QAEHK@Z 10024131 f   KNpcSet.obj
 0001:00023188       ?SearchName@KNpcSet@@QAEHPAD@Z 10024188 f   KNpcSet.obj
 0001:000231eb       ?SearchUUID@KNpcSet@@QAEHK@Z 100241eb f   KNpcSet.obj
 0001:0002327b       ?FindFree@KNpcSet@@AAEHXZ  1002427b f   KNpcSet.obj
 0001:00023294       ?Add@KNpcSet@@QAEHHPAX@Z   10024294 f   KNpcSet.obj
 0001:00023464       ?Add@KNpcSet@@QAEHHHHHH@Z  10024464 f   KNpcSet.obj
 0001:00023547       ?Add@KNpcSet@@QAEHHHHHHHH@Z 10024547 f   KNpcSet.obj
 0001:00023796       ?Remove@KNpcSet@@QAEXH@Z   10024796 f   KNpcSet.obj
 0001:000239f0       ?RemoveAll@KNpcSet@@QAEXXZ 100249f0 f   KNpcSet.obj
 0001:00023a92       ?SetID@KNpcSet@@AAEXH@Z    10024a92 f   KNpcSet.obj
 0001:00023ad4       ?GetDistance@KNpcSet@@SAHHH@Z 10024ad4 f   KNpcSet.obj
 0001:00023d5d       ?GetDistanceSquare@KNpcSet@@SAHHH@Z 10024d5d f   KNpcSet.obj
 0001:00023fb4       ?GetNextIdx@KNpcSet@@QAEHH@Z 10024fb4 f   KNpcSet.obj
 0001:00023fe4       ?SyncNpc@KNpcSet@@QAEHKH@Z 10024fe4 f   KNpcSet.obj
 0001:00024068       ?ExecuteScript@KNpcSet@@QAEHHPAD0H@Z 10025068 f   KNpcSet.obj
 0001:0002409f       ?ExecuteScript@KNpcSet@@QAEHHKPADH@Z 1002509f f   KNpcSet.obj
 0001:000241b2       ?ClearActivateFlagOfAllNpc@KNpcSet@@QAEXXZ 100251b2 f   KNpcSet.obj
 0001:000241ff       ?GetRelation@KNpcSet@@QAE?AW4NPC_RELATION@@HH@Z 100251ff f   KNpcSet.obj
 0001:00024730       ??1KNpcSet@@QAE@XZ         10025730 f i KNpcSet.obj
 0001:00024780       ?Clear@KSkillList@@QAEXXZ  10025780 f i KNpcSet.obj
 0001:000247a0       ?Init@KNpcTemplate@@QAEXH@Z 100257a0 f   KNpcTemplate.obj
 0001:000250e2       ??0KPlayer@@QAE@XZ         100260e2 f   KPlayer.obj
 0001:000251eb       ??1KPlayer@@QAE@XZ         100261eb f   KPlayer.obj
 0001:00025281       ?Release@KPlayer@@QAEXXZ   10026281 f   KPlayer.obj
 0001:00025636       ?SetPlayerIndex@KPlayer@@QAEXH@Z 10026636 f   KPlayer.obj
 0001:0002565e       ?GetPlayerIndex@KPlayer@@QAEHXZ 1002665e f   KPlayer.obj
 0001:0002566f       ?Active@KPlayer@@QAEXXZ    1002666f f   KPlayer.obj
 0001:000257ab       ?ProcessMsg@KPlayer@@QAEXPAVKWorldMsgNode@@@Z 100267ab f   KPlayer.obj
 0001:000257c3       ?IsWaitingRemove@KPlayer@@QAEHXZ 100267c3 f   KPlayer.obj
 0001:000257e7       ?WaitForRemove@KPlayer@@QAEXXZ 100267e7 f   KPlayer.obj
 0001:000257ff       ?IsLoginTimeOut@KPlayer@@QAEHXZ 100267ff f   KPlayer.obj
 0001:00025859       ?LoginTimeOut@KPlayer@@QAEXXZ 10026859 f   KPlayer.obj
 0001:00025879       ?Save@KPlayer@@QAEHXZ      10026879 f   KPlayer.obj
 0001:000258eb       ?CanSave@KPlayer@@QAEHXZ   100268eb f   KPlayer.obj
 0001:0002598d       ?SendSyncData@KPlayer@@QAEHAAHAAI@Z 1002698d f   KPlayer.obj
 0001:00025d41       ?SendSyncData_Skill@KPlayer@@QAEHXZ 10026d41 f   KPlayer.obj
 0001:00025eec       ?SendCurNormalSyncData@KPlayer@@QAEXXZ 10026eec f   KPlayer.obj
 0001:00025fa3       ?QuitGame@KPlayer@@QAEXH@Z 10026fa3 f   KPlayer.obj
 0001:00025fb8       ?BuyItem@KPlayer@@QAEXPAE@Z 10026fb8 f   KPlayer.obj
 0001:000260eb       ?SellItem@KPlayer@@QAEXPAE@Z 100270eb f   KPlayer.obj
 0001:00026230       ?GetLoginRevivalPos@KPlayer@@QAEXPAH00@Z 10027230 f   KPlayer.obj
 0001:0002625d       ?GetDeathRevivalPos@KPlayer@@QAEXPAH00@Z 1002725d f   KPlayer.obj
 0001:0002628b       ?SetTimer@KPlayer@@QAEXKH@Z 1002728b f   KPlayer.obj
 0001:000262bd       ?CloseTimer@KPlayer@@QAEXXZ 100272bd f   KPlayer.obj
 0001:000262d6       ?SetRevivalPos@KPlayer@@QAEXHH@Z 100272d6 f   KPlayer.obj
 0001:0002636d       ?S2CSendTeamInfo@KPlayer@@QAEXPAE@Z 1002736d f   KPlayer.obj
 0001:0002660d       ?SendSelfTeamInfo@KPlayer@@QAEXXZ 1002760d f   KPlayer.obj
 0001:00026880       ?CreateTeam@KPlayer@@QAEHPAE@Z 10027880 f   KPlayer.obj
 0001:000268a6       ?SetTeamState@KPlayer@@QAEHPAE@Z 100278a6 f   KPlayer.obj
 0001:00026a3e       ?S2CSendAddTeamInfo@KPlayer@@QAEHPAE@Z 10027a3e f   KPlayer.obj
 0001:00026d76       ?AddTeamMember@KPlayer@@QAEHPAE@Z 10027d76 f   KPlayer.obj
 0001:00027441       ?LeaveTeam@KPlayer@@QAEXPAE@Z 10028441 f   KPlayer.obj
 0001:00027878       ?SendSystemMessage@KPlayer@@QAEXPBD0@Z 10028878 f   KPlayer.obj
 0001:000278bb       ?SendTeamMessage@KPlayer@@QAEXHPBD@Z 100288bb f   KPlayer.obj
 0001:000279b0       ?TeamKickOne@KPlayer@@QAEXPAE@Z 100289b0 f   KPlayer.obj
 0001:00027ca4       ?TeamChangeCaptain@KPlayer@@QAEHPAE@Z 10028ca4 f   KPlayer.obj
 0001:0002824c       ?TeamDismiss@KPlayer@@QAEXPAE@Z 1002924c f   KPlayer.obj
 0001:00028542       ?SetPK@KPlayer@@QAEXPAE@Z  10029542 f   KPlayer.obj
 0001:0002859b       ?SendFactionData@KPlayer@@AAEXXZ 1002959b f   KPlayer.obj
 0001:00028619       ?GetAboutPos@KPlayer@@QAEXPAUKMapPos@@@Z 10029619 f   KPlayer.obj
 0001:00028719       ?FindAroundPlayer@KPlayer@@QAEHK@Z 10029719 f   KPlayer.obj
 0001:00028845       ?FindAroundNpc@KPlayer@@QAEHK@Z 10029845 f   KPlayer.obj
 0001:0002896f       ?FindNearNpc@KPlayer@@QAEHHH@Z 1002996f f   KPlayer.obj
 0001:00028adb       ?FindNearNpc@KPlayer@@QAEHPBDH@Z 10029adb f   KPlayer.obj
 0001:00028c51       ?NewPlayerGetBaseAttribute@KPlayer@@QAEHH@Z 10029c51 f   KPlayer.obj
 0001:00028d4d       ?SyncCurrentBaseAttriibute@KPlayer@@AAEXHHH@Z 10029d4d f   KPlayer.obj
 0001:00028dae       ?AddBaseStrength@KPlayer@@AAEXH@Z 10029dae f   KPlayer.obj
 0001:00028e84       ?ResetBaseStrength@KPlayer@@AAEXH@Z 10029e84 f   KPlayer.obj
 0001:00028ed7       ?AddBaseDexterity@KPlayer@@AAEXH@Z 10029ed7 f   KPlayer.obj
 0001:00028fbd       ?ResetBaseDexterity@KPlayer@@AAEXH@Z 10029fbd f   KPlayer.obj
 0001:00029020       ?AddBaseVitality@KPlayer@@AAEXH@Z 1002a020 f   KPlayer.obj
 0001:0002916c       ?ResetBaseVitality@KPlayer@@AAEXH@Z 1002a16c f   KPlayer.obj
 0001:00029235       ?AddBaseEngergy@KPlayer@@AAEXH@Z 1002a235 f   KPlayer.obj
 0001:00029343       ?ResetBaseEngergy@KPlayer@@AAEXH@Z 1002a343 f   KPlayer.obj
 0001:000293cd       ?SetBaseStrength@KPlayer@@QAEXH@Z 1002a3cd f   KPlayer.obj
 0001:00029473       ?SetBaseDexterity@KPlayer@@QAEXH@Z 1002a473 f   KPlayer.obj
 0001:00029529       ?SetBaseVitality@KPlayer@@QAEXH@Z 1002a529 f   KPlayer.obj
 0001:00029644       ?SetBaseEngergy@KPlayer@@QAEXH@Z 1002a644 f   KPlayer.obj
 0001:00029720       ?ChangeCurStrength@KPlayer@@QAEXH@Z 1002a720 f   KPlayer.obj
 0001:0002974a       ?ChangeCurDexterity@KPlayer@@QAEXH@Z 1002a74a f   KPlayer.obj
 0001:000297e8       ?ChangeCurVitality@KPlayer@@QAEXH@Z 1002a7e8 f   KPlayer.obj
 0001:00029888       ?ChangeCurEngergy@KPlayer@@QAEXH@Z 1002a888 f   KPlayer.obj
 0001:000298e9       ?AddBaseLucky@KPlayer@@QAEXH@Z 1002a8e9 f   KPlayer.obj
 0001:00029925       ?SetNpcPhysicsDamage@KPlayer@@AAEXXZ 1002a925 f   KPlayer.obj
 0001:00029a3e       ?SetNpcAttackRating@KPlayer@@AAEXXZ 1002aa3e f   KPlayer.obj
 0001:00029a7c       ?SetNpcDefence@KPlayer@@AAEXXZ 1002aa7c f   KPlayer.obj
 0001:00029abc       ?AddExp@KPlayer@@QAEXHH@Z  1002aabc f   KPlayer.obj
 0001:0002a022       ?AddSelfExp@KPlayer@@QAEXHH@Z 1002b022 f   KPlayer.obj
 0001:0002a237       ?AddSkillExp@KPlayer@@QAEXH@Z 1002b237 f   KPlayer.obj
 0001:0002a4b6       ?DirectAddExp@KPlayer@@QAEXH@Z 1002b4b6 f   KPlayer.obj
 0001:0002a5a7       ?LevelUp@KPlayer@@QAEXXZ   1002b5a7 f   KPlayer.obj
 0001:0002acfc       ?UpdataCurData@KPlayer@@QAEXXZ 1002bcfc f   KPlayer.obj
 0001:0002b96c       ?ReCalcEquip@KPlayer@@QAEXXZ 1002c96c f   KPlayer.obj
 0001:0002ba2e       ?ReCalcState@KPlayer@@QAEXXZ 1002ca2e f   KPlayer.obj
 0001:0002ba53       ?AddLeadExp@KPlayer@@QAEXH@Z 1002ca53 f   KPlayer.obj
 0001:0002bb4a       ?SetLeadLevel@KPlayer@@QAEXH@Z 1002cb4a f   KPlayer.obj
 0001:0002bc14       ?LevelAddBaseLifeMax@KPlayer@@AAEXXZ 1002cc14 f   KPlayer.obj
 0001:0002bc97       ?LevelAddBaseStaminaMax@KPlayer@@AAEXXZ 1002cc97 f   KPlayer.obj
 0001:0002bd30       ?LevelAddBaseManaMax@KPlayer@@AAEXXZ 1002cd30 f   KPlayer.obj
 0001:0002bdb3       ?ChangePlayerCamp@KPlayer@@QAEXH@Z 1002cdb3 f   KPlayer.obj
 0001:0002bdec       ?AddFaction@KPlayer@@QAEHPAD@Z 1002cdec f   KPlayer.obj
 0001:0002be5f       ?AddFaction@KPlayer@@QAEHH@Z 1002ce5f f   KPlayer.obj
 0001:0002bed2       ?LeaveCurFaction@KPlayer@@QAEHXZ 1002ced2 f   KPlayer.obj
 0001:0002bf42       ?AddBaseAttribute@KPlayer@@QAEXPAE@Z 1002cf42 f   KPlayer.obj
 0001:0002bfe0       ?ResetProp@KPlayer@@QAEHXZ 1002cfe0 f   KPlayer.obj
 0001:0002c3ae       ?SetLevel@KPlayer@@QAEXH@Z 1002d3ae f   KPlayer.obj
 0001:0002ce78       ?ResetBaseAttribute@KPlayer@@QAEXPAE@Z 1002de78 f   KPlayer.obj
 0001:0002cefa       ?AddSkillPoint@KPlayer@@QAEXPAE@Z 1002defa f   KPlayer.obj
 0001:0002d3aa       ?IncSkillLevel@KPlayer@@QAEXHH@Z 1002e3aa f   KPlayer.obj
 0001:0002d75e       ?IncSkillExp@KPlayer@@QAEXHH@Z 1002e75e f   KPlayer.obj
 0001:0002d8ff       ?ServerPickUpItem@KPlayer@@QAEHPAE@Z 1002e8ff f   KPlayer.obj
 0001:0002e4ab       ?EatItem@KPlayer@@QAEXPAE@Z 1002f4ab f   KPlayer.obj
 0001:0002e4f9       ?ServerMoveItem@KPlayer@@QAEXPAE@Z 1002f4f9 f   KPlayer.obj
 0001:0002e68e       ?ServerThrowAwayItem@KPlayer@@QAEXPAE@Z 1002f68e f   KPlayer.obj
 0001:0002e9d3       ?TradeApplyOpen@KPlayer@@QAEXPAE@Z 1002f9d3 f   KPlayer.obj
 0001:0002ec2e       ?TradeApplyClose@KPlayer@@QAEXPAE@Z 1002fc2e f   KPlayer.obj
 0001:0002ec58       ?TradeApplyStart@KPlayer@@QAEXPAE@Z 1002fc58 f   KPlayer.obj
 0001:0002ed77       ?TradeMoveMoney@KPlayer@@QAEXPAE@Z 1002fd77 f   KPlayer.obj
 0001:0002ee01       ?TradeDecision@KPlayer@@QAEXPAE@Z 1002fe01 f   KPlayer.obj
 0001:0002f9ed       ?TradeFolkGameDecision@KPlayer@@QAEXE@Z 100309ed f   KPlayer.obj
 0001:0002ff9b       ?c2sTradeReplyStart@KPlayer@@QAEXPAE@Z 10030f9b f   KPlayer.obj
 0001:000308e7       ?SyncTradeState@KPlayer@@QAEXHH@Z 100318e7 f   KPlayer.obj
 0001:00030a23       ?SendEquipItemInfo@KPlayer@@QAEXH@Z 10031a23 f   KPlayer.obj
 0001:00030caf       ?SparApplyStart@KPlayer@@QAEXPAE@Z 10031caf f   KPlayer.obj
 0001:00030d42       ?UseTownPortal@KPlayer@@QAEHXZ 10031d42 f   KPlayer.obj
 0001:00030fb8       ?BackToTownPortal@KPlayer@@QAEHXZ 10031fb8 f   KPlayer.obj
 0001:0003106b       ?Revive@KPlayer@@QAEXH@Z   1003206b f   KPlayer.obj
 0001:00031221       ?RestoreLiveData@KPlayer@@QAEXXZ 10032221 f   KPlayer.obj
 0001:00031246       ?Pay@KPlayer@@QAEHH@Z      10032246 f   KPlayer.obj
 0001:0003126f       ?PrePay@KPlayer@@QAEHH@Z   1003226f f   KPlayer.obj
 0001:000312ab       ?Earn@KPlayer@@QAEHH@Z     100322ab f   KPlayer.obj
 0001:000312d6       ?LaunchPlayer@KPlayer@@QAEXXZ 100322d6 f   KPlayer.obj
 0001:00031453       ?ExecuteScript@KPlayer@@QAEHPAD0H@Z 10032453 f   KPlayer.obj
 0001:000314a2       ?ExecuteScript@KPlayer@@QAEHKPADH@Z 100324a2 f   KPlayer.obj
 0001:0003189e       ?ExecuteScript@KPlayer@@QAEHKPAD0@Z 1003289e f   KPlayer.obj
 0001:00031cdb       ?ExecuteScript@KPlayer@@QAEHPAD00@Z 10032cdb f   KPlayer.obj
 0001:00031d32       ?ExecuteScript2Param@KPlayer@@QAEHPAD0HHH@Z 10032d32 f   KPlayer.obj
 0001:00031d91       ?ExecuteScript2Param@KPlayer@@QAEHKPADHHH@Z 10032d91 f   KPlayer.obj
 0001:00031f86       ?ExecuteScript3Param@KPlayer@@QAEHPAD0HHHH@Z 10032f86 f   KPlayer.obj
 0001:00031fe9       ?ExecuteScript3Param@KPlayer@@QAEHKPADHHHH@Z 10032fe9 f   KPlayer.obj
 0001:000321e1       ?DoScript@KPlayer@@QAEHPAD@Z 100331e1 f   KPlayer.obj
 0001:000323bb       ?DoScriptAction@KPlayer@@QAEXPAUPLAYER_SCRIPTACTION_SYNC@@@Z 100333bb f   KPlayer.obj
 0001:00032430       ?ProcessPlayerSelectFromUI@KPlayer@@QAEXPAE@Z 10033430 f   KPlayer.obj
 0001:00032521       ?GetFaction@KPlayer@@QAEXPAD@Z 10033521 f   KPlayer.obj
 0001:00032540       ?GetFactionName@KPlayer@@QAEXPAD@Z 10033540 f   KPlayer.obj
 0001:0003255f       ?GetFactionCamp@KPlayer@@QAEHXZ 1003355f f   KPlayer.obj
 0001:00032578       ?GetFactionNo@KPlayer@@QAEHXZ 10033578 f   KPlayer.obj
 0001:00032591       ?S2CExecuteScript@KPlayer@@AAEXPAD0@Z 10033591 f   KPlayer.obj
 0001:000326ad       ?DialogNpc@KPlayer@@QAEXPAE@Z 100336ad f   KPlayer.obj
 0001:00032786       ?CheckTrading@KPlayer@@QAEH_N@Z 10033786 f   KPlayer.obj
 0001:000327d4       ?SetFirstDamage@KPlayer@@QAEXXZ 100337d4 f   KPlayer.obj
 0001:0003296a       ?SetFirstMagic@KPlayer@@QAEXXZ 1003396a f   KPlayer.obj
 0001:00032b0a       ?SetBaseAttackRating@KPlayer@@QAEXXZ 10033b0a f   KPlayer.obj
 0001:00032b3a       ?SetBaseDefence@KPlayer@@QAEXXZ 10033b3a f   KPlayer.obj
 0001:00032b66       ?SetBaseResistData@KPlayer@@QAEXXZ 10033b66 f   KPlayer.obj
 0001:00032d65       ?SetBaseSpeedAndRadius@KPlayer@@QAEXXZ 10033d65 f   KPlayer.obj
 0001:00032e06       ?SetNpcDamageAttrib@KPlayer@@QAEXXZ 10033e06 f   KPlayer.obj
 0001:00032e19       ?TobeExchangeServer@KPlayer@@QAEXKHH@Z 10033e19 f   KPlayer.obj
 0001:00032e71       ?IsExchangingServer@KPlayer@@QAEHXZ 10033e71 f   KPlayer.obj
 0001:00032e85       ?SetNumImg@KPlayer@@QAEXH@Z 10033e85 f   KPlayer.obj
 0001:00032eaa       ?SetLockMove@KPlayer@@QAEXPAULockMoveItem@@@Z 10033eaa f   KPlayer.obj
 0001:00032f27       ?SetLockState@KPlayer@@QAEXH@Z 10033f27 f   KPlayer.obj
 0001:00033015       ?GetLockState@KPlayer@@QAEHXZ 10034015 f   KPlayer.obj
 0001:00033029       ?SetEquipExpandTime@KPlayer@@QAEXH@Z 10034029 f   KPlayer.obj
 0001:000330ce       ?SetExpandBoxNum@KPlayer@@QAEXH@Z 100340ce f   KPlayer.obj
 0001:00033173       ?SetLastNetOperationTime@KPlayer@@QAEXH@Z 10034173 f   KPlayer.obj
 0001:00033215       ?CreateTong@KPlayer@@QAEHHPAD@Z 10034215 f   KPlayer.obj
 0001:00033238       ?RepairItem@KPlayer@@QAEXK@Z 10034238 f   KPlayer.obj
 0001:00033529       ?SetExtPoint@KPlayer@@QAEXHH@Z 10034529 f   KPlayer.obj
 0001:000335a5       ?AddExtPoint@KPlayer@@QAEXHH@Z 100345a5 f   KPlayer.obj
 0001:0003362b       ?GetExtPoint@KPlayer@@QAEHXZ 1003462b f   KPlayer.obj
 0001:0003363f       ?GetExtPointChanged@KPlayer@@QAEHXZ 1003463f f   KPlayer.obj
 0001:00033653       ?PayExtPoint@KPlayer@@QAEHH@Z 10034653 f   KPlayer.obj
 0001:000336fc       ?AutoLoseItem@KPlayer@@QAEXK@Z 100346fc f   KPlayer.obj
 0001:00033a9c       ?PlayerBreakItem@KPlayer@@QAEXKHH@Z 10034a9c f   KPlayer.obj
 0001:00033eaa       ?TradeStart@KPlayer@@QAEXPAE@Z 10034eaa f   KPlayer.obj
 0001:000341eb       ?SendTradeCancel@KPlayer@@QAEXXZ 100351eb f   KPlayer.obj
 0001:000342a1       ?SendTradeItem@KPlayer@@QAEHH@Z 100352a1 f   KPlayer.obj
 0001:000346ca       ?SendTradeCount@KPlayer@@QAEXH@Z 100356ca f   KPlayer.obj
 0001:000347e9       ?GetTradeCount@KPlayer@@QAEHXZ 100357e9 f   KPlayer.obj
 0001:0003486c       ?ForbidEnmity@KPlayer@@QAEXH@Z 1003586c f   KPlayer.obj
 0001:00034885       ?ForbidTrade@KPlayer@@QAEXH@Z 10035885 f   KPlayer.obj
 0001:000348c0       ?ForbidUseTownP@KPlayer@@QAEXH@Z 100358c0 f   KPlayer.obj
 0001:000348d9       ?ForbidName@KPlayer@@QAEXH@Z 100358d9 f   KPlayer.obj
 0001:00034910       ?ForbidCamp@KPlayer@@QAEXH@Z 10035910 f   KPlayer.obj
 0001:00034929       ?SendMSGroup@KPlayer@@QAEXXZ 10035929 f   KPlayer.obj
 0001:00034997       ?SendMSRank@KPlayer@@QAEXPAUTMissionLadderSelfInfo@@PAUTMissionLadderInfo@@@Z 10035997 f   KPlayer.obj
 0001:00034a60       ?SetSavePw@KPlayer@@QAEXPADH@Z 10035a60 f   KPlayer.obj
 0001:00034aef       ?CheckSavePw@KPlayer@@QAEHPBD@Z 10035aef f   KPlayer.obj
 0001:00034b63       ?Compound@KPlayer@@QAEHH@Z 10035b63 f   KPlayer.obj
 0001:00034f53       ?Enchase@KPlayer@@QAEHHHHH@Z 10035f53 f   KPlayer.obj
 0001:00035650       ??0KPlayerTeam@@QAE@XZ     10036650 f i KPlayer.obj
 0001:00035670       ??0KPlayerAI@@QAE@XZ       10036670 f i KPlayer.obj
 0001:00035690       ??1KPlayerAI@@QAE@XZ       10036690 f i KPlayer.obj
 0001:000356b0       ??0KEquipmentArray@@QAE@XZ 100366b0 f i KPlayer.obj
 0001:000356d0       ??1KEquipmentArray@@QAE@XZ 100366d0 f i KPlayer.obj
 0001:000356f0       ??0KPlayerChatRoom@@QAE@XZ 100366f0 f i KPlayer.obj
 0001:00035710       ?Release@LockMoveItem@@QAEXXZ 10036710 f i KPlayer.obj
 0001:00035730       ?SetOwner@KTimerTaskFun@@QAEXPAX@Z 10036730 f i KPlayer.obj
 0001:00035750       ??0PLAYER_SEND_TEAM_INFO_DATA@@QAE@XZ 10036750 f i KPlayer.obj
 0001:00035770       ??0PLAYER_SEND_SELF_TEAM_INFO_DATA@@QAE@XZ 10036770 f i KPlayer.obj
 0001:000357b0       ??0PLAYER_TEAM_ADD_MEMBER_DATA@@QAE@XZ 100367b0 f i KPlayer.obj
 0001:000357e0       ?GetSkillIdxLevel@KSkillList@@QAEHH@Z 100367e0 f i KPlayer.obj
 0001:00035810       ?GetSkillReqLevel@KSkill@@QBEGXZ 10036810 f i KPlayer.obj
 0001:00035830       ?GetSkillMaxLevel@KSkillManager@@QAEKH@Z 10036830 f i KPlayer.obj
 0001:00035870       ?GetID@KItem@@QBEKXZ       10036870 f i KPlayer.obj
 0001:00035890       ?GetLockTrade@KItem@@QAEHXZ 10036890 f i KPlayer.obj
 0001:000358b0       ?GetStackNum@KItem@@QBEHXZ 100368b0 f i KPlayer.obj
 0001:000358e0       ?IsStack@KItem@@QBEHXZ     100368e0 f i KPlayer.obj
 0001:00035900       ?GetPlayerID@KPlayer@@QAEKXZ 10036900 f i KPlayer.obj
 0001:00035920       ?GetObjPickExecute@KObj@@QAEHXZ 10036920 f i KPlayer.obj
 0001:00035940       ?IsTemp@KItem@@QBEHXZ      10036940 f i KPlayer.obj
 0001:00035960       ?IsLock@KLockItem@@QAEHXZ  10036960 f i KPlayer.obj
 0001:00035980       ?GetLock@KItem@@QAEPAUKLockItem@@XZ 10036980 f i KPlayer.obj
 0001:000359a0       ?GetGenre@KItem@@QBEHXZ    100369a0 f i KPlayer.obj
 0001:000359c0       ?GetWidth@KItem@@QBEHXZ    100369c0 f i KPlayer.obj
 0001:000359e0       ?GetHeight@KItem@@QBEHXZ   100369e0 f i KPlayer.obj
 0001:00035a00       ?GetName@KItem@@QBEPADXZ   10036a00 f i KPlayer.obj
 0001:00035a20       ?GetObjIdx@KItem@@QAEHXZ   10036a20 f i KPlayer.obj
 0001:00035a40       ?GetLockDrop@KItem@@QAEHXZ 10036a40 f i KPlayer.obj
 0001:00035a70       ?GetLockMove@KPlayer@@QAEPAULockMoveItem@@XZ 10036a70 f i KPlayer.obj
 0001:00035a90       ?GetNature@KItem@@QBEHXZ   10036a90 f i KPlayer.obj
 0001:00035ab0       ?GetSeries@KItem@@QBEHXZ   10036ab0 f i KPlayer.obj
 0001:00035ad0       ?GetLevel@KItem@@QAEHXZ    10036ad0 f i KPlayer.obj
 0001:00035af0       ??_GKLuaScript@@UAEPAXI@Z  10036af0 f i KPlayer.obj
 0001:00035af0       ??_EKLuaScript@@UAEPAXI@Z  10036af0 f i KPlayer.obj
 0001:00035b20       ?GetDurability@KItem@@QAEHXZ 10036b20 f i KPlayer.obj
 0001:00035b40       ?SetStackNum@KItem@@QAEHH@Z 10036b40 f i KPlayer.obj
 0001:00035bc0       ?Release@PLAYERTRADE@@QAEXXZ 10036bc0 f i KPlayer.obj
 0001:00035bf0       ?GetTradePrice@KItem@@QBEHXZ 10036bf0 f i KPlayer.obj
 0001:00035c10       ?GetExpireTime@KItem@@QAEHXZ 10036c10 f i KPlayer.obj
 0001:00035c40       ?GetParam@KItem@@QAEHXZ    10036c40 f i KPlayer.obj
 0001:00035c60       ?GetFortune@KItem@@QAEHXZ  10036c60 f i KPlayer.obj
 0001:00035c80       ?GetItemParam@KItem@@QAEPAUKItemGeneratorParam@@XZ 10036c80 f i KPlayer.obj
 0001:00035ca0       ?Release@KPlayerChat@@QAEXXZ 10036ca0 f   KPlayerChat.obj
 0001:00035cab       ?SendSystemInfo@KPlayerChat@@SAXHHPAD0HH@Z 10036cab f   KPlayerChat.obj
 0001:00035eb0       ?SendGlobalSystemInfo@KPlayerChat@@SAXPAD0H@Z 10036eb0 f   KPlayerChat.obj
 0001:00035fa5       ?SendInfoToGM@KPlayerChat@@SAXPAD00H@Z 10036fa5 f   KPlayerChat.obj
 0001:000360b9       ?SendInfoToIP@KPlayerChat@@SAXKKPAD00H@Z 100370b9 f   KPlayerChat.obj
 0001:000361c3       ?MakeBrother@KPlayerChat@@SAXABV?$list@V?$basic_string@DU?$char_traits@D@std@@V?$allocator@D@2@@std@@V?$allocator@V?$basic_string@DU?$char_traits@D@std@@V?$allocator@D@2@@std@@@2@@std@@@Z 100371c3 f   KPlayerChat.obj
 0001:000363a4       ?MakeEnemy@KPlayerChat@@SAXPAD0@Z 100373a4 f   KPlayerChat.obj
 0001:000364ae       ?MakeMate@KPlayerChat@@SAXPAD0@Z 100374ae f   KPlayerChat.obj
 0001:000365e0       ??0?$basic_string@DU?$char_traits@D@std@@V?$allocator@D@2@@std@@QAE@ABV01@@Z 100375e0 f i KPlayerChat.obj
 0001:00036620       ??1?$basic_string@DU?$char_traits@D@std@@V?$allocator@D@2@@std@@QAE@XZ 10037620 f i KPlayerChat.obj
 0001:00036640       ?c_str@?$basic_string@DU?$char_traits@D@std@@V?$allocator@D@2@@std@@QBEPBDXZ 10037640 f i KPlayerChat.obj
 0001:00036670       ?size@?$basic_string@DU?$char_traits@D@std@@V?$allocator@D@2@@std@@QBEIXZ 10037670 f i KPlayerChat.obj
 0001:00036690       ?begin@?$list@V?$basic_string@DU?$char_traits@D@std@@V?$allocator@D@2@@std@@V?$allocator@V?$basic_string@DU?$char_traits@D@std@@V?$allocator@D@2@@std@@@2@@std@@QBE?AVconst_iterator@12@XZ 10037690 f i KPlayerChat.obj
 0001:000366d0       ?end@?$list@V?$basic_string@DU?$char_traits@D@std@@V?$allocator@D@2@@std@@V?$allocator@V?$basic_string@DU?$char_traits@D@std@@V?$allocator@D@2@@std@@@2@@std@@QBE?AVconst_iterator@12@XZ 100376d0 f i KPlayerChat.obj
 0001:00036700       ?size@?$list@V?$basic_string@DU?$char_traits@D@std@@V?$allocator@D@2@@std@@V?$allocator@V?$basic_string@DU?$char_traits@D@std@@V?$allocator@D@2@@std@@@2@@std@@QBEIXZ 10037700 f i KPlayerChat.obj
 0001:00036720       ??Dconst_iterator@?$list@V?$basic_string@DU?$char_traits@D@std@@V?$allocator@D@2@@std@@V?$allocator@V?$basic_string@DU?$char_traits@D@std@@V?$allocator@D@2@@std@@@2@@std@@QBEABV?$basic_string@DU?$char_traits@D@std@@V?$allocator@D@2@@2@XZ 10037720 f i KPlayerChat.obj
 0001:00036740       ??Econst_iterator@?$list@V?$basic_string@DU?$char_traits@D@std@@V?$allocator@D@2@@std@@V?$allocator@V?$basic_string@DU?$char_traits@D@std@@V?$allocator@D@2@@std@@@2@@std@@QAE?AV012@H@Z 10037740 f i KPlayerChat.obj
 0001:00036770       ??9const_iterator@?$list@V?$basic_string@DU?$char_traits@D@std@@V?$allocator@D@2@@std@@V?$allocator@V?$basic_string@DU?$char_traits@D@std@@V?$allocator@D@2@@std@@@2@@std@@QBE_NABV012@@Z 10037770 f i KPlayerChat.obj
 0001:000367a0       ?assign@?$basic_string@DU?$char_traits@D@std@@V?$allocator@D@2@@std@@QAEAAV12@ABV12@II@Z 100377a0 f i KPlayerChat.obj
 0001:00036900       ?copy@?$char_traits@D@std@@SAPADPADPBDI@Z 10037900 f i KPlayerChat.obj
 0001:00036920       ?_Nullstr@?$basic_string@DU?$char_traits@D@std@@V?$allocator@D@2@@std@@CAPBDXZ 10037920 f i KPlayerChat.obj
 0001:00036930       ?_Tidy@?$basic_string@DU?$char_traits@D@std@@V?$allocator@D@2@@std@@AAEX_N@Z 10037930 f i KPlayerChat.obj
 0001:000369f0       ?_Next@_Acc@?$list@V?$basic_string@DU?$char_traits@D@std@@V?$allocator@D@2@@std@@V?$allocator@V?$basic_string@DU?$char_traits@D@std@@V?$allocator@D@2@@std@@@2@@std@@SAAAPAU_Node@23@PAU423@@Z 100379f0 f i KPlayerChat.obj
 0001:00036a00       ?_Value@_Acc@?$list@V?$basic_string@DU?$char_traits@D@std@@V?$allocator@D@2@@std@@V?$allocator@V?$basic_string@DU?$char_traits@D@std@@V?$allocator@D@2@@std@@@2@@std@@SAAAV?$basic_string@DU?$char_traits@D@std@@V?$allocator@D@2@@3@PAU_Node@23@@Z 10037a00 f i KPlayerChat.obj
 0001:00036a10       ??0const_iterator@?$list@V?$basic_string@DU?$char_traits@D@std@@V?$allocator@D@2@@std@@V?$allocator@V?$basic_string@DU?$char_traits@D@std@@V?$allocator@D@2@@std@@@2@@std@@QAE@PAU_Node@12@@Z 10037a10 f i KPlayerChat.obj
 0001:00036a30       ??Econst_iterator@?$list@V?$basic_string@DU?$char_traits@D@std@@V?$allocator@D@2@@std@@V?$allocator@V?$basic_string@DU?$char_traits@D@std@@V?$allocator@D@2@@std@@@2@@std@@QAEAAV012@XZ 10037a30 f i KPlayerChat.obj
 0001:00036a60       ??8const_iterator@?$list@V?$basic_string@DU?$char_traits@D@std@@V?$allocator@D@2@@std@@V?$allocator@V?$basic_string@DU?$char_traits@D@std@@V?$allocator@D@2@@std@@@2@@std@@QBE_NABV012@@Z 10037a60 f i KPlayerChat.obj
 0001:00036a80       ?erase@?$basic_string@DU?$char_traits@D@std@@V?$allocator@D@2@@std@@QAEAAV12@II@Z 10037a80 f i KPlayerChat.obj
 0001:00036b30       ?move@?$char_traits@D@std@@SAPADPADPBDI@Z 10037b30 f i KPlayerChat.obj
 0001:00036b50       ?capacity@?$basic_string@DU?$char_traits@D@std@@V?$allocator@D@2@@std@@QBEIXZ 10037b50 f i KPlayerChat.obj
 0001:00036b70       ?_Eos@?$basic_string@DU?$char_traits@D@std@@V?$allocator@D@2@@std@@AAEXI@Z 10037b70 f i KPlayerChat.obj
 0001:00036bb0       ?assign@?$char_traits@D@std@@SAXAADABD@Z 10037bb0 f i KPlayerChat.obj
 0001:00036bc0       ?_Grow@?$basic_string@DU?$char_traits@D@std@@V?$allocator@D@2@@std@@AAE_NI_N@Z 10037bc0 f i KPlayerChat.obj
 0001:00036d00       ?_Refcnt@?$basic_string@DU?$char_traits@D@std@@V?$allocator@D@2@@std@@AAEAAEPBD@Z 10037d00 f i KPlayerChat.obj
 0001:00036d20       ?deallocate@?$allocator@D@std@@QAEXPAXI@Z 10037d20 f i KPlayerChat.obj
 0001:00036d40       ?max_size@?$basic_string@DU?$char_traits@D@std@@V?$allocator@D@2@@std@@QBEIXZ 10037d40 f i KPlayerChat.obj
 0001:00036d80       ?_Copy@?$basic_string@DU?$char_traits@D@std@@V?$allocator@D@2@@std@@AAEXI@Z 10037d80 f i KPlayerChat.obj
 0001:00036ec0       ?_Split@?$basic_string@DU?$char_traits@D@std@@V?$allocator@D@2@@std@@AAEXXZ 10037ec0 f i KPlayerChat.obj
 0001:00036f30       ?assign@?$basic_string@DU?$char_traits@D@std@@V?$allocator@D@2@@std@@QAEAAV12@PBD@Z 10037f30 f i KPlayerChat.obj
 0001:00036f60       ?length@?$char_traits@D@std@@SAIPBD@Z 10037f60 f i KPlayerChat.obj
 0001:00036f80       ?assign@?$basic_string@DU?$char_traits@D@std@@V?$allocator@D@2@@std@@QAEAAV12@PBDI@Z 10037f80 f i KPlayerChat.obj
 0001:00036fd0       ?allocate@?$allocator@D@std@@QAEPADIPBX@Z 10037fd0 f i KPlayerChat.obj
 0001:00036ff0       ?max_size@?$allocator@D@std@@QBEIXZ 10037ff0 f i KPlayerChat.obj
 0001:00037020       ??8std@@YA_NABV?$allocator@D@0@0@Z 10038020 f i KPlayerChat.obj
 0001:00037030       ?_Allocate@std@@YAPADHPAD@Z 10038030 f i KPlayerChat.obj
 0001:00037075       ?Active@KPlayerChatRoom@@QAEXXZ 10038075 f   KPlayerChatRoom.obj
 0001:00037171       ?Init@KPlayerChatRoom@@QAEXH@Z 10038171 f   KPlayerChatRoom.obj
 0001:0003718f       ?Release@KPlayerChatRoom@@QAEXXZ 1003818f f   KPlayerChatRoom.obj
 0001:000371b7       ?CreateChatRoom@KPlayerChatRoom@@QAEHPADHHH@Z 100381b7 f   KPlayerChatRoom.obj
 0001:00037401       ?AddTime@KPlayerChatRoom@@QAEHPBDH@Z 10038401 f   KPlayerChatRoom.obj
 0001:00037420       ?RequestList@KPlayerChatRoom@@QAEHXZ 10038420 f   KPlayerChatRoom.obj
 0001:00037469       ?JoinRoom@KPlayerChatRoom@@QAEHHH@Z 10038469 f   KPlayerChatRoom.obj
 0001:00037573       ?LeaveRoom@KPlayerChatRoom@@QAEHXZ 10038573 f   KPlayerChatRoom.obj
 0001:000375cc       ?DeleteRoom@KPlayerChatRoom@@QAEHXZ 100385cc f   KPlayerChatRoom.obj
 0001:0003762e       ?ForceLeaveRoom@KPlayerChatRoom@@QAEHXZ 1003862e f   KPlayerChatRoom.obj
 0001:00037687       ?Roomcommand@KPlayerChatRoom@@QAEHH@Z 10038687 f   KPlayerChatRoom.obj
 0001:0003780a       ??0KChatRoom@@QAE@XZ       1003880a f   KPlayerChatRoom.obj
 0001:00037820       ?Release@KChatRoom@@QAEXXZ 10038820 f   KPlayerChatRoom.obj
 0001:000378ca       ?RemoveLeftRoom@KChatRoom@@QAEXXZ 100388ca f   KPlayerChatRoom.obj
 0001:000379f1       ?DeleteRoom@KChatRoom@@QAEXXZ 100389f1 f   KPlayerChatRoom.obj
 0001:00037b2b       ?SetIndex@KChatRoom@@QAEXH@Z 10038b2b f   KPlayerChatRoom.obj
 0001:00037b40       ?FindFree@KChatRoom@@QAEHXZ 10038b40 f   KPlayerChatRoom.obj
 0001:00037b7c       ?FindFreeBlackList@KChatRoom@@QAEHXZ 10038b7c f   KPlayerChatRoom.obj
 0001:00037bc0       ?CheckBlackList@KChatRoom@@QAEHPBD@Z 10038bc0 f   KPlayerChatRoom.obj
 0001:00037c13       ?CheckMemberName@KChatRoom@@QAEHPBD@Z 10038c13 f   KPlayerChatRoom.obj
 0001:00037c85       ?OpenGame@KChatRoom@@QAEHHH@Z 10038c85 f   KPlayerChatRoom.obj
 0001:00037d2d       ?AddParam@KChatRoom@@QAEHPBDHH@Z 10038d2d f   KPlayerChatRoom.obj
 0001:00037e12       ?CreateChatRoom@KChatRoom@@QAEHHPBDHHH@Z 10038e12 f   KPlayerChatRoom.obj
 0001:00037e84       ?MsgAll@KChatRoom@@QAEXPBD@Z 10038e84 f   KPlayerChatRoom.obj
 0001:00037ee7       ?Dice@KChatRoom@@QAEXH@Z   10038ee7 f   KPlayerChatRoom.obj
 0001:000382bb       ?Init@KChatRoomSet@@QAEXXZ 100392bb f   KPlayerChatRoom.obj
 0001:000382fa       ?FindFree@KChatRoomSet@@AAEHXZ 100392fa f   KPlayerChatRoom.obj
 0001:0003839a       ?CreateChatRoom@KChatRoomSet@@QAEHHPBDHHH@Z 1003939a f   KPlayerChatRoom.obj
 0001:0003843b       ?AddTime@KChatRoomSet@@QAEHPBDH@Z 1003943b f   KPlayerChatRoom.obj
 0001:00038489       ?CheckHost@KChatRoomSet@@AAEHPBD@Z 10039489 f   KPlayerChatRoom.obj
 0001:000384db       ?FindName@KChatRoomSet@@AAEHPBD@Z 100394db f   KPlayerChatRoom.obj
 0001:0003852c       ?RequestRoomList@KChatRoomSet@@QAEHH@Z 1003952c f   KPlayerChatRoom.obj
 0001:000386d2       ?RequestList@KChatRoomSet@@QAEHHH@Z 100396d2 f   KPlayerChatRoom.obj
 0001:000389ba       ?JoinRoom@KChatRoomSet@@QAEHHHH@Z 100399ba f   KPlayerChatRoom.obj
 0001:00038d6a       ?LeaveRoom@KChatRoomSet@@QAEHHH@Z 10039d6a f   KPlayerChatRoom.obj
 0001:00039221       ?DeleteRoom@KChatRoomSet@@QAEHHH@Z 1003a221 f   KPlayerChatRoom.obj
 0001:000392f9       ?ForceLeaveRoom@KChatRoomSet@@QAEHHH@Z 1003a2f9 f   KPlayerChatRoom.obj
 0001:0003941c       ?AddBlackList@KChatRoomSet@@QAEHHHH@Z 1003a41c f   KPlayerChatRoom.obj
 0001:000399b6       ?RemoveBlackList@KChatRoomSet@@QAEHHHH@Z 1003a9b6 f   KPlayerChatRoom.obj
 0001:00039aa8       ?ChangePw@KChatRoomSet@@QAEHHHH@Z 1003aaa8 f   KPlayerChatRoom.obj
 0001:00039b6b       ?OpenGame@KChatRoomSet@@QAEHHHH@Z 1003ab6b f   KPlayerChatRoom.obj
 0001:00039e12       ?Hight@KChatRoomSet@@QAEHHHH@Z 1003ae12 f   KPlayerChatRoom.obj
 0001:0003a006       ?Low@KChatRoomSet@@QAEHHHH@Z 1003b006 f   KPlayerChatRoom.obj
 0001:0003a200       ??0PLAYER_SEND_CHATROOM_STATE@@QAE@XZ 1003b200 f i KPlayerChatRoom.obj
 0001:0003a220       ??0PLAYER_REQUEST_CHATROOM_LIST@@QAE@XZ 1003b220 f i KPlayerChatRoom.obj
 0001:0003a240       ??0PLAYER_REQUEST_LIST@@QAE@XZ 1003b240 f i KPlayerChatRoom.obj
 0001:0003a29f       ?AddDBPlayer@KPlayer@@QAEHPADHPAK@Z 1003b29f f   KPlayerDBFuns.obj
 0001:0003a2ae       ?LoadDBPlayerInfo@KPlayer@@QAEHPAEAAHAAI@Z 1003b2ae f   KPlayerDBFuns.obj
 0001:0003a7b6       ?UpdateDBPlayerInfo@KPlayer@@QAEHPAE@Z 1003b7b6 f   KPlayerDBFuns.obj
 0001:0003a80f       ?LoadPlayerBaseInfo@KPlayer@@AAEHPAEAAPAEAAI@Z 1003b80f f   KPlayerDBFuns.obj
 0001:0003b008       ?LoadPlayerItemList@KPlayer@@AAEHPAEAAPAEAAI@Z 1003c008 f   KPlayerDBFuns.obj
 0001:0003b659       ?LoadPlayerFightSkillList@KPlayer@@AAEHPAEAAPAEAAI@Z 1003c659 f   KPlayerDBFuns.obj
 0001:0003b781       ?LoadPlayerStateSkillList@KPlayer@@AAEHPAEAAPAEAAI@Z 1003c781 f   KPlayerDBFuns.obj
 0001:0003b862       ?LoadPlayerTaskList@KPlayer@@AAEHPAEAAPAEAAI@Z 1003c862 f   KPlayerDBFuns.obj
 0001:0003baa8       ?SavePlayerBaseInfo@KPlayer@@AAEHPAE@Z 1003caa8 f   KPlayerDBFuns.obj
 0001:0003c09e       ?SavePlayerItemList@KPlayer@@AAEHPAE@Z 1003d09e f   KPlayerDBFuns.obj
 0001:0003c5b2       ?SavePlayerFightSkillList@KPlayer@@AAEHPAE@Z 1003d5b2 f   KPlayerDBFuns.obj
 0001:0003c656       ?SavePlayerStateSkillList@KPlayer@@AAEHPAE@Z 1003d656 f   KPlayerDBFuns.obj
 0001:0003c6fa       ?SavePlayerTaskList@KPlayer@@AAEHPAE@Z 1003d6fa f   KPlayerDBFuns.obj
 0001:0003c9b0       ?DBSetTongNameID@KPlayerTong@@QAEXK@Z 1003d9b0 f i KPlayerDBFuns.obj
 0001:0003c9e0       ?Clear@BuySellInfo@@QAEXXZ 1003d9e0 f i KPlayerDBFuns.obj
 0001:0003ca30       ?SetOwner@KItem@@QAEXK@Z   1003da30 f i KPlayerDBFuns.obj
 0001:0003ca50       ?SetTradePrice@KItem@@QAEXH@Z 1003da50 f i KPlayerDBFuns.obj
 0001:0003ca70       ?SetExpireTime@KItem@@QAEXH@Z 1003da70 f i KPlayerDBFuns.obj
 0001:0003ca90       ?Release@PlayerItem@@QAEXXZ 1003da90 f i KPlayerDBFuns.obj
 0001:0003cad0       ?GetBackLocal@KItem@@QAEPAUPlayerItem@@XZ 1003dad0 f i KPlayerDBFuns.obj
 0001:0003caf0       ??0KLockItem@@QAE@XZ       1003daf0 f i KPlayerDBFuns.obj
 0001:0003cb10       ??1KLockItem@@QAE@XZ       1003db10 f i KPlayerDBFuns.obj
 0001:0003cb30       ?SetLock@KItem@@QAEXPAUKLockItem@@@Z 1003db30 f i KPlayerDBFuns.obj
 0001:0003cb80       ?Clear@KLockItem@@QAEXXZ   1003db80 f i KPlayerDBFuns.obj
 0001:0003cba0       ?SetLockSell@KItem@@QAEXH@Z 1003dba0 f i KPlayerDBFuns.obj
 0001:0003cbc0       ?SetLockTrade@KItem@@QAEXH@Z 1003dbc0 f i KPlayerDBFuns.obj
 0001:0003cbe0       ?SetLockDrop@KItem@@QAEXH@Z 1003dbe0 f i KPlayerDBFuns.obj
 0001:0003cc00       ?SetRow@KItem@@QAEXH@Z     1003dc00 f i KPlayerDBFuns.obj
 0001:0003cc20       ?SetParam@KItem@@QAEXH@Z   1003dc20 f i KPlayerDBFuns.obj
 0001:0003cc40       ?SetMantle@KItem@@QAEXH@Z  1003dc40 f i KPlayerDBFuns.obj
 0001:0003cc60       ?SetFlash@KItem@@QAEXI@Z   1003dc60 f i KPlayerDBFuns.obj
 0001:0003cc80       ?SetFortune@KItem@@QAEXH@Z 1003dc80 f i KPlayerDBFuns.obj
 0001:0003cca0       ?RemoveHead@KList@@QAEPAVKNode@@XZ 1003dca0 f i KPlayerDBFuns.obj
 0001:0003ccd0       ?GetOwner@KItem@@QBEKXZ    1003dcd0 f i KPlayerDBFuns.obj
 0001:0003ccf0       ?GetMantle@KItem@@QAEHXZ   1003dcf0 f i KPlayerDBFuns.obj
 0001:0003cd10       ?GetFlash@KItem@@QAEIXZ    1003dd10 f i KPlayerDBFuns.obj
 0001:0003cd30       ??0KPlayerFaction@@QAE@XZ  1003dd30 f   KPlayerFaction.obj
 0001:0003cd46       ?Release@KPlayerFaction@@QAEXXZ 1003dd46 f   KPlayerFaction.obj
 0001:0003cd6e       ?SetSeries@KPlayerFaction@@QAEXH@Z 1003dd6e f   KPlayerFaction.obj
 0001:0003cd7b       ?AddFaction@KPlayerFaction@@QAEHHPAD@Z 1003dd7b f   KPlayerFaction.obj
 0001:0003cdb9       ?AddFaction@KPlayerFaction@@QAEHHH@Z 1003ddb9 f   KPlayerFaction.obj
 0001:0003ce40       ?LeaveFaction@KPlayerFaction@@QAEXXZ 1003de40 f   KPlayerFaction.obj
 0001:0003ce54       ?GetGurFactionCamp@KPlayerFaction@@QAEHXZ 1003de54 f   KPlayerFaction.obj
 0001:0003cea3       ?GetCurFactionNo@KPlayerFaction@@QAEHXZ 1003dea3 f   KPlayerFaction.obj
 0001:0003ceb3       ?GetCurFactionName@KPlayerFaction@@QAEXPAD@Z 1003deb3 f   KPlayerFaction.obj
 0001:0003cf12       ?GetCurFactionShowName@KPlayerFaction@@QAEXPAD@Z 1003df12 f   KPlayerFaction.obj
 0001:0003cf80       ??0KPlayerMenuState@@QAE@XZ 1003df80 f   KPlayerMenuState.obj
 0001:0003cf96       ?Release@KPlayerMenuState@@QAEXXZ 1003df96 f   KPlayerMenuState.obj
 0001:0003d004       ?BackupState@KPlayerMenuState@@QAEXXZ 1003e004 f   KPlayerMenuState.obj
 0001:0003d03b       ?RestoreState@KPlayerMenuState@@QAEXXZ 1003e03b f   KPlayerMenuState.obj
 0001:0003d071       ?SetState@KPlayerMenuState@@QAEXHHPADHK@Z 1003e071 f   KPlayerMenuState.obj
 0001:0003d4cb       ?RestoreBackupState@KPlayerMenuState@@QAEXH@Z 1003e4cb f   KPlayerMenuState.obj
 0001:0003d5d3       ?Init@KPlayerMenuStateGraph@@QAEHXZ 1003e5d3 f   KPlayerMenuState.obj
 0001:0003d69c       ?GetStateSpr@KPlayerMenuStateGraph@@QAEXHPAD@Z 1003e69c f   KPlayerMenuState.obj
 0001:0003d6e0       ??0KPlayerPK@@QAE@XZ       1003e6e0 f   KPlayerPK.obj
 0001:0003d6f7       ?Init@KPlayerPK@@QAEXH@Z   1003e6f7 f   KPlayerPK.obj
 0001:0003d78b       ?Active@KPlayerPK@@QAEXXZ  1003e78b f   KPlayerPK.obj
 0001:0003d79e       ?CheckSwitchPK@KPlayerPK@@QAEHEH@Z 1003e79e f   KPlayerPK.obj
 0001:0003e1a1       ?SetNormalPKState@KPlayerPK@@QAEXEH@Z 1003f1a1 f   KPlayerPK.obj
 0001:0003e344       ?SetLockPKState@KPlayerPK@@QAEXEE@Z 1003f344 f   KPlayerPK.obj
 0001:0003e3e8       ?GetNormalPKState@KPlayerPK@@QAEHXZ 1003f3e8 f   KPlayerPK.obj
 0001:0003e3f9       ?EnmityPKClose@KPlayerPK@@QAEXH@Z 1003f3f9 f   KPlayerPK.obj
 0001:0003e61e       ?EnmityPKOpen@KPlayerPK@@QAEHHH@Z 1003f61e f   KPlayerPK.obj
 0001:0003f2a2       ?GetEnmityPKState@KPlayerPK@@QAEHXZ 100402a2 f   KPlayerPK.obj
 0001:0003f2b3       ?GetEnmityPKAim@KPlayerPK@@QAEHXZ 100402b3 f   KPlayerPK.obj
 0001:0003f2c4       ?ExercisePKClose@KPlayerPK@@QAEXXZ 100402c4 f   KPlayerPK.obj
 0001:0003f3cc       ?ExercisePKOpen@KPlayerPK@@QAEHH@Z 100403cc f   KPlayerPK.obj
 0001:0003f5f9       ?GetExercisePKAim@KPlayerPK@@QAEHXZ 100405f9 f   KPlayerPK.obj
 0001:0003f60a       ?SetPKValue@KPlayerPK@@QAEXH@Z 1004060a f   KPlayerPK.obj
 0001:0003f6d5       ?GetPKValue@KPlayerPK@@QAEHXZ 100406d5 f   KPlayerPK.obj
 0001:0003f6e6       ?AddPKValue@KPlayerPK@@QAEXH@Z 100406e6 f   KPlayerPK.obj
 0001:0003f7c0       ?CloseAll@KPlayerPK@@QAEXXZ 100407c0 f   KPlayerPK.obj
 0001:0003f7dd       ?EnmityPKCountDown@KPlayerPK@@QAEXXZ 100407dd f   KPlayerPK.obj
 0001:0003f9a0       ?GetPKFollowCaptain@KPlayerTeam@@QAEHXZ 100409a0 f i KPlayerPK.obj
 0001:0003f9c0       ?GetExercisePKState@KPlayerPK@@QAEHXZ 100409c0 f i KPlayerPK.obj
 0001:0003fa1f       ??0KPlayerSet@@QAE@XZ      10040a1f f   KPlayerSet.obj
 0001:0003fad8       ??1KPlayerSet@@QAE@XZ      10040ad8 f   KPlayerSet.obj
 0001:0003fb37       ?Init@KPlayerSet@@QAEHXZ   10040b37 f   KPlayerSet.obj
 0001:0003fe99       ?FindFree@KPlayerSet@@AAEHXZ 10040e99 f   KPlayerSet.obj
 0001:0003feaf       ?FindSame@KPlayerSet@@QAEHK@Z 10040eaf f   KPlayerSet.obj
 0001:0003ff0c       ?GetFirstPlayer@KPlayerSet@@QAEHXZ 10040f0c f   KPlayerSet.obj
 0001:0003ff31       ?GetNextPlayer@KPlayerSet@@QAEHXZ 10040f31 f   KPlayerSet.obj
 0001:0003ff68       ?Add@KPlayerSet@@QAEHPADPAX@Z 10040f68 f   KPlayerSet.obj
 0001:00040050       ?Broadcasting@KPlayerSet@@QAEHPADH@Z 10041050 f   KPlayerSet.obj
 0001:000400d2       ?PrepareRemove@KPlayerSet@@QAEXH@Z 100410d2 f   KPlayerSet.obj
 0001:0004021c       ?PrepareLoginFailed@KPlayerSet@@QAEXH@Z 1004121c f   KPlayerSet.obj
 0001:000402d4       ?PrepareExchange@KPlayerSet@@QAEXH@Z 100412d4 f   KPlayerSet.obj
 0001:00040384       ?RemoveQuiting@KPlayerSet@@QAEXH@Z 10041384 f   KPlayerSet.obj
 0001:000405a3       ?RemoveLoginTimeOut@KPlayerSet@@QAEXH@Z 100415a3 f   KPlayerSet.obj
 0001:00040776       ?RemoveExchanging@KPlayerSet@@QAEXH@Z 10041776 f   KPlayerSet.obj
 0001:00040956       ?ProcessClientMessage@KPlayerSet@@QAEXHPBDH@Z 10041956 f   KPlayerSet.obj
 0001:000409c4       ??0KLevelAdd@@QAE@XZ       100419c4 f   KPlayerSet.obj
 0001:00040ac1       ?Init@KLevelAdd@@QAEHXZ    10041ac1 f   KPlayerSet.obj
 0001:00040e50       ?GetLevelExp@KLevelAdd@@QAEHHH@Z 10041e50 f   KPlayerSet.obj
 0001:00040e94       ?GetLifePerLevel@KLevelAdd@@QAEHH@Z 10041e94 f   KPlayerSet.obj
 0001:00040ebe       ?GetStaminaPerLevel@KLevelAdd@@QAEHHH@Z 10041ebe f   KPlayerSet.obj
 0001:00040f0d       ?GetManaPerLevel@KLevelAdd@@QAEHH@Z 10041f0d f   KPlayerSet.obj
 0001:00040f37       ?GetLifePerVitality@KLevelAdd@@QAEHH@Z 10041f37 f   KPlayerSet.obj
 0001:00040f61       ?GetStaminaPerVitality@KLevelAdd@@QAEHH@Z 10041f61 f   KPlayerSet.obj
 0001:00040f8b       ?GetManaPerEnergy@KLevelAdd@@QAEHH@Z 10041f8b f   KPlayerSet.obj
 0001:00040fb5       ?GetLeadExpShare@KLevelAdd@@QAEHH@Z 10041fb5 f   KPlayerSet.obj
 0001:00040fdf       ?GetFireResist@KLevelAdd@@QAEHHH@Z 10041fdf f   KPlayerSet.obj
 0001:00041028       ?GetColdResist@KLevelAdd@@QAEHHH@Z 10042028 f   KPlayerSet.obj
 0001:00041071       ?GetPoisonResist@KLevelAdd@@QAEHHH@Z 10042071 f   KPlayerSet.obj
 0001:000410ba       ?GetLightResist@KLevelAdd@@QAEHHH@Z 100420ba f   KPlayerSet.obj
 0001:00041103       ?GetPhysicsResist@KLevelAdd@@QAEHHH@Z 10042103 f   KPlayerSet.obj
 0001:0004114c       ?GetStaminaBase@KLevelAdd@@QAEHHH@Z 1004214c f   KPlayerSet.obj
 0001:0004119b       ??0KMagicLevelExp@@QAE@XZ  1004219b f   KPlayerSet.obj
 0001:000411b2       ?Init@KMagicLevelExp@@QAEHXZ 100421b2 f   KPlayerSet.obj
 0001:000411da       ?GetNextExp@KMagicLevelExp@@QAEHHH@Z 100421da f   KPlayerSet.obj
 0001:00041256       ??0KTeamLeadExp@@QAE@XZ    10042256 f   KPlayerSet.obj
 0001:0004129b       ?Init@KTeamLeadExp@@QAEHXZ 1004229b f   KPlayerSet.obj
 0001:00041376       ?GetLevel@KTeamLeadExp@@QAEHKH@Z 10042376 f   KPlayerSet.obj
 0001:00041404       ?GetMemNumFromExp@KTeamLeadExp@@QAEHK@Z 10042404 f   KPlayerSet.obj
 0001:0004142e       ?GetMemNumFromLevel@KTeamLeadExp@@QAEHH@Z 1004242e f   KPlayerSet.obj
 0001:00041458       ?GetLevelExp@KTeamLeadExp@@QAEHH@Z 10042458 f   KPlayerSet.obj
 0001:0004147f       ?Activate@KPlayerSet@@QAEXXZ 1004247f f   KPlayerSet.obj
 0001:0004148a       ??0KNewPlayerAttribute@@QAE@XZ 1004248a f   KPlayerSet.obj
 0001:000414f4       ?Init@KNewPlayerAttribute@@QAEHXZ 100424f4 f   KPlayerSet.obj
 0001:00041783       ??0KPlayerStamina@@QAE@XZ  10042783 f   KPlayerSet.obj
 0001:000417cc       ?Init@KPlayerStamina@@QAEHXZ 100427cc f   KPlayerSet.obj
 0001:000418f8       ?GetPlayerName@KPlayerSet@@QAEHHPAD@Z 100428f8 f   KPlayerSet.obj
 0001:00041951       ?GetPlayerAccount@KPlayerSet@@QAEHHPAD@Z 10042951 f   KPlayerSet.obj
 0001:000419a2       ?AttachPlayer@KPlayerSet@@QAEHKPAU_GUID@@@Z 100429a2 f   KPlayerSet.obj
 0001:00041a54       ?GetPlayerIndexByGuid@KPlayerSet@@QAEHPAU_GUID@@@Z 10042a54 f   KPlayerSet.obj
 0001:00041adc       ?AutoSave@KPlayerSet@@QAEXXZ 10042adc f   KPlayerSet.obj
 0001:00041ba9       ?ExecuteScript@KPlayerSet@@QAEHHPAD0H@Z 10042ba9 f   KPlayerSet.obj
 0001:00041be0       ?ExecuteScript@KPlayerSet@@QAEHHKPADH@Z 10042be0 f   KPlayerSet.obj
 0001:00041dd0       ??1KMagicLevelExp@@QAE@XZ  10042dd0 f i KPlayerSet.obj
 0001:00041df0       ?RemovePlayer@?$KMissionArray@VKMission@@$01@@QAEHKK@Z 10042df0 f i KPlayerSet.obj
 0001:00041e80       ?GetUsedCount@?$KLinkArrayTemplate@VKMission@@$01@@QBEKXZ 10042e80 f i KPlayerSet.obj
 0001:00042026       ??0KPlayerTask@@QAE@XZ     10043026 f   KPlayerTask.obj
 0001:00042045       ?Init@KPlayerTask@@QAEXH@Z 10043045 f   KPlayerTask.obj
 0001:0004205a       ?SetSaveVal@KPlayerTask@@QAEXHPADH@Z 1004305a f   KPlayerTask.obj
 0001:000420b6       ?SetSaveVal@KPlayerTask@@QAEXHHH@Z 100430b6 f   KPlayerTask.obj
 0001:00042114       ?SyncTaskValue@KPlayerTask@@QAEHH@Z 10043114 f   KPlayerTask.obj
 0001:000421b9       ?GetSaveVal@KPlayerTask@@QAEHH@Z 100431b9 f   KPlayerTask.obj
 0001:00042210       ?GetSaveStr@KPlayerTask@@QAEPBDH@Z 10043210 f   KPlayerTask.obj
 0001:00042240       ?ClearTempVar@KPlayerTask@@QAEXXZ 10043240 f   KPlayerTask.obj
 0001:00042263       ?GetClearVal@KPlayerTask@@QAEHH@Z 10043263 f   KPlayerTask.obj
 0001:000422bd       ?GetClearStr@KPlayerTask@@QAEPBDH@Z 100432bd f   KPlayerTask.obj
 0001:000422ed       ?SetClearVal@KPlayerTask@@QAEXHPAD@Z 100432ed f   KPlayerTask.obj
 0001:00042325       ?Release@KPlayerTask@@QAEXXZ 10043325 f   KPlayerTask.obj
 0001:00042385       ?Release@KPlayerTeam@@QAEXXZ 10043385 f   KPlayerTeam.obj
 0001:000423d4       ?CreateTeam@KPlayerTeam@@QAEHHPAUPLAYER_APPLY_CREATE_TEAM@@@Z 100433d4 f   KPlayerTeam.obj
 0001:00042636       ?InviteAdd@KPlayerTeam@@QAEXHPAUTEAM_INVITE_ADD_COMMAND@@@Z 10043636 f   KPlayerTeam.obj
 0001:00042989       ?GetInviteReply@KPlayerTeam@@QAEXHHH@Z 10043989 f   KPlayerTeam.obj
 0001:000431df       ?SetCreatTeamFlag@KPlayerTeam@@QAEXHH@Z 100441df f   KPlayerTeam.obj
 0001:0004324f       ?SetFreezeTeamFlag@KPlayerTeam@@QAEXHH@Z 1004424f f   KPlayerTeam.obj
 0001:00043276       ?SetPKFollowCaptain@KPlayerTeam@@QAEXHH@Z 10044276 f   KPlayerTeam.obj
 0001:00043362       ??0KTeam@@QAE@XZ           10044362 f   KPlayerTeam.obj
 0001:00043378       ?Release@KTeam@@QAEXXZ     10044378 f   KPlayerTeam.obj
 0001:000433df       ?SetIndex@KTeam@@QAEXH@Z   100443df f   KPlayerTeam.obj
 0001:000433f4       ?FindFree@KTeam@@QAEHXZ    100443f4 f   KPlayerTeam.obj
 0001:00043430       ?FindMemberID@KTeam@@QAEHK@Z 10044430 f   KPlayerTeam.obj
 0001:00043495       ?CheckFull@KTeam@@QAEHXZ   10044495 f   KPlayerTeam.obj
 0001:000434b9       ?SetTeamOpen@KTeam@@QAEHH@Z 100444b9 f   KPlayerTeam.obj
 0001:00043631       ?SetTeamClose@KTeam@@QAEHH@Z 10044631 f   KPlayerTeam.obj
 0001:0004377d       ?SetModePick@KTeam@@QAEHH@Z 1004477d f   KPlayerTeam.obj
 0001:00043875       ?NotifyModePick@KTeam@@QAEXXZ 10044875 f   KPlayerTeam.obj
 0001:0004398b       ?NotifyMemberModePick@KTeam@@QAEXH@Z 1004498b f   KPlayerTeam.obj
 0001:00043a70       ?IsOpen@KTeam@@QAEHXZ      10044a70 f   KPlayerTeam.obj
 0001:00043a81       ?CalcCaptainPower@KTeam@@QAEHXZ 10044a81 f   KPlayerTeam.obj
 0001:00043aa9       ?CheckAddCondition@KTeam@@AAEHH@Z 10044aa9 f   KPlayerTeam.obj
 0001:00043afe       ?CreateTeam@KTeam@@QAEHH@Z 10044afe f   KPlayerTeam.obj
 0001:00043b2d       ?AddMember@KTeam@@QAEHH@Z  10044b2d f   KPlayerTeam.obj
 0001:00043c46       ?DeleteMember@KTeam@@QAEHH@Z 10044c46 f   KPlayerTeam.obj
 0001:00044066       ?CheckIn@KTeam@@QAEHHH@Z   10045066 f   KPlayerTeam.obj
 0001:00044274       ?CheckItemIn@KTeam@@QAEHH@Z 10045274 f   KPlayerTeam.obj
 0001:000442d4       ?Init@KTeamSet@@QAEXXZ     100452d4 f   KPlayerTeam.obj
 0001:00044313       ?FindFree@KTeamSet@@AAEHXZ 10045313 f   KPlayerTeam.obj
 0001:00044354       ?CreateTeam@KTeamSet@@QAEHH@Z 10045354 f   KPlayerTeam.obj
 0001:000443a0       ??0PLAYER_SEND_CREATE_TEAM_SUCCESS@@QAE@XZ 100453a0 f i KPlayerTeam.obj
 0001:000443c0       ?Init@KPlayerTong@@QAEXH@Z 100453c0 f   KPlayerTong.obj
 0001:000443dd       ?Clear@KPlayerTong@@QAEXXZ 100453dd f   KPlayerTong.obj
 0001:000444ca       ?CheckCreateCondition@KPlayerTong@@QAEHHPAD@Z 100454ca f   KPlayerTong.obj
 0001:0004469a       ?Create@KPlayerTong@@QAEHHPAD@Z 1004569a f   KPlayerTong.obj
 0001:00044862       ?TransferAddApply@KPlayerTong@@QAEHK@Z 10045862 f   KPlayerTong.obj
 0001:00044b28       ?CheckAcceptAddApplyCondition@KPlayerTong@@AAEHXZ 10045b28 f   KPlayerTong.obj
 0001:00044b5a       ?SendRefuseMessage@KPlayerTong@@QAEXHK@Z 10045b5a f   KPlayerTong.obj
 0001:00044d0d       ?GetTongName@KPlayerTong@@QAEXPAD@Z 10045d0d f   KPlayerTong.obj
 0001:00044d46       ?GetTongAgname@KPlayerTong@@QAEXPAD@Z 10045d46 f   KPlayerTong.obj
 0001:00044d7f       ?JoinTong@KPlayerTong@@QAEXPAD@Z 10045d7f f   KPlayerTong.obj
 0001:00044e01       ?JoinTongReply@KPlayerTong@@QAEXPAE@Z 10045e01 f   KPlayerTong.obj
 0001:00044f72       ?CheckJoinTong@KPlayerTong@@QAEHXZ 10045f72 f   KPlayerTong.obj
 0001:0004500e       ?CheckAddCondition@KPlayerTong@@QAEHH@Z 1004600e f   KPlayerTong.obj
 0001:000450f6       ?CheckAddConditionReply@KPlayerTong@@QAEHH@Z 100460f6 f   KPlayerTong.obj
 0001:00045405       ?AddTong@KPlayerTong@@QAEHHHKHKHHHPAD00@Z 10046405 f   KPlayerTong.obj
 0001:00045625       ?GetTongNameID@KPlayerTong@@QAEKXZ 10046625 f   KPlayerTong.obj
 0001:00045650       ?CanGetManagerInfo@KPlayerTong@@QAEHK@Z 10046650 f   KPlayerTong.obj
 0001:0004569e       ?CanGetMemberInfo@KPlayerTong@@QAEHK@Z 1004669e f   KPlayerTong.obj
 0001:000456ef       ?SendSelfInfo@KPlayerTong@@QAEXXZ 100466ef f   KPlayerTong.obj
 0001:00045894       ?CheckInstatePower@KPlayerTong@@QAEHPAUTONG_APPLY_INSTATE_COMMAND@@@Z 10046894 f   KPlayerTong.obj
 0001:00045a8e       ?CheckKickPower@KPlayerTong@@QAEHPAUTONG_APPLY_KICK_COMMAND@@@Z 10046a8e f   KPlayerTong.obj
 0001:00045b2f       ?BeInstated@KPlayerTong@@QAEXPAUSTONG_SERVER_TO_CORE_BE_INSTATED@@@Z 10046b2f f   KPlayerTong.obj
 0001:00045c8d       ?BeKicked@KPlayerTong@@QAEXPAUSTONG_SERVER_TO_CORE_BE_KICKED@@@Z 10046c8d f   KPlayerTong.obj
 0001:00045d82       ?CheckLeavePower@KPlayerTong@@QAEHPAUTONG_APPLY_LEAVE_COMMAND@@@Z 10046d82 f   KPlayerTong.obj
 0001:00045dee       ?Leave@KPlayerTong@@QAEXPAUSTONG_SERVER_TO_CORE_LEAVE@@@Z 10046dee f   KPlayerTong.obj
 0001:00046030       ?CheckChangeMasterPower@KPlayerTong@@QAEHPAUTONG_APPLY_CHANGE_MASTER_COMMAND@@@Z 10047030 f   KPlayerTong.obj
 0001:000460c3       ?CheckGetMasterPower@KPlayerTong@@QAEHXZ 100470c3 f   KPlayerTong.obj
 0001:00046160       ?CheckGetMasterPower@KPlayerTong@@QAEHPAUSTONG_SERVER_TO_CORE_CHECK_GET_MASTER_POWER@@@Z 10047160 f   KPlayerTong.obj
 0001:0004622b       ?ChangeAs@KPlayerTong@@QAEXPAUSTONG_SERVER_TO_CORE_CHANGE_AS@@@Z 1004722b f   KPlayerTong.obj
 0001:00046393       ?ChangeMaster@KPlayerTong@@QAEXPAD@Z 10047393 f   KPlayerTong.obj
 0001:000463e0       ?Login@KPlayerTong@@QAEXPAUSTONG_SERVER_TO_CORE_LOGIN@@@Z 100473e0 f   KPlayerTong.obj
 0001:00046650       ?CheckMoneyPower@KPlayerTong@@QAEHPAUTONG_APPLY_SAVE_COMMAND@@@Z 10047650 f   KPlayerTong.obj
 0001:000466e3       ?CheckSaveEffPower@KPlayerTong@@QAEHPAUTONG_APPLY_SAVE_EFF_COMMAND@@@Z 100476e3 f   KPlayerTong.obj
 0001:0004673d       ?ChangeMoney@KPlayerTong@@QAEXK@Z 1004773d f   KPlayerTong.obj
 0001:0004675e       ?ChangeTongEff@KPlayerTong@@QAEXK@Z 1004775e f   KPlayerTong.obj
 0001:0004677f       ?CheckChangeAgnamePower@KPlayerTong@@QAEHPAUTONG_APPLY_CHANGE_AGNAME_COMMAND@@@Z 1004777f f   KPlayerTong.obj
 0001:00046892       ?CheckGetAgnamePower@KPlayerTong@@QAEHPAUSTONG_SERVER_TO_CORE_CHECK_GET_AGNAME_POWER@@@Z 10047892 f   KPlayerTong.obj
 0001:0004693d       ?BeChangedAgname@KPlayerTong@@QAEXPAUSTONG_SERVER_TO_CORE_BE_CHANGED_AGNAME@@@Z 1004793d f   KPlayerTong.obj
 0001:00046968       ?CheckChangeSexAgnamePower@KPlayerTong@@QAEHPAUTONG_APPLY_CHANGE_SEX_AGNAME_COMMAND@@@Z 10047968 f   KPlayerTong.obj
 0001:00046a0b       ?CheckChangeInfo@KPlayerTong@@QAEHPAUTONG_APPLY_CHANGE_INFO_COMMAND@@@Z 10047a0b f   KPlayerTong.obj
 0001:00046a75       ?CheckChangeRecruit@KPlayerTong@@QAEHPAUTONG_CHANGE_RECRUIT_COMMAND@@@Z 10047a75 f   KPlayerTong.obj
 0001:00046adc       ?CheckChangeCampCondition@KPlayerTong@@QAEHPAUTONG_APPLY_CHANGE_CAMP_COMMAND@@@Z 10047adc f   KPlayerTong.obj
 0001:00046bd5       ?BeChangedCamp@KPlayerTong@@QAEXPAUSTONG_SERVER_TO_CORE_BE_CHANGED_CAMP@@@Z 10047bd5 f   KPlayerTong.obj
 0001:00046cbb       ?BeChangedLevel@KPlayerTong@@QAEXPAUSTONG_SERVER_TO_CORE_BE_CHANGED_LEVEL@@@Z 10047cbb f   KPlayerTong.obj
 0001:00046cdc       ?BeChangedRecruit@KPlayerTong@@QAEXPAUSTONG_SERVER_TO_CORE_BE_CHANGED_RECRUIT@@@Z 10047cdc f   KPlayerTong.obj
 0001:00046d00       ?BeChangedTongParam@KPlayerTong@@QAEXPAUSTONG_SERVER_TO_CORE_BE_CHANGED_TONGPARAM@@@Z 10047d00 f   KPlayerTong.obj
 0001:00046d1c       ?BeChangedJiyu@KPlayerTong@@QAEXPAUSTONG_SERVER_TO_CORE_BE_CHANGED_JIYU@@@Z 10047d1c f   KPlayerTong.obj
 0001:00046d88       ?BeChangedEff@KPlayerTong@@QAEXPAUSTONG_SERVER_TO_CORE_BE_CHANGED_EFF@@@Z 10047d88 f   KPlayerTong.obj
 0001:00046dc0       ??0KTrade@@QAE@XZ          10047dc0 f   KPlayerTrade.obj
 0001:00046de0       ?Release@KTrade@@QAEXXZ    10047de0 f   KPlayerTrade.obj
 0001:00046e30       ?StartTrade@KTrade@@QAEHHHHH@Z 10047e30 f   KPlayerTrade.obj
 0001:00046e87       ?Lock@KTrade@@QAEXH@Z      10047e87 f   KPlayerTrade.obj
 0001:00046ec9       ??0KTongData@@QAE@XZ       10047ec9 f   KTongData.obj
 0001:00046efd       ?Init@KTongData@@QAEHXZ    10047efd f   KTongData.obj
 0001:000471e0       ??0KOneTong@@QAE@XZ        100481e0 f   KTongData.obj
 0001:000471f7       ?Init@KOneTong@@QAEHXZ     100481f7 f   KTongData.obj
 0001:00047207       ??0KTongLevelAdd@@QAE@XZ   10048207 f   KTongData.obj
 0001:0004724b       ?Init@KTongLevelAdd@@QAEHXZ 1004824b f   KTongData.obj
 0001:00047348       ?GetExp@KTongLevelAdd@@QAEHH@Z 10048348 f   KTongData.obj
 0001:0004736f       ?GetEff@KTongLevelAdd@@QAEHH@Z 1004836f f   KTongData.obj
 0001:00047396       ?GetMemNum@KTongLevelAdd@@QAEHH@Z 10048396 f   KTongData.obj
 0001:000473e0       ?LoadRecord@@YAHPAVKTabFile@@HPBUtagPROPINFO@@H@Z 100483e0 f   KBasPropTbl.obj
 0001:000474a8       ??0KLibOfBPT@@QAE@XZ       100484a8 f   KBasPropTbl.obj
 0001:000476db       ??1KLibOfBPT@@QAE@XZ       100486db f   KBasPropTbl.obj
 0001:00047901       ?Init@KLibOfBPT@@QAEHXZ    10048901 f   KBasPropTbl.obj
 0001:00047acb       ?InitMAIT@KLibOfBPT@@IAEHXZ 10048acb f   KBasPropTbl.obj
 0001:00047c74       ?InitMALib@KLibOfBPT@@IAEHXZ 10048c74 f   KBasPropTbl.obj
 0001:00047db1       ?GetGoldEquipRecord@KLibOfBPT@@QBEPBUKBASICPROP_EQUIPMENT_GOLD@@H@Z 10048db1 f   KBasPropTbl.obj
 0001:00047dd0       ?GetGoldEquipNumber@KLibOfBPT@@QBE?BHXZ 10048dd0 f   KBasPropTbl.obj
 0001:00047de9       ?GetPlatinaEquipRecord@KLibOfBPT@@QBEPBUKBASICPROP_EQUIPMENT_PLATINA@@H@Z 10048de9 f   KBasPropTbl.obj
 0001:00047e08       ?GetPlatinaEquipNumber@KLibOfBPT@@QBE?BHXZ 10048e08 f   KBasPropTbl.obj
 0001:00047e21       ?GetCMAT@KLibOfBPT@@QBEPBVKBPT_ClassifiedMAT@@HH@Z 10048e21 f   KBasPropTbl.obj
 0001:00047e69       ?GetCMIT@KLibOfBPT@@QBEPBVKBPT_ClassMAIT@@HHHH@Z 10048e69 f   KBasPropTbl.obj
 0001:00047ef0       ?GetMARecord@KLibOfBPT@@QBEPBUKMAGICATTRIB_TABFILE@@H@Z 10048ef0 f   KBasPropTbl.obj
 0001:00047f0f       ?GetMARecordNumber@KLibOfBPT@@QBE?BHXZ 10048f0f f   KBasPropTbl.obj
 0001:00047f28       ?GetMeleeWeaponRecord@KLibOfBPT@@QBEPBUKBASICPROP_EQUIPMENT@@H@Z 10048f28 f   KBasPropTbl.obj
 0001:00047f47       ?GetMeleeWeaponRecordNumber@KLibOfBPT@@QBE?BHXZ 10048f47 f   KBasPropTbl.obj
 0001:00047f60       ?GetRangeWeaponRecord@KLibOfBPT@@QBEPBUKBASICPROP_EQUIPMENT@@H@Z 10048f60 f   KBasPropTbl.obj
 0001:00047f7f       ?GetRangeWeaponRecordNumber@KLibOfBPT@@QBE?BHXZ 10048f7f f   KBasPropTbl.obj
 0001:00047f98       ?GetArmorRecord@KLibOfBPT@@QBEPBUKBASICPROP_EQUIPMENT@@H@Z 10048f98 f   KBasPropTbl.obj
 0001:00047fb7       ?GetArmorRecordNumber@KLibOfBPT@@QBE?BHXZ 10048fb7 f   KBasPropTbl.obj
 0001:00047fd0       ?GetHelmRecord@KLibOfBPT@@QBEPBUKBASICPROP_EQUIPMENT@@H@Z 10048fd0 f   KBasPropTbl.obj
 0001:00047fef       ?GetHelmRecordNumber@KLibOfBPT@@QBE?BHXZ 10048fef f   KBasPropTbl.obj
 0001:00048008       ?GetBootRecord@KLibOfBPT@@QBEPBUKBASICPROP_EQUIPMENT@@H@Z 10049008 f   KBasPropTbl.obj
 0001:00048027       ?GetBootRecordNumber@KLibOfBPT@@QBE?BHXZ 10049027 f   KBasPropTbl.obj
 0001:00048040       ?GetBeltRecord@KLibOfBPT@@QBEPBUKBASICPROP_EQUIPMENT@@H@Z 10049040 f   KBasPropTbl.obj
 0001:0004805f       ?GetBeltRecordNumber@KLibOfBPT@@QBE?BHXZ 1004905f f   KBasPropTbl.obj
 0001:00048078       ?GetAmuletRecord@KLibOfBPT@@QBEPBUKBASICPROP_EQUIPMENT@@H@Z 10049078 f   KBasPropTbl.obj
 0001:00048097       ?GetAmuletRecordNumber@KLibOfBPT@@QBE?BHXZ 10049097 f   KBasPropTbl.obj
 0001:000480b0       ?GetRingRecord@KLibOfBPT@@QBEPBUKBASICPROP_EQUIPMENT@@H@Z 100490b0 f   KBasPropTbl.obj
 0001:000480cf       ?GetRingRecordNumber@KLibOfBPT@@QBE?BHXZ 100490cf f   KBasPropTbl.obj
 0001:000480e8       ?GetCuffRecord@KLibOfBPT@@QBEPBUKBASICPROP_EQUIPMENT@@H@Z 100490e8 f   KBasPropTbl.obj
 0001:00048107       ?GetCuffRecordNumber@KLibOfBPT@@QBE?BHXZ 10049107 f   KBasPropTbl.obj
 0001:00048120       ?GetPendantRecord@KLibOfBPT@@QBEPBUKBASICPROP_EQUIPMENT@@H@Z 10049120 f   KBasPropTbl.obj
 0001:0004813f       ?GetPendantRecordNumber@KLibOfBPT@@QBE?BHXZ 1004913f f   KBasPropTbl.obj
 0001:00048158       ?GetHorseRecord@KLibOfBPT@@QBEPBUKBASICPROP_EQUIPMENT@@H@Z 10049158 f   KBasPropTbl.obj
 0001:00048177       ?GetHorseRecordNumber@KLibOfBPT@@QBE?BHXZ 10049177 f   KBasPropTbl.obj
 0001:00048190       ?GetMedicineRecord@KLibOfBPT@@QBEPBUKBASICPROP_MEDICINE@@H@Z 10049190 f   KBasPropTbl.obj
 0001:000481a9       ?GetMedicineRecordNumber@KLibOfBPT@@QBE?BHXZ 100491a9 f   KBasPropTbl.obj
 0001:000481bc       ?GetQuestRecord@KLibOfBPT@@QBEPBUKBASICPROP_QUEST@@H@Z 100491bc f   KBasPropTbl.obj
 0001:000481db       ?GetQuestRecordNumber@KLibOfBPT@@QBE?BHXZ 100491db f   KBasPropTbl.obj
 0001:000481f4       ?GetTownPortalRecord@KLibOfBPT@@QBEPBUKBASICPROP_TOWNPORTAL@@H@Z 100491f4 f   KBasPropTbl.obj
 0001:00048213       ?GetTownPortalRecordNumber@KLibOfBPT@@QBE?BHXZ 10049213 f   KBasPropTbl.obj
 0001:0004822c       ?GetMagicScript@KLibOfBPT@@QBEPBUKBASICPROP_MAGICSCRIPT@@H@Z 1004922c f   KBasPropTbl.obj
 0001:0004824b       ?GetMagicScriptRecordNumber@KLibOfBPT@@QBE?BHXZ 1004924b f   KBasPropTbl.obj
 0001:00048264       ?GetMaskRecord@KLibOfBPT@@QBEPBUKBASICPROP_EQUIPMENT@@H@Z 10049264 f   KBasPropTbl.obj
 0001:00048283       ?GetMaskRecordNumber@KLibOfBPT@@QBE?BHXZ 10049283 f   KBasPropTbl.obj
 0001:0004829c       ?GetMantleRecord@KLibOfBPT@@QBEPBUKBASICPROP_EQUIPMENT@@H@Z 1004929c f   KBasPropTbl.obj
 0001:000482bb       ?GetMantleRecordNumber@KLibOfBPT@@QBE?BHXZ 100492bb f   KBasPropTbl.obj
 0001:000482d4       ?GetSignetRecord@KLibOfBPT@@QBEPBUKBASICPROP_EQUIPMENT@@H@Z 100492d4 f   KBasPropTbl.obj
 0001:000482f3       ?GetSignetRecordNumber@KLibOfBPT@@QBE?BHXZ 100492f3 f   KBasPropTbl.obj
 0001:0004830c       ?GetShipinRecord@KLibOfBPT@@QBEPBUKBASICPROP_EQUIPMENT@@H@Z 1004930c f   KBasPropTbl.obj
 0001:0004832b       ?GetShipinRecordNumber@KLibOfBPT@@QBE?BHXZ 1004932b f   KBasPropTbl.obj
 0001:00048344       ?GetHoodsRecord@KLibOfBPT@@QBEPBUKBASICPROP_EQUIPMENT@@H@Z 10049344 f   KBasPropTbl.obj
 0001:00048363       ?GetHoodsRecordNumber@KLibOfBPT@@QBE?BHXZ 10049363 f   KBasPropTbl.obj
 0001:0004837c       ?GetCloakRecord@KLibOfBPT@@QBEPBUKBASICPROP_EQUIPMENT@@H@Z 1004937c f   KBasPropTbl.obj
 0001:0004839b       ?GetCloakRecordNumber@KLibOfBPT@@QBE?BHXZ 1004939b f   KBasPropTbl.obj
 0001:000483b4       ?FindEquipmentUnique@KLibOfBPT@@QBEPBUKBASICPROP_EQUIPMENT_PLATINA@@HHH@Z 100493b4 f   KBasPropTbl.obj
 0001:000483c3       ?FindMedicine@KLibOfBPT@@QBEPBUKBASICPROP_MEDICINE@@HH@Z 100493c3 f   KBasPropTbl.obj
 0001:000483d2       ?GetEvent@KLibOfBPT@@QBEPBUKBASICPROP_EVENTITEM@@H@Z 100493d2 f   KBasPropTbl.obj
 0001:000483f1       ?GetEventRecordNumber@KLibOfBPT@@QBE?BHXZ 100493f1 f   KBasPropTbl.obj
 0001:0004840a       ??0KBasicPropertyTable@@QAE@XZ 1004940a f   KBasPropTbl.obj
 0001:00048446       ??1KBasicPropertyTable@@QAE@XZ 10049446 f   KBasPropTbl.obj
 0001:00048462       ?SetCount@KBasicPropertyTable@@IAEXH@Z 10049462 f   KBasPropTbl.obj
 0001:00048478       ?GetMemory@KBasicPropertyTable@@IAEHXZ 10049478 f   KBasPropTbl.obj
 0001:000484ca       ?ReleaseMemory@KBasicPropertyTable@@IAEXXZ 100494ca f   KBasPropTbl.obj
 0001:00048509       ?Load@KBasicPropertyTable@@UAEHXZ 10049509 f   KBasPropTbl.obj
 0001:000486be       ??0KBPT_Event@@QAE@XZ      100496be f   KBasPropTbl.obj
 0001:000486fb       ??1KBPT_Event@@QAE@XZ      100496fb f   KBasPropTbl.obj
 0001:00048717       ?LoadRecord@KBPT_Event@@MAEHHPAVKTabFile@@@Z 10049717 f   KBasPropTbl.obj
 0001:00048897       ?GetRecord@KBPT_Event@@QBEPBUKBASICPROP_EVENTITEM@@H@Z 10049897 f   KBasPropTbl.obj
 0001:000488f4       ?FindRecord@KBPT_Event@@QBEPBUKBASICPROP_EVENTITEM@@H@Z 100498f4 f   KBasPropTbl.obj
 0001:0004894e       ??0KBPT_MagicScript@@QAE@XZ 1004994e f   KBasPropTbl.obj
 0001:0004898b       ??1KBPT_MagicScript@@QAE@XZ 1004998b f   KBasPropTbl.obj
 0001:000489a7       ?LoadRecord@KBPT_MagicScript@@MAEHHPAVKTabFile@@@Z 100499a7 f   KBasPropTbl.obj
 0001:00048b27       ?GetRecord@KBPT_MagicScript@@QBEPBUKBASICPROP_MAGICSCRIPT@@H@Z 10049b27 f   KBasPropTbl.obj
 0001:00048b84       ?FindRecord@KBPT_MagicScript@@QBEPBUKBASICPROP_MAGICSCRIPT@@H@Z 10049b84 f   KBasPropTbl.obj
 0001:00048bde       ??0KBPT_TownPortal@@QAE@XZ 10049bde f   KBasPropTbl.obj
 0001:00048c1b       ??1KBPT_TownPortal@@QAE@XZ 10049c1b f   KBasPropTbl.obj
 0001:00048c37       ?LoadRecord@KBPT_TownPortal@@MAEHHPAVKTabFile@@@Z 10049c37 f   KBasPropTbl.obj
 0001:00048db7       ?GetRecord@KBPT_TownPortal@@QBEPBUKBASICPROP_TOWNPORTAL@@H@Z 10049db7 f   KBasPropTbl.obj
 0001:00048df7       ??0KBPT_Quest@@QAE@XZ      10049df7 f   KBasPropTbl.obj
 0001:00048e34       ??1KBPT_Quest@@QAE@XZ      10049e34 f   KBasPropTbl.obj
 0001:00048e50       ?LoadRecord@KBPT_Quest@@MAEHHPAVKTabFile@@@Z 10049e50 f   KBasPropTbl.obj
 0001:00048fae       ?GetRecord@KBPT_Quest@@QBEPBUKBASICPROP_QUEST@@H@Z 10049fae f   KBasPropTbl.obj
 0001:00048fee       ?FindRecord@KBPT_Quest@@QBEPBUKBASICPROP_QUEST@@H@Z 10049fee f   KBasPropTbl.obj
 0001:00049048       ??0KBPT_Medicine@@QAE@XZ   1004a048 f   KBasPropTbl.obj
 0001:00049085       ??1KBPT_Medicine@@QAE@XZ   1004a085 f   KBasPropTbl.obj
 0001:000490a1       ?LoadRecord@KBPT_Medicine@@MAEHHPAVKTabFile@@@Z 1004a0a1 f   KBasPropTbl.obj
 0001:00049311       ?GetRecord@KBPT_Medicine@@QBEPBUKBASICPROP_MEDICINE@@H@Z 1004a311 f   KBasPropTbl.obj
 0001:00049351       ?FindRecord@KBPT_Medicine@@QBEPBUKBASICPROP_MEDICINE@@HH@Z 1004a351 f   KBasPropTbl.obj
 0001:000493b9       ??0KBPT_Equipment@@QAE@XZ  1004a3b9 f   KBasPropTbl.obj
 0001:000493e2       ??1KBPT_Equipment@@QAE@XZ  1004a3e2 f   KBasPropTbl.obj
 0001:000493fe       ?Init@KBPT_Equipment@@QAEXH@Z 1004a3fe f   KBasPropTbl.obj
 0001:00049425       ?LoadRecord@KBPT_Equipment@@MAEHHPAVKTabFile@@@Z 1004a425 f   KBasPropTbl.obj
 0001:00049a1a       ?GetRecord@KBPT_Equipment@@QBEPBUKBASICPROP_EQUIPMENT@@H@Z 1004aa1a f   KBasPropTbl.obj
 0001:00049a5a       ?FindRecord@KBPT_Equipment@@QBEPBUKBASICPROP_EQUIPMENT@@HHH@Z 1004aa5a f   KBasPropTbl.obj
 0001:00049acd       ??0KBPT_Equipment_Gold@@QAE@XZ 1004aacd f   KBasPropTbl.obj
 0001:00049af6       ??1KBPT_Equipment_Gold@@UAE@XZ 1004aaf6 f   KBasPropTbl.obj
 0001:00049b12       ?LoadRecord@KBPT_Equipment_Gold@@MAEHHPAVKTabFile@@@Z 1004ab12 f   KBasPropTbl.obj
 0001:0004a2a7       ?GetRecord@KBPT_Equipment_Gold@@QBEPBUKBASICPROP_EQUIPMENT_GOLD@@H@Z 1004b2a7 f   KBasPropTbl.obj
 0001:0004a2e7       ?FindRecord@KBPT_Equipment_Gold@@QBEPBUKBASICPROP_EQUIPMENT_GOLD@@HHH@Z 1004b2e7 f   KBasPropTbl.obj
 0001:0004a362       ?Init@KBPT_Equipment_Gold@@QAEXXZ 1004b362 f   KBasPropTbl.obj
 0001:0004a381       ??0KBPT_Equipment_Platina@@QAE@XZ 1004b381 f   KBasPropTbl.obj
 0001:0004a3aa       ??1KBPT_Equipment_Platina@@UAE@XZ 1004b3aa f   KBasPropTbl.obj
 0001:0004a3c6       ?LoadRecord@KBPT_Equipment_Platina@@MAEHHPAVKTabFile@@@Z 1004b3c6 f   KBasPropTbl.obj
 0001:0004ac2b       ?GetRecord@KBPT_Equipment_Platina@@QBEPBUKBASICPROP_EQUIPMENT_PLATINA@@H@Z 1004bc2b f   KBasPropTbl.obj
 0001:0004ac6b       ?FindRecord@KBPT_Equipment_Platina@@QBEPBUKBASICPROP_EQUIPMENT_PLATINA@@HHH@Z 1004bc6b f   KBasPropTbl.obj
 0001:0004ace6       ?Init@KBPT_Equipment_Platina@@QAEXXZ 1004bce6 f   KBasPropTbl.obj
 0001:0004ad05       ??0KBPT_MagicAttrib_TF@@QAE@XZ 1004bd05 f   KBasPropTbl.obj
 0001:0004ad57       ??1KBPT_MagicAttrib_TF@@QAE@XZ 1004bd57 f   KBasPropTbl.obj
 0001:0004ad73       ?LoadRecord@KBPT_MagicAttrib_TF@@MAEHHPAVKTabFile@@@Z 1004bd73 f   KBasPropTbl.obj
 0001:0004b117       ?GetRecord@KBPT_MagicAttrib_TF@@QBEPBUKMAGICATTRIB_TABFILE@@H@Z 1004c117 f   KBasPropTbl.obj
 0001:0004b157       ?GetMACount@KBPT_MagicAttrib_TF@@QBEXPAH@Z 1004c157 f   KBasPropTbl.obj
 0001:0004b17b       ??0KBPT_ClassMAIT@@QAE@XZ  1004c17b f   KBasPropTbl.obj
 0001:0004b1a6       ??1KBPT_ClassMAIT@@QAE@XZ  1004c1a6 f   KBasPropTbl.obj
 0001:0004b1ec       ?Clear@KBPT_ClassMAIT@@QAEHXZ 1004c1ec f   KBasPropTbl.obj
 0001:0004b206       ?Get@KBPT_ClassMAIT@@QBEHH@Z 1004c206 f   KBasPropTbl.obj
 0001:0004b21e       ?Insert@KBPT_ClassMAIT@@QAEHH@Z 1004c21e f   KBasPropTbl.obj
 0001:0004b325       ??0KBPT_ClassifiedMAT@@QAE@XZ 1004c325 f   KBasPropTbl.obj
 0001:0004b350       ??1KBPT_ClassifiedMAT@@QAE@XZ 1004c350 f   KBasPropTbl.obj
 0001:0004b363       ?GetMemory@KBPT_ClassifiedMAT@@QAEHH@Z 1004c363 f   KBasPropTbl.obj
 0001:0004b3b2       ?ReleaseMemory@KBPT_ClassifiedMAT@@IAEXXZ 1004c3b2 f   KBasPropTbl.obj
 0001:0004b3ee       ?Set@KBPT_ClassifiedMAT@@QAEHH@Z 1004c3ee f   KBasPropTbl.obj
 0001:0004b420       ?Get@KBPT_ClassifiedMAT@@QBEHH@Z 1004c420 f   KBasPropTbl.obj
 0001:0004b45a       ?GetAll@KBPT_ClassifiedMAT@@QBEHPAH0@Z 1004c45a f   KBasPropTbl.obj
 0001:0004b4d0       ?NumOfEntries@KBasicPropertyTable@@QBEHXZ 1004c4d0 f i KBasPropTbl.obj
 0001:0004b4f0       ?GetRecordCount@KBPT_Equipment_Gold@@QBEHXZ 1004c4f0 f i KBasPropTbl.obj
 0001:0004b510       ?GetRecordCount@KBPT_Equipment_Platina@@QBEHXZ 1004c510 f i KBasPropTbl.obj
 0001:0004b530       ??_EKBPT_Equipment_Gold@@UAEPAXI@Z 1004c530 f i KBasPropTbl.obj
 0001:0004b530       ??_GKBPT_Equipment_Gold@@UAEPAXI@Z 1004c530 f i KBasPropTbl.obj
 0001:0004b560       ??_EKBPT_Equipment_Platina@@UAEPAXI@Z 1004c560 f i KBasPropTbl.obj
 0001:0004b560       ??_GKBPT_Equipment_Platina@@UAEPAXI@Z 1004c560 f i KBasPropTbl.obj
 0001:0004b5cf       ??0KBuySell@@QAE@XZ        1004c5cf f   KBuySell.obj
 0001:0004b60e       ??1KBuySell@@QAE@XZ        1004c60e f   KBuySell.obj
 0001:0004b6f2       ?Init@KBuySell@@QAEHXZ     1004c6f2 f   KBuySell.obj
 0001:0004bf30       ?GetItem@KBuySell@@QAEPAVKItem@@H@Z 1004cf30 f   KBuySell.obj
 0001:0004bf6c       ?GetItemIndex@KBuySell@@QAEHHH@Z 1004cf6c f   KBuySell.obj
 0001:0004bfcc       ?BuySellCheck@KBuySell@@QAEHHH@Z 1004cfcc f   KBuySell.obj
 0001:0004c033       ?CanBuy@KBuySell@@QAEHHHHH@Z 1004d033 f   KBuySell.obj
 0001:0004c3cd       ?Buy@KBuySell@@QAEHHHHE@Z  1004d3cd f   KBuySell.obj
 0001:0004c874       ?Sell@KBuySell@@QAEHHHHH@Z 1004d874 f   KBuySell.obj
 0001:0004cad7       ?OpenSale@KBuySell@@QAEXHHH@Z 1004dad7 f   KBuySell.obj
 0001:0004cc1c       ?OpenSale@KBuySell@@QAEXHHHHPAH@Z 1004dc1c f   KBuySell.obj
 0001:0004cd90       ??_EKItem@@QAEPAXI@Z       1004dd90 f i KBuySell.obj
 0001:0004ce10       ?SetExpirePoint@KItem@@QAEXH@Z 1004de10 f i KBuySell.obj
 0001:0004ce30       ?LockItem@KItem@@QAEXH@Z   1004de30 f i KBuySell.obj
 0001:0004ce80       ?SetNewPrice@KItem@@QAEXH@Z 1004de80 f i KBuySell.obj
 0001:0004cea0       ?SetNewArrival@KItem@@QAEXH@Z 1004dea0 f i KBuySell.obj
 0001:0004cec0       ?GetCurPrice@KItem@@QBEHXZ 1004dec0 f i KBuySell.obj
 0001:0004cef0       ?GetExpirePoint@KItem@@QBEHXZ 1004def0 f i KBuySell.obj
 0001:0004cf10       ?GetGameVersion@KSubWorldSet@@QAEHXZ 1004df10 f i KBuySell.obj
 0001:0004cf30       ?GetLockSell@KItem@@QAEHXZ 1004df30 f i KBuySell.obj
 0001:0004cf60       ??0KInventory@@QAE@XZ      1004df60 f   KInventory.obj
 0001:0004cf8b       ??1KInventory@@QAE@XZ      1004df8b f   KInventory.obj
 0001:0004cf9e       ?Init@KInventory@@QAEHHH@Z 1004df9e f   KInventory.obj
 0001:0004d02e       ?Release@KInventory@@QAEXXZ 1004e02e f   KInventory.obj
 0001:0004d07e       ?Clear@KInventory@@QAEXXZ  1004e07e f   KInventory.obj
 0001:0004d0bc       ?ClearItem@KInventory@@QAEXXZ 1004e0bc f   KInventory.obj
 0001:0004d0f0       ?PlaceItem@KInventory@@QAEHHHHHH@Z 1004e0f0 f   KInventory.obj
 0001:0004d238       ?HoldItem@KInventory@@QAEHHHH@Z 1004e238 f   KInventory.obj
 0001:0004d2ba       ?PickUpItem@KInventory@@QAEHHHHHH@Z 1004e2ba f   KInventory.obj
 0001:0004d3b8       ?FindItem@KInventory@@QAEHHH@Z 1004e3b8 f   KInventory.obj
 0001:0004d48d       ?FindFreeCell@KInventory@@QAEHHH@Z 1004e48d f   KInventory.obj
 0001:0004d558       ?FindRoom@KInventory@@QAEHHHPAUtagPOINT@@@Z 1004e558 f   KInventory.obj
 0001:0004d630       ?CheckRoom@KInventory@@QAEHHHHH@Z 1004e630 f   KInventory.obj
 0001:0004d6ea       ?AddMoney@KInventory@@QAEHH@Z 1004e6ea f   KInventory.obj
 0001:0004d71c       ?GetNextItem@KInventory@@QAEHHHHPAH0@Z 1004e71c f   KInventory.obj
 0001:0004d818       ?CalcSameDetailType@KInventory@@QAEHHHHHH@Z 1004e818 f   KInventory.obj
 0001:0004d9a3       ?FindEmptyPlace@KInventory@@QAEHHHPAUtagPOINT@@@Z 1004e9a3 f   KInventory.obj
 0001:0004db11       ?FindSameToRemove@KInventory@@QAEHHHHHHPAH@Z 1004eb11 f   KInventory.obj
 0001:0004dc3a       ?CheckSameImmediacyItem@KInventory@@QAEHH@Z 1004ec3a f   KInventory.obj
 0001:0004dd97       ?FindSameItem@KInventory@@QAEHHHHHPAH00@Z 1004ed97 f   KInventory.obj
 0001:0004debd       ?FindSameItemToStack@KInventory@@QAEHHPAH00@Z 1004eebd f   KInventory.obj
 0001:0004e28b       ?FindSameItemToMove@KInventory@@QAEHHPAH00@Z 1004f28b f   KInventory.obj
 0001:0004e5d0       ?GetMaxStackNum@KItem@@QBEHXZ 1004f5d0 f i KInventory.obj
 0001:0004e652       ??0KItem@@QAE@XZ           1004f652 f   KItem.obj
 0001:0004e75d       ??1KItem@@QAE@XZ           1004f75d f   KItem.obj
 0001:0004e776       ?GetRequirement@KItem@@QAEPAXH@Z 1004f776 f   KItem.obj
 0001:0004e7a5       ?ApplyMagicAttribToNPC@KItem@@QBEXPAVKNpc@@HH@Z 1004f7a5 f   KItem.obj
 0001:0004e8aa       ?RemoveMagicAttribFromNPC@KItem@@QBEXPAVKNpc@@HH@Z 1004f8aa f   KItem.obj
 0001:0004ea6a       ?ApplyHiddenMagicAttribToNPC@KItem@@QBEXPAVKNpc@@H@Z 1004fa6a f   KItem.obj
 0001:0004eab3       ?RemoveHiddenMagicAttribFromNPC@KItem@@QBEXPAVKNpc@@H@Z 1004fab3 f   KItem.obj
 0001:0004eb2d       ?SetAttrib_CBR@KItem@@AAEHPBUKBASICPROP_EQUIPMENT@@@Z 1004fb2d f   KItem.obj
 0001:0004eb83       ?SetAttrib_CBR@KItem@@AAEHPBUKBASICPROP_EQUIPMENT_GOLD@@@Z 1004fb83 f   KItem.obj
 0001:0004ebd9       ?SetAttrib_CBR@KItem@@AAEHPBUKBASICPROP_EQUIPMENT_PLATINA@@@Z 1004fbd9 f   KItem.obj
 0001:0004ec2f       ?SetAttrib_Base@KItem@@AAEHPBUKEQCP_BASIC@@@Z 1004fc2f f   KItem.obj
 0001:0004ecca       ?SetAttrib_Req@KItem@@AAEHPBUKEQCP_REQ@@@Z 1004fcca f   KItem.obj
 0001:0004ed3a       ?SetAttrib_MA@KItem@@AAEHPBUKMagicAttrib@@@Z 1004fd3a f   KItem.obj
 0001:0004edc0       ?SetAttrib_MA@KItem@@AAEHPBUKMACP@@@Z 1004fdc0 f   KItem.obj
 0001:0004ee81       ??4KItem@@AAEXABUKBASICPROP_EQUIPMENT@@@Z 1004fe81 f   KItem.obj
 0001:0004f091       ??4KItem@@AAEXABUKBASICPROP_EVENTITEM@@@Z 10050091 f   KItem.obj
 0001:0004f2eb       ??4KItem@@AAEXABUKBASICPROP_QUEST@@@Z 100502eb f   KItem.obj
 0001:0004f530       ??4KItem@@AAEXABUKBASICPROP_TOWNPORTAL@@@Z 10050530 f   KItem.obj
 0001:0004f75f       ??4KItem@@AAEXABUKBASICPROP_MAGICSCRIPT@@@Z 1005075f f   KItem.obj
 0001:0004f9ab       ??4KItem@@AAEXABUKBASICPROP_MEDICINE@@@Z 100509ab f   KItem.obj
 0001:0004fc5b       ??4KItem@@AAEXABUKBASICPROP_EQUIPMENT_PLATINA@@@Z 10050c5b f   KItem.obj
 0001:0004fe7f       ??4KItem@@AAEXABUKBASICPROP_EQUIPMENT_GOLD@@@Z 10050e7f f   KItem.obj
 0001:000500a3       ?Remove@KItem@@QAEXXZ      100510a3 f   KItem.obj
 0001:000500bb       ?SetBaseAttrib@KItem@@QAEHPBUKMagicAttrib@@@Z 100510bb f   KItem.obj
 0001:0005011f       ?SetRequireAttrib@KItem@@QAEHPBUKMagicAttrib@@@Z 1005111f f   KItem.obj
 0001:00050185       ?SetMagicAttrib@KItem@@QAEHPBUKMagicAttrib@@@Z 10051185 f   KItem.obj
 0001:0005019e       ?Abrade@KItem@@QAEHHH@Z    1005119e f   KItem.obj
 0001:00050247       ?SetDurability@KItem@@QAEXH@Z 10051247 f   KItem.obj
 0001:00050260       ?GetMaxDurability@KItem@@QAEHXZ 10051260 f   KItem.obj
 0001:000502a8       ?GetTotalMagicLevel@KItem@@QAEHXZ 100512a8 f   KItem.obj
 0001:000502ec       ?IsReduce@KItem@@QAEHXZ    100512ec f   KItem.obj
 0001:0005032c       ?GetRepairPrice@KItem@@QAEHXZ 1005132c f   KItem.obj
 0001:00050452       ?CanBeRepaired@KItem@@QAEHXZ 10051452 f   KItem.obj
 0001:000504a1       ?CanShortKey@KItem@@QAEHXZ 100514a1 f   KItem.obj
 0001:000504d1       ?GetParticularMelee@KItem@@QAEHXZ 100514d1 f   KItem.obj
 0001:000505a8       ?GetQuality@KItem@@QAEHXZ  100515a8 f   KItem.obj
 0001:0005061e       ?GetSalePrice@KItem@@QAEHXZ 1005161e f   KItem.obj
 0001:00050680       ??0KItemCommonAttrib@@QAE@XZ 10051680 f i KItem.obj
 0001:000506a0       ??1KItemCommonAttrib@@QAE@XZ 100516a0 f i KItem.obj
 0001:000506ff       ?Init@KItemChangeRes@@QAEHXZ 100516ff f   KItemChangeRes.obj
 0001:00050809       ?GetWeaponRes@KItemChangeRes@@QAEHHHHI@Z 10051809 f   KItemChangeRes.obj
 0001:000508e5       ?GetArmorRes@KItemChangeRes@@QAEHHH@Z 100518e5 f   KItemChangeRes.obj
 0001:0005094c       ?GetHelmRes@KItemChangeRes@@QAEHHH@Z 1005194c f   KItemChangeRes.obj
 0001:000509b3       ?GetHorseRes@KItemChangeRes@@QAEHHH@Z 100519b3 f   KItemChangeRes.obj
 0001:000509fe       ?GetGoldItemRes@KItemChangeRes@@QAEHHHI@Z 100519fe f   KItemChangeRes.obj
 0001:00050aba       ?GetHoodsRes@KItemChangeRes@@QAEHH@Z 10051aba f   KItemChangeRes.obj
 0001:00050af9       ?GetCloakRes@KItemChangeRes@@QAEHH@Z 10051af9 f   KItemChangeRes.obj
 0001:00050b40       ??1KItemChangeRes@@QAE@XZ  10051b40 f i KItemChangeRes.obj
 0001:00050c00       ??0KItemChangeRes@@QAE@XZ  10051c00 f i KItemChangeRes.obj
 0001:00050cff       ??0KItemGenerator@@QAE@XZ  10051cff f   KItemGenerator.obj
 0001:00050d15       ??1KItemGenerator@@QAE@XZ  10051d15 f   KItemGenerator.obj
 0001:00050d28       ?Init@KItemGenerator@@QAEHXZ 10051d28 f   KItemGenerator.obj
 0001:00050f83       ?Gen_Medicine@KItemGenerator@@QAEHHHHPAVKItem@@@Z 10051f83 f   KItemGenerator.obj
 0001:0005100a       ?Gen_Equipment@KItemGenerator@@QAEHHHHHHPBHHHPAVKItem@@@Z 1005200a f   KItemGenerator.obj
 0001:00051458       ?Gen_GoldEquipment@KItemGenerator@@QAEHHPBHHPAVKItem@@@Z 10052458 f   KItemGenerator.obj
 0001:00051a3f       ?Gen_PlatinaEquipment@KItemGenerator@@QAEHHPBHHPAVKItem@@@Z 10052a3f f   KItemGenerator.obj
 0001:00052026       ?Gen_MagicAttrib@KItemGenerator@@AAEHHPBHHHPAUKMagicAttrib@@H@Z 10053026 f   KItemGenerator.obj
 0001:00052496       ?GMA_GetAvaliableMA@KItemGenerator@@AAEHH@Z 10053496 f   KItemGenerator.obj
 0001:0005251c       ?GMA_GetLevelAndDropRate@KItemGenerator@@AAEHH@Z 1005351c f   KItemGenerator.obj
 0001:000525f0       ?GMA_ChooseMA@KItemGenerator@@AAEXHHHPAUKMagicAttrib@@@Z 100535f0 f   KItemGenerator.obj
 0001:00052746       ?GetMARecord@KItemGenerator@@ABEPBUKMAGICATTRIB_TABFILE@@H@Z 10053746 f   KItemGenerator.obj
 0001:0005275f       ?GMA_GetCandidateMA@KItemGenerator@@AAEHHHH@Z 1005375f f   KItemGenerator.obj
 0001:00052812       ?GetMedicineCommonAttrib@KItemGenerator@@QAEHHHPAVKItem@@@Z 10053812 f   KItemGenerator.obj
 0001:0005286c       ?GetEquipmentCommonAttrib@KItemGenerator@@QAEHHHHHPAVKItem@@@Z 1005386c f   KItemGenerator.obj
 0001:00052a89       ?Gen_ExistEquipment@KItemGenerator@@QAEHHHHHHPBHHHPAVKItem@@@Z 10053a89 f   KItemGenerator.obj
 0001:00052eb1       ?Gen_Quest@KItemGenerator@@QAEHHPAVKItem@@@Z 10053eb1 f   KItemGenerator.obj
 0001:00052f0e       ?Gen_TownPortal@KItemGenerator@@QAEHHPAVKItem@@@Z 10053f0e f   KItemGenerator.obj
 0001:00052f6b       ?Gen_MagicScript@KItemGenerator@@QAEHHPAVKItem@@HHH@Z 10053f6b f   KItemGenerator.obj
 0001:00053009       ?Gen_Event@KItemGenerator@@QAEHHPAVKItem@@@Z 10054009 f   KItemGenerator.obj
 0001:00053070       ?SetSeries@KItem@@QAEXH@Z  10054070 f i KItemGenerator.obj
 0001:00053090       ?SetLevel@KItem@@QAEXH@Z   10054090 f i KItemGenerator.obj
 0001:000530b0       ?SetNature@KItem@@QAEXH@Z  100540b0 f i KItemGenerator.obj
 0001:000530d0       ?GetCount@KBPT_ClassMAIT@@QBEHXZ 100540d0 f i KItemGenerator.obj
 0001:000530f0       ??0KItemList@@QAE@XZ       100540f0 f   KItemList.obj
 0001:00053176       ??1KItemList@@QAE@XZ       10054176 f   KItemList.obj
 0001:000531e1       ?GetWeaponType@KItemList@@QAEHXZ 100541e1 f   KItemList.obj
 0001:00053217       ?GetWeaponDamage@KItemList@@QAEXPAH0@Z 10054217 f   KItemList.obj
 0001:00053391       ?SearchPosition@KItemList@@QAEHHHPAUItemPos@@_N@Z 10054391 f   KItemList.obj
 0001:00053494       ?SearchPosition@KItemList@@QAEHUtagPOINT@@PAUItemPos@@@Z 10054494 f   KItemList.obj
 0001:00053544       ?Add@KItemList@@QAEHHUtagPOINT@@_N@Z 10054544 f   KItemList.obj
 0001:0005358b       ?Add@KItemList@@QAEHHHHH_N@Z 1005458b f   KItemList.obj
 0001:00053f55       ?Remove@KItemList@@QAEHH@Z 10054f55 f   KItemList.obj
 0001:00054647       ?FindFree@KItemList@@AAEHXZ 10055647 f   KItemList.obj
 0001:00054660       ?FindSame@KItemList@@QAEHH@Z 10055660 f   KItemList.obj
 0001:000546b5       ?FindSame@KItemList@@QAEHK@Z 100556b5 f   KItemList.obj
 0001:0005471b       ?Init@KItemList@@QAEHH@Z   1005571b f   KItemList.obj
 0001:000548d4       ?CanEquip@KItemList@@QAEHHH@Z 100558d4 f   KItemList.obj
 0001:000549ba       ?CanEquip@KItemList@@QAEHPAVKItem@@H@Z 100559ba f   KItemList.obj
 0001:00054a67       ?EnoughAttrib@KItemList@@QAEHPAX@Z 10055a67 f   KItemList.obj
 0001:00054c67       ?GetPlayerFortune@KItemList@@QAEHXZ 10055c67 f   KItemList.obj
 0001:00054cc3       ?HaveDamageItem@KItemList@@QAEHH@Z 10055cc3 f   KItemList.obj
 0001:00054d52       ?Equip@KItemList@@QAEHHH@Z 10055d52 f   KItemList.obj
 0001:000555cf       ?InfectionNextEquip@KItemList@@AAEXHH@Z 100565cf f   KItemList.obj
 0001:0005570a       ?UnEquip@KItemList@@QAEHHH@Z 1005670a f   KItemList.obj
 0001:00055bf8       ?GetEquipPlace@KItemList@@AAEHH@Z 10056bf8 f   KItemList.obj
 0001:00055d00       ?Fit@KItemList@@AAEHHH@Z   10056d00 f   KItemList.obj
 0001:00055e91       ?Fit@KItemList@@AAEHPAVKItem@@H@Z 10056e91 f   KItemList.obj
 0001:00056016       ?GetEquipEnhance@KItemList@@AAEHH@Z 10057016 f   KItemList.obj
 0001:00056141       ?GetGoldEquipEnhance@KItemList@@AAEHH@Z 10057141 f   KItemList.obj
 0001:0005632b       ?NowEatItem@KItemList@@QAEHH@Z 1005732b f   KItemList.obj
 0001:00056475       ?SearchID@KItemList@@QAEHH@Z 10057475 f   KItemList.obj
 0001:000564f1       ?ExchangeMoney@KItemList@@QAEXHHH@Z 100574f1 f   KItemList.obj
 0001:0005659e       ?GetMoneyAmount@KItemList@@QAEHXZ 1005759e f   KItemList.obj
 0001:000565cb       ?GetRepositoryMoney@KItemList@@QAEHXZ 100575cb f   KItemList.obj
 0001:000565e4       ?GetEquipmentMoney@KItemList@@QAEHXZ 100575e4 f   KItemList.obj
 0001:000565fd       ?GetTradeMoney@KItemList@@QAEHXZ 100575fd f   KItemList.obj
 0001:00056616       ?AddMoney@KItemList@@QAEHHH@Z 10057616 f   KItemList.obj
 0001:00056661       ?CostMoney@KItemList@@QAEHH@Z 10057661 f   KItemList.obj
 0001:000566a8       ?DecMoney@KItemList@@QAEHH@Z 100576a8 f   KItemList.obj
 0001:00056747       ?TradeMoveMoney@KItemList@@QAEXH@Z 10057747 f   KItemList.obj
 0001:0005682e       ?SendMoneySync@KItemList@@QAEXXZ 1005782e f   KItemList.obj
 0001:000568aa       ?SetMoney@KItemList@@QAEXHHH@Z 100578aa f   KItemList.obj
 0001:000568ed       ?SetRoomMoney@KItemList@@QAEXHH@Z 100578ed f   KItemList.obj
 0001:0005691f       ?ExchangeItem@KItemList@@QAEXPAUItemPos@@0@Z 1005791f f   KItemList.obj
 0001:0005a0c1       ?EatItem@KItemList@@QAEHHHH@Z 1005b0c1 f   KItemList.obj
 0001:0005a181       ?GetFirstItem@KItemList@@QAEPAUPlayerItem@@XZ 1005b181 f   KItemList.obj
 0001:0005a1b0       ?GetNextItem@KItemList@@QAEPAUPlayerItem@@XZ 1005b1b0 f   KItemList.obj
 0001:0005a1f1       ?ClearRoom@KItemList@@QAEXH@Z 1005b1f1 f   KItemList.obj
 0001:0005a21f       ?BackupTrade@KItemList@@QAEXXZ 1005b21f f   KItemList.obj
 0001:0005a2b5       ?RecoverTrade@KItemList@@QAEXXZ 1005b2b5 f   KItemList.obj
 0001:0005a31d       ?StartTrade@KItemList@@QAEXXZ 1005b31d f   KItemList.obj
 0001:0005a344       ?RemoveAll@KItemList@@QAEXXZ 1005b344 f   KItemList.obj
 0001:0005a3be       ?GetWeaponParticular@KItemList@@QAEHXZ 1005b3be f   KItemList.obj
 0001:0005a3f4       ?CountCommonItem@KItemList@@QAEHHHHHHH@Z 1005b3f4 f   KItemList.obj
 0001:0005a53e       ?GetItemCountRoom@KItemList@@QAEHH@Z 1005b53e f   KItemList.obj
 0001:0005a596       ?FindItem@KItemList@@QAEHHHHHH@Z 1005b596 f   KItemList.obj
 0001:0005a689       ?FindItemByIndex@KItemList@@QAEHHH@Z 1005b689 f   KItemList.obj
 0001:0005a70a       ?RemoveCommonItem@KItemList@@QAEHHHHHHHH@Z 1005b70a f   KItemList.obj
 0001:0005a826       ?GetTradeRoomItemInfo@KItemList@@QAEXXZ 1005b826 f   KItemList.obj
 0001:0005a9f5       ?TradeCheckCanPlace@KItemList@@QAEHXZ 1005b9f5 f   KItemList.obj
 0001:0005ac4c       ?CheckCanPlaceInEquipment@KItemList@@QAEHHHPAH00@Z 1005bc4c f   KItemList.obj
 0001:0005ae82       ?FindSameToRemove@KItemList@@AAEHHHHHHHPAH@Z 1005be82 f   KItemList.obj
 0001:0005aec5       ?AutoMoveItemFromEquipmentRoom@KItemList@@QAEHHHHHH@Z 1005bec5 f   KItemList.obj
 0001:0005b124       ?RemoveRoom@KItemList@@QAEXH@Z 1005c124 f   KItemList.obj
 0001:0005b1ce       ?CalcFreeItemCellCount@KItemList@@QAEHHHH@Z 1005c1ce f   KItemList.obj
 0001:0005b1f8       ?GetActiveAttribNum@KItemList@@QAEHH@Z 1005c1f8 f   KItemList.obj
 0001:0005b250       ?GetGoldActiveAttribNum@KItemList@@QAEHH@Z 1005c250 f   KItemList.obj
 0001:0005b2a8       ?AutoLoseItemFromEquipmentRoom@KItemList@@QAEXH@Z 1005c2a8 f   KItemList.obj
 0001:0005b6f8       ?AutoLoseEquip@KItemList@@QAEXXZ 1005c6f8 f   KItemList.obj
 0001:0005ba8c       ?Abrade@KItemList@@QAEXH@Z 1005ca8c f   KItemList.obj
 0001:0005bbf4       ?CanCombie@KItemList@@QAEHHH@Z 1005cbf4 f   KItemList.obj
 0001:0005bf91       ?CompareRemoveItem@KItemList@@QAEHHH@Z 1005cf91 f   KItemList.obj
 0001:0005c27c       ?SyncItem@KItemList@@QAEXHHHHHH@Z 1005d27c f   KItemList.obj
 0001:0005c6a1       ?SyncItemMagicAttrib@KItemList@@QAEXH@Z 1005d6a1 f   KItemList.obj
 0001:0005c779       ?RemoveItem@KItemList@@QAEHHHHH@Z 1005d779 f   KItemList.obj
 0001:0005c848       ?RemoveItem@KItemList@@QAEHHH@Z 1005d848 f   KItemList.obj
 0001:0005ca42       ?Lock@KItemList@@QAEHHH@Z  1005da42 f   KItemList.obj
 0001:0005cb2d       ?GetItemNum@KItemList@@QAEHHHHH@Z 1005db2d f   KItemList.obj
 0001:0005cc56       ?PutCompound@KItemList@@QAEHHH@Z 1005dc56 f   KItemList.obj
 0001:0005ccd4       ?DropCompound@KItemList@@QAEXHH@Z 1005dcd4 f   KItemList.obj
 0001:0005cd5c       ?SetMaskLock@KItemList@@QAEXH@Z 1005dd5c f   KItemList.obj
 0001:0005cdb9       ?IsEnoughToActive@KItemList@@QAEHXZ 1005ddb9 f   KItemList.obj
 0001:0005d071       ?BackLocal@KItemList@@QAEXXZ 1005e071 f   KItemList.obj
 0001:0005d154       ?InsertEquipment@KItemList@@QAEXH_N@Z 1005e154 f   KItemList.obj
 0001:0005d46e       ?ExecuteScript@KItemList@@QAEXH@Z 1005e46e f   KItemList.obj
 0001:0005d534       ?PositionToIndex@KItemList@@QAEHHH@Z 1005e534 f   KItemList.obj
 0001:0005d570       ?AddStackNum@KItem@@QAEHH@Z 1005e570 f i KItemList.obj
 0001:0005d610       ?g_IsAccrue@@YAHHH@Z       1005e610 f i KItemList.obj
 0001:0005d630       ?GetGroup@KItem@@QBEHXZ    1005e630 f i KItemList.obj
 0001:0005d650       ?GetSetID@KItem@@QBEHXZ    1005e650 f i KItemList.obj
 0001:0005d670       ?GetNeedToActive1@KItem@@QBEHXZ 1005e670 f i KItemList.obj
 0001:0005d690       ?SetBackLocal@KItem@@QAEXPAUPlayerItem@@@Z 1005e690 f i KItemList.obj
 0001:0005d6c0       ??0ITEM_SYNC@@QAE@XZ       1005e6c0 f i KItemList.obj
 0001:0005d6e0       ??1ITEM_SYNC@@QAE@XZ       1005e6e0 f i KItemList.obj
 0001:0005d700       ??0ITEM_SYNC_MAGIC@@QAE@XZ 1005e700 f i KItemList.obj
 0001:0005d730       ?GetNeedToActive2@KItem@@QBEHXZ 1005e730 f i KItemList.obj
 0001:0005d750       ?LockPick@KItem@@QAEHXZ    1005e750 f i KItemList.obj
 0001:0005d790       ?GetScript@KItem@@QBEPADXZ 1005e790 f i KItemList.obj
 0001:0005d7ef       ??0KItemSet@@QAE@XZ        1005e7ef f   KItemSet.obj
 0001:0005d87b       ??1KItemSet@@QAE@XZ        1005e87b f   KItemSet.obj
 0001:0005d92f       ?Init@KItemSet@@QAEXXZ     1005e92f f   KItemSet.obj
 0001:0005df4e       ?SearchID@KItemSet@@QAEHK@Z 1005ef4e f   KItemSet.obj
 0001:0005dfa8       ?Add@KItemSet@@QAEHPAVKItem@@@Z 1005efa8 f   KItemSet.obj
 0001:0005e018       ?Add@KItemSet@@QAEHHHHHHHHPAHHI@Z 1005f018 f   KItemSet.obj
 0001:0005e173       ?FindFree@KItemSet@@AAEHXZ 1005f173 f   KItemSet.obj
 0001:0005e18c       ?Remove@KItemSet@@QAEXH@Z  1005f18c f   KItemSet.obj
 0001:0005e1cd       ?SetID@KItemSet@@AAEXH@Z   1005f1cd f   KItemSet.obj
 0001:0005e201       ?BackItemInfo@KItemSet@@QAEXXZ 1005f201 f   KItemSet.obj
 0001:0005e265       ?GetAbradeRange@KItemSet@@QAEHHH@Z 1005f265 f   KItemSet.obj
 0001:0005e2b0       ?SetID@KItem@@QAEXK@Z      1005f2b0 f i KItemSet.obj
 0001:0005e2f8       ??0KObj@@QAE@XZ            1005f2f8 f   KObj.obj
 0001:0005e32b       ?Release@KObj@@QAEXXZ      1005f32b f   KObj.obj
 0001:0005e4ce       ?SetIndex@KObj@@QAEXH@Z    1005f4ce f   KObj.obj
 0001:0005e4f6       ?SetWorldID@KObj@@QAEXH@Z  1005f4f6 f   KObj.obj
 0001:0005e51c       ?SetLifeTime@KObj@@QAEXH@Z 1005f51c f   KObj.obj
 0001:0005e53a       ?SetState@KObj@@QAEXHH@Z   1005f53a f   KObj.obj
 0001:0005e5d4       ?BoxOpen@KObj@@AAEXXZ      1005f5d4 f   KObj.obj
 0001:0005e5f5       ?BoxClose@KObj@@AAEXXZ     1005f5f5 f   KObj.obj
 0001:0005e614       ?DoorOpen@KObj@@AAEXXZ     1005f614 f   KObj.obj
 0001:0005e629       ?DoorClose@KObj@@AAEXXZ    1005f629 f   KObj.obj
 0001:0005e63e       ?SetDir@KObj@@QAEHH@Z      1005f63e f   KObj.obj
 0001:0005e686       ?SetScriptFile@KObj@@QAEXPAD@Z 1005f686 f   KObj.obj
 0001:0005e71f       ?SetImageDir@KObj@@QAEXH@Z 1005f71f f   KObj.obj
 0001:0005e75d       ?SetItemDataID@KObj@@QAEXH@Z 1005f75d f   KObj.obj
 0001:0005e77c       ?Activate@KObj@@QAEXXZ     1005f77c f   KObj.obj
 0001:0005e919       ?ExecScript@KObj@@QAEXH@Z  1005f919 f   KObj.obj
 0001:0005eb38       ?SyncAdd@KObj@@QAEHH@Z     1005fb38 f   KObj.obj
 0001:0005ec94       ?SyncState@KObj@@QAEXXZ    1005fc94 f   KObj.obj
 0001:0005ee01       ?SyncDir@KObj@@QAEXXZ      1005fe01 f   KObj.obj
 0001:0005ef6e       ?SyncRemove@KObj@@QAEXH@Z  1005ff6e f   KObj.obj
 0001:0005f0da       ?GetItemDataID@KObj@@QAEHXZ 100600da f   KObj.obj
 0001:0005f0ee       ?SetItemBelong@KObj@@QAEXH@Z 100600ee f   KObj.obj
 0001:0005f12f       ?SetEntireBelong@KObj@@QAEXH@Z 1006012f f   KObj.obj
 0001:0005f174       ?Remove@KObj@@QAEXH@Z      10060174 f   KObj.obj
 0001:0005f1b4       ?GetKind@KObj@@QAEHXZ      100601b4 f   KObj.obj
 0001:0005f1c5       ?PolygonChangeToBar@KObj@@QAEXVKPolygon@@HHHHPAE@Z 100601c5 f   KObj.obj
 0001:0005f3a2       ??0ServerImage@@QAE@XZ     100603a2 f   KObj.obj
 0001:0005f3b8       ?Release@ServerImage@@QAEXXZ 100603b8 f   KObj.obj
 0001:0005f408       ?SetTotalFrame@ServerImage@@QAEXH@Z 10060408 f   KObj.obj
 0001:0005f435       ?SetCurFrame@ServerImage@@QAEXH@Z 10060435 f   KObj.obj
 0001:0005f496       ?SetTotalDir@ServerImage@@QAEXH@Z 10060496 f   KObj.obj
 0001:0005f4c4       ?SetCurDir@ServerImage@@QAEHH@Z 100604c4 f   KObj.obj
 0001:0005f51f       ?SetInterVal@ServerImage@@QAEXK@Z 1006051f f   KObj.obj
 0001:0005f535       ?GetOneDirFrames@ServerImage@@QAEHXZ 10060535 f   KObj.obj
 0001:0005f546       ?CheckEnd@ServerImage@@QAEHXZ 10060546 f   KObj.obj
 0001:0005f577       ?SetDirStart@ServerImage@@QAEXXZ 10060577 f   KObj.obj
 0001:0005f595       ?SetDirEnd@ServerImage@@QAEXXZ 10060595 f   KObj.obj
 0001:0005f5b9       ?GetNextFrame@ServerImage@@QAEHH@Z 100605b9 f   KObj.obj
 0001:0005f64e       ?GetPrevFrame@ServerImage@@QAEHH@Z 1006064e f   KObj.obj
 0001:0005f6de       ?SetCurDir64@ServerImage@@QAEHH@Z 100606de f   KObj.obj
 0001:0005f776       ?GetCurDirFrameNo@ServerImage@@QAEHXZ 10060776 f   KObj.obj
 0001:0005f796       ?GetMpsPos@KObj@@QAEXPAH0@Z 10060796 f   KObj.obj
 0001:0005f7e5       ?GetDistanceSquare@KObj@@QAEHH@Z 100607e5 f   KObj.obj
 0001:0005f96f       ??0KObjSet@@QAE@XZ         1006096f f   KObjSet.obj
 0001:0005f9e9       ??1KObjSet@@QAE@XZ         100609e9 f   KObjSet.obj
 0001:0005fa60       ?Init@KObjSet@@QAEHXZ      10060a60 f   KObjSet.obj
 0001:0005fafd       ?AddMoneyObj@KObjSet@@QAEHUKMapPos@@H@Z 10060afd f   KObjSet.obj
 0001:0005fbac       ?GetMoneyDataId@KObjSet@@AAEHH@Z 10060bac f   KObjSet.obj
 0001:0005fc3d       ?Add@KObjSet@@QAEHHUKMapPos@@UKObjItemInfo@@@Z 10060c3d f   KObjSet.obj
 0001:000600cf       ?AddData@KObjSet@@QAEHHUKMapPos@@HHHH@Z 100610cf f   KObjSet.obj
 0001:000604b8       ?SearchObjAt@KObjSet@@QAEHUKMapPos@@@Z 100614b8 f   KObjSet.obj
 0001:00060579       ?SetObjItem@KObjSet@@QAEHHHHH@Z 10061579 f   KObjSet.obj
 0001:000605d4       ?SyncAdd@KObjSet@@QAEHHH@Z 100615d4 f   KObjSet.obj
 0001:00060614       ?ServerLoadRegionObj@KObjSet@@QAEHPADHHH@Z 10061614 f   KObjSet.obj
 0001:00060987       ?ServerLoadRegionObj@KObjSet@@QAEHHPAVKPakFile@@K@Z 10061987 f   KObjSet.obj
 0001:00060c01       ?FindFree@KObjSet@@AAEHXZ  10061c01 f   KObjSet.obj
 0001:00060c1a       ?CheckClientKind@KObjSet@@AAEHH@Z 10061c1a f   KObjSet.obj
 0001:00060c68       ?FindID@KObjSet@@QAEHH@Z   10061c68 f   KObjSet.obj
 0001:00060cdd       ?FindName@KObjSet@@QAEHPAD@Z 10061cdd f   KObjSet.obj
 0001:00060d65       ?GetID@KObjSet@@QAEHXZ     10061d65 f   KObjSet.obj
 0001:00060d88       ?Remove@KObjSet@@QAEXH@Z   10061d88 f   KObjSet.obj
 0001:00060dc9       ?GetDataIDKind@KObjSet@@AAEHH@Z 10061dc9 f   KObjSet.obj
 0001:0006103d       ?g_InitCore@@YAXXZ         1006203d f   KCore.obj
 0001:00061465       ?InitTaskSetting@@YAHXZ    10062465 f   KCore.obj
 0001:00061760       ?InitNpcSetting@@YAHXZ     10062760 f   KCore.obj
 0001:0006177e       ?InitMissleSetting@@YAHXZ  1006277e f   KCore.obj
 0001:00061813       ?InitSkillSetting@@YAHXZ   10062813 f   KCore.obj
 0001:00061827       ?LoadNpcSettingFromBinFile@@YAHPAD@Z 10062827 f   KCore.obj
 0001:0006182e       ?SaveAsBinFileFromNpcSetting@@YAHPAD@Z 1006282e f   KCore.obj
 0001:00061835       ?g_ReleaseCore@@YAXXZ      10062835 f   KCore.obj
 0001:000618e9       ?g_SetServer@@YAXPAX@Z     100628e9 f   KCore.obj
 0001:000618f6       ?g_SetTongClient@@YAXPAX@Z 100628f6 f   KCore.obj
 0001:00061903       ?InitGameSetting@@YAHXZ    10062903 f   KCore.obj
 0001:000619f4       ?PositionToRoom@@YAHH@Z    100629f4 f   KCore.obj
 0001:00061b7b       ??0KSubWorld@@QAE@XZ       10062b7b f   KSubWorld.obj
 0001:00061ccc       ??1KSubWorld@@QAE@XZ       10062ccc f   KSubWorld.obj
 0001:00061dad       ?FindRegion@KSubWorld@@QAEHH@Z 10062dad f   KSubWorld.obj
 0001:00061e01       ?FindFreeRegion@KSubWorld@@QAEHHH@Z 10062e01 f   KSubWorld.obj
 0001:00061f1c       ?Activate@KSubWorld@@QAEXXZ 10062f1c f   KSubWorld.obj
 0001:0006204e       ?GetDistance@KSubWorld@@QAEHHHHH@Z 1006304e f   KSubWorld.obj
 0001:00062096       ?Map2Mps@KSubWorld@@QAEXHHHHHPAH0@Z 10063096 f   KSubWorld.obj
 0001:0006215e       ?Map2Mps@KSubWorld@@SAXHHHHHHPAH0@Z 1006315e f   KSubWorld.obj
 0001:00062195       ?Mps2Map@KSubWorld@@QAEXHHPAH0000@Z 10063195 f   KSubWorld.obj
 0001:0006236d       ?TestBarrier@KSubWorld@@QAEEHH@Z 1006336d f   KSubWorld.obj
 0001:00062524       ?TestBarrier@KSubWorld@@QAEEHHHHHHH@Z 10063524 f   KSubWorld.obj
 0001:00062787       ?TestBarrierMin@KSubWorld@@QAEEHHHHHHH@Z 10063787 f   KSubWorld.obj
 0001:00062a26       ?GetTrap@KSubWorld@@QAEKHH@Z 10063a26 f   KSubWorld.obj
 0001:00062a84       ?GetBarrier@KSubWorld@@QAEEHH@Z 10063a84 f   KSubWorld.obj
 0001:00062af0       ?LoadMap@KSubWorld@@QAEHH@Z 10063af0 f   KSubWorld.obj
 0001:00063239       ?LoadTrap@KSubWorld@@AAEXXZ 10064239 f   KSubWorld.obj
 0001:00063244       ?MessageLoop@KSubWorld@@QAEXXZ 10064244 f   KSubWorld.obj
 0001:000632b2       ?ProcessMsg@KSubWorld@@AAEXPAVKWorldMsgNode@@@Z 100642b2 f   KSubWorld.obj
 0001:000634ab       ?NpcChangeRegion@KSubWorld@@QAEXHHH@Z 100644ab f   KSubWorld.obj
 0001:0006360f       ?ObjChangeRegion@KSubWorld@@QAEXHHH@Z 1006460f f   KSubWorld.obj
 0001:000636c7       ?MissleChangeRegion@KSubWorld@@QAEXHHH@Z 100646c7 f   KSubWorld.obj
 0001:0006376f       ?PlayerChangeRegion@KSubWorld@@QAEXHHH@Z 1006476f f   KSubWorld.obj
 0001:000637fa       ?GetMps@KSubWorld@@QAEXPAH0HHH@Z 100647fa f   KSubWorld.obj
 0001:0006384d       ?SendSyncData@KSubWorld@@QAEHHH@Z 1006484d f   KSubWorld.obj
 0001:000638ea       ?GetRegionIndex@KSubWorld@@QAEHH@Z 100648ea f   KSubWorld.obj
 0001:00063973       ?Close@KSubWorld@@QAEXXZ   10064973 f   KSubWorld.obj
 0001:000639e7       ?LoadObject@KSubWorld@@QAEXPAD0@Z 100649e7 f   KSubWorld.obj
 0001:00063d25       ?AddPlayer@KSubWorld@@QAEXHH@Z 10064d25 f   KSubWorld.obj
 0001:00063e48       ?RemovePlayer@KSubWorld@@QAEXHH@Z 10064e48 f   KSubWorld.obj
 0001:00063fb8       ?GetFreeObjPos@KSubWorld@@QAEXAAUtagPOINT@@@Z 10064fb8 f   KSubWorld.obj
 0001:0006414d       ?CanPutObj@KSubWorld@@QAEHUtagPOINT@@@Z 1006514d f   KSubWorld.obj
 0001:00064220       ?BroadCast@KSubWorld@@QAEXPBDI@Z 10065220 f   KSubWorld.obj
 0001:000642ce       ?RevivalAllNpc@KSubWorld@@QAEHXZ 100652ce f   KSubWorld.obj
 0001:000643f2       ?FindNpcFromName@KSubWorld@@QAEHPBD@Z 100653f2 f   KSubWorld.obj
 0001:0006450c       ?BroadCastRegion@KSubWorld@@QAEXPBXIAAHHHH@Z 1006550c f   KSubWorld.obj
 0001:0006463c       ?ExecuteScript@KSubWorld@@QAEHKPADHH@Z 1006563c f   KSubWorld.obj
 0001:00064712       ?ExecuteScript@KSubWorld@@QAEHPAD0HH@Z 10065712 f   KSubWorld.obj
 0001:00064750       ??1?$KMissionArray@VKMission@@$09@@QAE@XZ 10065750 f i KSubWorld.obj
 0001:00064770       ??0?$KMissionArray@VKMission@@$09@@QAE@XZ 10065770 f i KSubWorld.obj
 0001:00064790       ??1?$KLinkArrayTemplate@VKMission@@$09@@QAE@XZ 10065790 f i KSubWorld.obj
 0001:00064810       ??1KMission@@QAE@XZ        10065810 f i KSubWorld.obj
 0001:00064880       ??0?$KMissionArray@VKMission@@$01@@QAE@XZ 10065880 f i KSubWorld.obj
 0001:000648a0       ??1?$KMissionArray@VKMission@@$01@@QAE@XZ 100658a0 f i KSubWorld.obj
 0001:000648c0       ??0KWorldMsg@@QAE@XZ       100658c0 f i KSubWorld.obj
 0001:000648e0       ??1KWorldMsg@@QAE@XZ       100658e0 f i KSubWorld.obj
 0001:00064900       ??1?$KLinkArrayTemplate@VKMission@@$01@@QAE@XZ 10065900 f i KSubWorld.obj
 0001:00064980       ??_EKRegion@@QAEPAXI@Z     10065980 f i KSubWorld.obj
 0001:00064a00       ?IsActive@KRegion@@QAEHXZ  10065a00 f i KSubWorld.obj
 0001:00064a20       ?AddRef@KIndexNode@@QAEXXZ 10065a20 f i KSubWorld.obj
 0001:00064a40       ?Release@KIndexNode@@QAEXXZ 10065a40 f i KSubWorld.obj
 0001:00064a60       ?SetActiveFlag@KNpc@@QAEXH@Z 10065a60 f i KSubWorld.obj
 0001:00064a80       ?SetOwner@KMission@@QAEXPAX@Z 10065a80 f i KSubWorld.obj
 0001:00064aa0       ?ExecuteRevive@KNpc@@QAEXXZ 10065aa0 f i KSubWorld.obj
 0001:00064ac0       ??1?$KTimerFunArray@VKTimerTaskFun@@$03$1?g_MissionTimerCallBackFun@@YAHPAXPADK@Z@@QAE@XZ 10065ac0 f i KSubWorld.obj
 0001:00064ae0       ??1?$_KMissionPlayerArray@UTMissionPlayerInfo@@$0ELA@@@QAE@XZ 10065ae0 f i KSubWorld.obj
 0001:00064b00       ??1?$_KMissionNpcArray@UTMissionNpcInfo@@$0LLIA@@@QAE@XZ 10065b00 f i KSubWorld.obj
 0001:00064b20       ??1?$KLinkArrayTemplate@VKTimerTaskFun@@$03@@QAE@XZ 10065b20 f i KSubWorld.obj
 0001:00064b70       ??1?$KLinkArrayTemplate@UTMissionPlayerInfo@@$0ELA@@@QAE@XZ 10065b70 f i KSubWorld.obj
 0001:00064bd0       ??1?$KLinkArrayTemplate@UTMissionNpcInfo@@$0LLIA@@@QAE@XZ 10065bd0 f i KSubWorld.obj
 0001:00064c30       ?FindSame@?$KMissionArray@VKMission@@$09@@UAEKPAVKMission@@@Z 10065c30 f i KSubWorld.obj
 0001:00064ca0       ?GetMissionId@KMission@@QAEKXZ 10065ca0 f i KSubWorld.obj
 0001:00064cc0       ??0?$KLinkArrayTemplate@VKMission@@$09@@QAE@XZ 10065cc0 f i KSubWorld.obj
 0001:00064dc0       ??0KMission@@QAE@XZ        10065dc0 f i KSubWorld.obj
 0001:00064ee0       ??0?$KTimerFunArray@VKTimerTaskFun@@$03$1?g_MissionTimerCallBackFun@@YAHPAXPADK@Z@@QAE@XZ 10065ee0 f i KSubWorld.obj
 0001:00064f00       ??0?$_KMissionPlayerArray@UTMissionPlayerInfo@@$0ELA@@@QAE@XZ 10065f00 f i KSubWorld.obj
 0001:00064f20       ??0?$_KMissionNpcArray@UTMissionNpcInfo@@$0LLIA@@@QAE@XZ 10065f20 f i KSubWorld.obj
 0001:00064f40       ?FindSame@?$KTimerFunArray@VKTimerTaskFun@@$03$1?g_MissionTimerCallBackFun@@YAHPAXPADK@Z@@UAEKPAVKTimerTaskFun@@@Z 10065f40 f i KSubWorld.obj
 0001:00064fb0       ?GetTaskId@KTimerTaskFun@@QAEKXZ 10065fb0 f i KSubWorld.obj
 0001:00064fd0       ??0?$KLinkArrayTemplate@VKTimerTaskFun@@$03@@QAE@XZ 10065fd0 f i KSubWorld.obj
 0001:000650b0       ?GetData@?$KLinkArrayTemplate@VKTimerTaskFun@@$03@@QAEPAVKTimerTaskFun@@K@Z 100660b0 f i KSubWorld.obj
 0001:000650e0       ?FindSame@?$_KMissionPlayerArray@UTMissionPlayerInfo@@$0ELA@@@UAEKPAUTMissionPlayerInfo@@@Z 100660e0 f i KSubWorld.obj
 0001:00065150       ??0?$KLinkArrayTemplate@UTMissionPlayerInfo@@$0ELA@@@QAE@XZ 10066150 f i KSubWorld.obj
 0001:00065230       ?FindSame@?$_KMissionNpcArray@UTMissionNpcInfo@@$0LLIA@@@UAEKPAUTMissionNpcInfo@@@Z 10066230 f i KSubWorld.obj
 0001:000652a0       ??0?$KLinkArrayTemplate@UTMissionNpcInfo@@$0LLIA@@@QAE@XZ 100662a0 f i KSubWorld.obj
 0001:00065380       ?Activate@?$KMissionArray@VKMission@@$01@@QAEHXZ 10066380 f i KSubWorld.obj
 0001:00065400       ?FindSame@?$KMissionArray@VKMission@@$01@@UAEKPAVKMission@@@Z 10066400 f i KSubWorld.obj
 0001:00065470       ??0?$KLinkArrayTemplate@VKMission@@$01@@QAE@XZ 10066470 f i KSubWorld.obj
 0001:00065570       ?GetTotalCount@?$KLinkArrayTemplate@VKMission@@$01@@QBEKXZ 10066570 f i KSubWorld.obj
 0001:00065590       ?Clear@?$KLinkArrayTemplate@VKTimerTaskFun@@$03@@QAEXXZ 10066590 f i KSubWorld.obj
 0001:000655f0       ?Clear@?$KLinkArrayTemplate@UTMissionPlayerInfo@@$0ELA@@@QAEXXZ 100665f0 f i KSubWorld.obj
 0001:00065660       ?Clear@?$KLinkArrayTemplate@UTMissionNpcInfo@@$0LLIA@@@QAEXXZ 10066660 f i KSubWorld.obj
 0001:000656d0       ?Clear@?$KLinkArrayTemplate@VKMission@@$09@@QAEXXZ 100666d0 f i KSubWorld.obj
 0001:00065740       ?Clear@?$KLinkArrayTemplate@VKMission@@$01@@QAEXXZ 10066740 f i KSubWorld.obj
 0001:000657ef       ??0KSubWorldSet@@QAE@XZ    100667ef f   KSubWorldSet.obj
 0001:00065830       ??1KSubWorldSet@@QAE@XZ    10066830 f   KSubWorldSet.obj
 0001:00065865       ?SearchWorld@KSubWorldSet@@QAEHK@Z 10066865 f   KSubWorldSet.obj
 0001:000658aa       ?Load@KSubWorldSet@@QAEHPAD@Z 100668aa f   KSubWorldSet.obj
 0001:00065a32       ?LoadFile@KSubWorldSet@@QAEHXZ 10066a32 f   KSubWorldSet.obj
 0001:00065e24       ?MainLoop@KSubWorldSet@@QAEXXZ 10066e24 f   KSubWorldSet.obj
 0001:00065e80       ?MessageLoop@KSubWorldSet@@QAEXXZ 10066e80 f   KSubWorldSet.obj
 0001:00065ebb       ?SendMessageA@KSubWorldSet@@QAEHHKHHH@Z 10066ebb f   KSubWorldSet.obj
 0001:00065f91       ?Close@KSubWorldSet@@QAEXXZ 10066f91 f   KSubWorldSet.obj
 0001:00065fd6       ?GetRevivalPosFromId@KSubWorldSet@@QAEXKHPAUtagPOINT@@@Z 10066fd6 f   KSubWorldSet.obj
 0001:000660e0       ?Send@KWorldMsg@@QAEHPAVKWorldMsgNode@@@Z 100670e0 f i KSubWorldSet.obj
 0001:00066110       ??0KWeatherMgr@@QAE@XZ     10067110 f   KWeatherMgr.obj
 0001:00066199       ?InitFromIni@KWeatherMgr@@QAE_NAAVKIniFile@@@Z 10067199 f   KWeatherMgr.obj
 0001:00066536       ?Activate@KWeatherMgr@@QAEHXZ 10067536 f   KWeatherMgr.obj
 0001:000666c0       ??0KRegion@@QAE@XZ         100676c0 f   KRegion.obj
 0001:000667e2       ??1KRegion@@QAE@XZ         100677e2 f   KRegion.obj
 0001:000668e0       ?Init@KRegion@@QAEHHH@Z    100678e0 f   KRegion.obj
 0001:00066a6e       ?Load@KRegion@@QAEHHH@Z    10067a6e f   KRegion.obj
 0001:00066bde       ?LoadObject@KRegion@@QAEHHHH@Z 10067bde f   KRegion.obj
 0001:00066ed5       ?LoadServerObstacle@KRegion@@QAEHPAVKPakFile@@K@Z 10067ed5 f   KRegion.obj
 0001:00066f2a       ?LoadServerTrap@KRegion@@QAEHPAVKPakFile@@K@Z 10067f2a f   KRegion.obj
 0001:00067033       ?LoadServerNpc@KRegion@@QAEHHPAVKPakFile@@K@Z 10068033 f   KRegion.obj
 0001:0006712b       ?LoadServerObj@KRegion@@QAEHHPAVKPakFile@@K@Z 1006812b f   KRegion.obj
 0001:0006714e       ?Activate@KRegion@@QAEXXZ  1006814e f   KRegion.obj
 0001:0006736c       ?AddNpc@KRegion@@QAEXH@Z   1006836c f   KRegion.obj
 0001:000673c9       ?RemoveNpc@KRegion@@QAEXH@Z 100683c9 f   KRegion.obj
 0001:00067421       ?AddMissle@KRegion@@QAEXH@Z 10068421 f   KRegion.obj
 0001:0006747e       ?RemoveMissle@KRegion@@QAEXH@Z 1006847e f   KRegion.obj
 0001:000674d4       ?AddObj@KRegion@@QAEXH@Z   100684d4 f   KRegion.obj
 0001:000675ec       ?RemoveObj@KRegion@@QAEXH@Z 100685ec f   KRegion.obj
 0001:000676ec       ?GetTrap@KRegion@@QAEKHH@Z 100686ec f   KRegion.obj
 0001:0006772b       ?GetBarrier@KRegion@@QAEEHHHH@Z 1006872b f   KRegion.obj
 0001:00067825       ?GetBarrierMin@KRegion@@QAEEHHHHHH@Z 10068825 f   KRegion.obj
 0001:0006792c       ?GetRef@KRegion@@QAEHHHW4MOVE_OBJ_KIND@@@Z 1006892c f   KRegion.obj
 0001:00067a1c       ?AddRef@KRegion@@QAEHHHW4MOVE_OBJ_KIND@@@Z 10068a1c f   KRegion.obj
 0001:00067b1d       ?DecRef@KRegion@@QAEHHHW4MOVE_OBJ_KIND@@@Z 10068b1d f   KRegion.obj
 0001:00067c1b       ?AddPlayer@KRegion@@QAEHH@Z 10068c1b f   KRegion.obj
 0001:00067c81       ?RemovePlayer@KRegion@@QAEHH@Z 10068c81 f   KRegion.obj
 0001:00067ce0       ?SearchNpc@KRegion@@QAEHK@Z 10068ce0 f   KRegion.obj
 0001:00067d38       ?SearchNpcSettingIdx@KRegion@@QAEHH@Z 10068d38 f   KRegion.obj
 0001:00067d90       ?SearchNpcName@KRegion@@QAEHPBD@Z 10068d90 f   KRegion.obj
 0001:00067df4       ?FindNpcNear@KRegion@@QAEHHH@Z 10068df4 f   KRegion.obj
 0001:00067e7a       ?FindObject@KRegion@@QAEHHH_N@Z 10068e7a f   KRegion.obj
 0001:00067f30       ?FindObjectNear@KRegion@@QAEHHH@Z 10068f30 f   KRegion.obj
 0001:00067fb7       ?FindObject@KRegion@@QAEHH@Z 10068fb7 f   KRegion.obj
 0001:0006800f       ?SendSyncData@KRegion@@QAEXH@Z 1006900f f   KRegion.obj
 0001:0006809f       ?BroadCast@KRegion@@QAEXPBXKAAHHH@Z 1006909f f   KRegion.obj
 0001:000681a9       ?FindPlayer@KRegion@@QAEHK@Z 100691a9 f   KRegion.obj
 0001:00068218       ?SetTrap@KRegion@@QAEXKHH@Z 10069218 f   KRegion.obj
 0001:0006823e       ?GetObjNode@KRegion@@QAEPAXH@Z 1006923e f   KRegion.obj
 0001:00068285       ?Close@KRegion@@QAEXXZ     10069285 f   KRegion.obj
 0001:00068540       ?GetNodeCount@KList@@QAEJXZ 10069540 f i KRegion.obj
 0001:00068580       ?Get@KWorldMsg@@QAEHPAVKWorldMsgNode@@@Z 10069580 f   KWorldMsg.obj
 0001:00068613       ?Peek@KWorldMsg@@QAEHPAVKWorldMsgNode@@K@Z 10069613 f   KWorldMsg.obj
 0001:00068689       ?Clear@KWorldMsg@@QAEXXZ   10069689 f   KWorldMsg.obj
 0001:00068700       ?g_InitMath@@YAHXZ         10069700 f   KMath.obj
 0001:0006870a       ?g_UnInitMath@@YAHXZ       1006970a f   KMath.obj
 0001:00068714       ?g_InitSeries@@YAXXZ       10069714 f   KMath.obj
 0001:00068780       ?P_ProcessGMExecute@KNewProtocolProcess@@SAXPAUIClient@@KKHPAEH@Z 10069780 f   KGMProcess.obj
 0001:000687ab       ?P_ProcessGMFindPlayer@KNewProtocolProcess@@SAXPAUIClient@@KKHPAEH@Z 100697ab f   KGMProcess.obj
 0001:000689a3       ?ExecuteLocalServer@KNewProtocolProcess@@QAEXQBXI@Z 100699a3 f   KGMProcess.obj
 0001:00068a5f       ??0KNewProtocolProcess@@QAE@XZ 10069a5f f   KNewProtocolProcess.obj
 0001:00068bbb       ??1KNewProtocolProcess@@QAE@XZ 10069bbb f   KNewProtocolProcess.obj
 0001:00068c33       ?ProcessNetMsg@KNewProtocolProcess@@QAEXPAUIClient@@KKHPAEH@Z 10069c33 f   KNewProtocolProcess.obj
 0001:00068c7a       ?SendNetMsgToTransfer@KNewProtocolProcess@@QAEXPAUIClient@@@Z 10069c7a f   KNewProtocolProcess.obj
 0001:00068d2a       ?SendNetMsgToChat@KNewProtocolProcess@@QAEXPAUIClient@@@Z 10069d2a f   KNewProtocolProcess.obj
 0001:00068de3       ?SendNetMsgToTong@KNewProtocolProcess@@QAEXPAUIClient@@@Z 10069de3 f   KNewProtocolProcess.obj
 0001:00068e9c       ?PushMsgInTransfer@KNewProtocolProcess@@QAEXQBXI@Z 10069e9c f   KNewProtocolProcess.obj
 0001:00068ee1       ?PushMsgInChat@KNewProtocolProcess@@QAEXQBXI@Z 10069ee1 f   KNewProtocolProcess.obj
 0001:00068f29       ?PushMsgInTong@KNewProtocolProcess@@QAEXQBXI@Z 10069f29 f   KNewProtocolProcess.obj
 0001:00068f71       ?BroadcastGlobal@KNewProtocolProcess@@QAEXQBXI@Z 10069f71 f   KNewProtocolProcess.obj
 0001:00069004       ?BroadcastLocalServer@KNewProtocolProcess@@QAEXQBXI@Z 1006a004 f   KNewProtocolProcess.obj
 0001:00069071       ?P_ProcessPlayerCommExtend@KNewProtocolProcess@@SAXPAUIClient@@KKHPAEH@Z 1006a071 f   KNewProtocolProcess.obj
 0001:000690f6       ?P_ProcessChatExtend@KNewProtocolProcess@@SAXPAUIClient@@KKHPAEH@Z 1006a0f6 f   KNewProtocolProcess.obj
 0001:000691b0       ??1?$map@GP6AXPAUIClient@@KKHPAEH@ZU?$less@G@std@@V?$allocator@P6AXPAUIClient@@KKHPAEH@Z@3@@std@@QAE@XZ 1006a1b0 f i KNewProtocolProcess.obj
 0001:000691d0       ?GetUsed@CBuffer@Win32@OnlineGameLib@@QBEIXZ 1006a1d0 f i KNewProtocolProcess.obj
 0001:000691f0       ?GetBuffer@CBuffer@Win32@OnlineGameLib@@QBEPBEXZ 1006a1f0 f i KNewProtocolProcess.obj
 0001:00069210       ??0?$list@PAVCBuffer@Win32@OnlineGameLib@@V?$allocator@PAVCBuffer@Win32@OnlineGameLib@@@std@@@std@@QAE@ABV?$allocator@PAVCBuffer@Win32@OnlineGameLib@@@1@@Z 1006a210 f i KNewProtocolProcess.obj
 0001:00069250       ??1?$list@PAVCBuffer@Win32@OnlineGameLib@@V?$allocator@PAVCBuffer@Win32@OnlineGameLib@@@std@@@std@@QAE@XZ 1006a250 f i KNewProtocolProcess.obj
 0001:000692b0       ?begin@?$list@PAVCBuffer@Win32@OnlineGameLib@@V?$allocator@PAVCBuffer@Win32@OnlineGameLib@@@std@@@std@@QAE?AViterator@12@XZ 1006a2b0 f i KNewProtocolProcess.obj
 0001:000692f0       ?end@?$list@PAVCBuffer@Win32@OnlineGameLib@@V?$allocator@PAVCBuffer@Win32@OnlineGameLib@@@std@@@std@@QAE?AViterator@12@XZ 1006a2f0 f i KNewProtocolProcess.obj
 0001:00069320       ?push_back@?$list@PAVCBuffer@Win32@OnlineGameLib@@V?$allocator@PAVCBuffer@Win32@OnlineGameLib@@@std@@@std@@QAEXABQAVCBuffer@Win32@OnlineGameLib@@@Z 1006a320 f i KNewProtocolProcess.obj
 0001:00069350       ?clear@?$list@PAVCBuffer@Win32@OnlineGameLib@@V?$allocator@PAVCBuffer@Win32@OnlineGameLib@@@std@@@std@@QAEXXZ 1006a350 f i KNewProtocolProcess.obj
 0001:00069390       ??0iterator@?$list@PAVCBuffer@Win32@OnlineGameLib@@V?$allocator@PAVCBuffer@Win32@OnlineGameLib@@@std@@@std@@QAE@XZ 1006a390 f i KNewProtocolProcess.obj
 0001:000693b0       ??Diterator@?$list@PAVCBuffer@Win32@OnlineGameLib@@V?$allocator@PAVCBuffer@Win32@OnlineGameLib@@@std@@@std@@QBEAAPAVCBuffer@Win32@OnlineGameLib@@XZ 1006a3b0 f i KNewProtocolProcess.obj
 0001:000693d0       ??Eiterator@?$list@PAVCBuffer@Win32@OnlineGameLib@@V?$allocator@PAVCBuffer@Win32@OnlineGameLib@@@std@@@std@@QAEAAV012@XZ 1006a3d0 f i KNewProtocolProcess.obj
 0001:00069400       ??9iterator@?$list@PAVCBuffer@Win32@OnlineGameLib@@V?$allocator@PAVCBuffer@Win32@OnlineGameLib@@@std@@@std@@QBE_NABV012@@Z 1006a400 f i KNewProtocolProcess.obj
 0001:00069430       ??0?$map@GP6AXPAUIClient@@KKHPAEH@ZU?$less@G@std@@V?$allocator@P6AXPAUIClient@@KKHPAEH@Z@3@@std@@QAE@ABU?$less@G@1@ABV?$allocator@P6AXPAUIClient@@KKHPAEH@Z@1@@Z 1006a430 f i KNewProtocolProcess.obj
 0001:00069460       ??A?$map@GP6AXPAUIClient@@KKHPAEH@ZU?$less@G@std@@V?$allocator@P6AXPAUIClient@@KKHPAEH@Z@3@@std@@QAEAAP6AXPAUIClient@@KKHPAEH@ZABG@Z 1006a460 f i KNewProtocolProcess.obj
 0001:000694b0       ??1?$_Tree@GU?$pair@$$CBGP6AXPAUIClient@@KKHPAEH@Z@std@@U_Kfn@?$map@GP6AXPAUIClient@@KKHPAEH@ZU?$less@G@std@@V?$allocator@P6AXPAUIClient@@KKHPAEH@Z@3@@2@U?$less@G@2@V?$allocator@P6AXPAUIClient@@KKHPAEH@Z@2@@std@@QAE@XZ 1006a4b0 f i KNewProtocolProcess.obj
 0001:00069580       ?insert@?$list@PAVCBuffer@Win32@OnlineGameLib@@V?$allocator@PAVCBuffer@Win32@OnlineGameLib@@@std@@@std@@QAE?AViterator@12@V312@ABQAVCBuffer@Win32@OnlineGameLib@@@Z 1006a580 f i KNewProtocolProcess.obj
 0001:00069640       ?erase@?$list@PAVCBuffer@Win32@OnlineGameLib@@V?$allocator@PAVCBuffer@Win32@OnlineGameLib@@@std@@@std@@QAE?AViterator@12@V312@0@Z 1006a640 f i KNewProtocolProcess.obj
 0001:00069690       ?_Buynode@?$list@PAVCBuffer@Win32@OnlineGameLib@@V?$allocator@PAVCBuffer@Win32@OnlineGameLib@@@std@@@std@@IAEPAU_Node@12@PAU312@0@Z 1006a690 f i KNewProtocolProcess.obj
 0001:00069700       ?_Freenode@?$list@PAVCBuffer@Win32@OnlineGameLib@@V?$allocator@PAVCBuffer@Win32@OnlineGameLib@@@std@@@std@@IAEXPAU_Node@12@@Z 1006a700 f i KNewProtocolProcess.obj
 0001:00069720       ?_Next@_Acc@?$list@PAVCBuffer@Win32@OnlineGameLib@@V?$allocator@PAVCBuffer@Win32@OnlineGameLib@@@std@@@std@@SAAAPAU_Node@23@PAU423@@Z 1006a720 f i KNewProtocolProcess.obj
 0001:00069730       ?_Value@_Acc@?$list@PAVCBuffer@Win32@OnlineGameLib@@V?$allocator@PAVCBuffer@Win32@OnlineGameLib@@@std@@@std@@SAAAPAVCBuffer@Win32@OnlineGameLib@@PAU_Node@23@@Z 1006a730 f i KNewProtocolProcess.obj
 0001:00069740       ??0const_iterator@?$list@PAVCBuffer@Win32@OnlineGameLib@@V?$allocator@PAVCBuffer@Win32@OnlineGameLib@@@std@@@std@@QAE@XZ 1006a740 f i KNewProtocolProcess.obj
 0001:00069750       ??0iterator@?$list@PAVCBuffer@Win32@OnlineGameLib@@V?$allocator@PAVCBuffer@Win32@OnlineGameLib@@@std@@@std@@QAE@PAU_Node@12@@Z 1006a750 f i KNewProtocolProcess.obj
 0001:00069770       ??8iterator@?$list@PAVCBuffer@Win32@OnlineGameLib@@V?$allocator@PAVCBuffer@Win32@OnlineGameLib@@@std@@@std@@QBE_NABV012@@Z 1006a770 f i KNewProtocolProcess.obj
 0001:00069790       ?insert@?$map@GP6AXPAUIClient@@KKHPAEH@ZU?$less@G@std@@V?$allocator@P6AXPAUIClient@@KKHPAEH@Z@3@@std@@QAE?AU?$pair@Viterator@?$_Tree@GU?$pair@$$CBGP6AXPAUIClient@@KKHPAEH@Z@std@@U_Kfn@?$map@GP6AXPAUIClient@@KKHPAEH@ZU?$less@G@std@@V?$allocator@P6AXPAUIClient@@KKHPAEH@Z@3@@2@U?$less@G@2@V?$allocator@P6AXPAUIClient@@KKHPAEH@Z@2@@std@@_N@2@ABU?$pair@$$CBGP6AXPAUIClient@@KKHPAEH@Z@2@@Z 1006a790 f i KNewProtocolProcess.obj
 0001:000697e0       ??0?$_Tree@GU?$pair@$$CBGP6AXPAUIClient@@KKHPAEH@Z@std@@U_Kfn@?$map@GP6AXPAUIClient@@KKHPAEH@ZU?$less@G@std@@V?$allocator@P6AXPAUIClient@@KKHPAEH@Z@3@@2@U?$less@G@2@V?$allocator@P6AXPAUIClient@@KKHPAEH@Z@2@@std@@QAE@ABU?$less@G@1@_NABV?$allocator@P6AXPAUIClient@@KKHPAEH@Z@1@@Z 1006a7e0 f i KNewProtocolProcess.obj
 0001:00069820       ?begin@?$_Tree@GU?$pair@$$CBGP6AXPAUIClient@@KKHPAEH@Z@std@@U_Kfn@?$map@GP6AXPAUIClient@@KKHPAEH@ZU?$less@G@std@@V?$allocator@P6AXPAUIClient@@KKHPAEH@Z@3@@2@U?$less@G@2@V?$allocator@P6AXPAUIClient@@KKHPAEH@Z@2@@std@@QAE?AViterator@12@XZ 1006a820 f i KNewProtocolProcess.obj
 0001:00069850       ?end@?$_Tree@GU?$pair@$$CBGP6AXPAUIClient@@KKHPAEH@Z@std@@U_Kfn@?$map@GP6AXPAUIClient@@KKHPAEH@ZU?$less@G@std@@V?$allocator@P6AXPAUIClient@@KKHPAEH@Z@3@@2@U?$less@G@2@V?$allocator@P6AXPAUIClient@@KKHPAEH@Z@2@@std@@QAE?AViterator@12@XZ 1006a850 f i KNewProtocolProcess.obj
 0001:00069880       ?erase@?$_Tree@GU?$pair@$$CBGP6AXPAUIClient@@KKHPAEH@Z@std@@U_Kfn@?$map@GP6AXPAUIClient@@KKHPAEH@ZU?$less@G@std@@V?$allocator@P6AXPAUIClient@@KKHPAEH@Z@3@@2@U?$less@G@2@V?$allocator@P6AXPAUIClient@@KKHPAEH@Z@2@@std@@QAE?AViterator@12@V312@0@Z 1006a880 f i KNewProtocolProcess.obj
 0001:000699c0       ?_Freenode@?$_Tree@GU?$pair@$$CBGP6AXPAUIClient@@KKHPAEH@Z@std@@U_Kfn@?$map@GP6AXPAUIClient@@KKHPAEH@ZU?$less@G@std@@V?$allocator@P6AXPAUIClient@@KKHPAEH@Z@3@@2@U?$less@G@2@V?$allocator@P6AXPAUIClient@@KKHPAEH@Z@2@@std@@IAEXPAU_Node@12@@Z 1006a9c0 f i KNewProtocolProcess.obj
 0001:000699e0       ??0?$pair@$$CBGP6AXPAUIClient@@KKHPAEH@Z@std@@QAE@ABGABQ6AXPAUIClient@@KKHPAEH@Z@Z 1006a9e0 f i KNewProtocolProcess.obj
 0001:00069a10       ??Diterator@?$_Tree@GU?$pair@$$CBGP6AXPAUIClient@@KKHPAEH@Z@std@@U_Kfn@?$map@GP6AXPAUIClient@@KKHPAEH@ZU?$less@G@std@@V?$allocator@P6AXPAUIClient@@KKHPAEH@Z@3@@2@U?$less@G@2@V?$allocator@P6AXPAUIClient@@KKHPAEH@Z@2@@std@@QBEAAU?$pair@$$CBGP6AXPAUIClient@@KKHPAEH@Z@2@XZ 1006aa10 f i KNewProtocolProcess.obj
 0001:00069a30       ?_Charalloc@?$allocator@PAVCBuffer@Win32@OnlineGameLib@@@std@@QAEPADI@Z 1006aa30 f i KNewProtocolProcess.obj
 0001:00069a50       ?deallocate@?$allocator@PAVCBuffer@Win32@OnlineGameLib@@@std@@QAEXPAXI@Z 1006aa50 f i KNewProtocolProcess.obj
 0001:00069a70       ?construct@?$allocator@PAVCBuffer@Win32@OnlineGameLib@@@std@@QAEXPAPAVCBuffer@Win32@OnlineGameLib@@ABQAV345@@Z 1006aa70 f i KNewProtocolProcess.obj
 0001:00069a90       ?erase@?$list@PAVCBuffer@Win32@OnlineGameLib@@V?$allocator@PAVCBuffer@Win32@OnlineGameLib@@@std@@@std@@QAE?AViterator@12@V312@@Z 1006aa90 f i KNewProtocolProcess.obj
 0001:00069b50       ?_Prev@_Acc@?$list@PAVCBuffer@Win32@OnlineGameLib@@V?$allocator@PAVCBuffer@Win32@OnlineGameLib@@@std@@@std@@SAAAPAU_Node@23@PAU423@@Z 1006ab50 f i KNewProtocolProcess.obj
 0001:00069b60       ??0const_iterator@?$list@PAVCBuffer@Win32@OnlineGameLib@@V?$allocator@PAVCBuffer@Win32@OnlineGameLib@@@std@@@std@@QAE@PAU_Node@12@@Z 1006ab60 f i KNewProtocolProcess.obj
 0001:00069b80       ?_Mynode@const_iterator@?$list@PAVCBuffer@Win32@OnlineGameLib@@V?$allocator@PAVCBuffer@Win32@OnlineGameLib@@@std@@@std@@QBEPAU_Node@23@XZ 1006ab80 f i KNewProtocolProcess.obj
 0001:00069b90       ??Eiterator@?$list@PAVCBuffer@Win32@OnlineGameLib@@V?$allocator@PAVCBuffer@Win32@OnlineGameLib@@@std@@@std@@QAE?AV012@H@Z 1006ab90 f i KNewProtocolProcess.obj
 0001:00069bc0       ?deallocate@?$allocator@P6AXPAUIClient@@KKHPAEH@Z@std@@QAEXPAXI@Z 1006abc0 f i KNewProtocolProcess.obj
 0001:00069be0       ?_Value@?$_Tree@GU?$pair@$$CBGP6AXPAUIClient@@KKHPAEH@Z@std@@U_Kfn@?$map@GP6AXPAUIClient@@KKHPAEH@ZU?$less@G@std@@V?$allocator@P6AXPAUIClient@@KKHPAEH@Z@3@@2@U?$less@G@2@V?$allocator@P6AXPAUIClient@@KKHPAEH@Z@2@@std@@KAAAU?$pair@$$CBGP6AXPAUIClient@@KKHPAEH@Z@2@PAU_Node@12@@Z 1006abe0 f i KNewProtocolProcess.obj
 0001:00069bf0       ?size@?$_Tree@GU?$pair@$$CBGP6AXPAUIClient@@KKHPAEH@Z@std@@U_Kfn@?$map@GP6AXPAUIClient@@KKHPAEH@ZU?$less@G@std@@V?$allocator@P6AXPAUIClient@@KKHPAEH@Z@3@@2@U?$less@G@2@V?$allocator@P6AXPAUIClient@@KKHPAEH@Z@2@@std@@QBEIXZ 1006abf0 f i KNewProtocolProcess.obj
 0001:00069c10       ?insert@?$_Tree@GU?$pair@$$CBGP6AXPAUIClient@@KKHPAEH@Z@std@@U_Kfn@?$map@GP6AXPAUIClient@@KKHPAEH@ZU?$less@G@std@@V?$allocator@P6AXPAUIClient@@KKHPAEH@Z@3@@2@U?$less@G@2@V?$allocator@P6AXPAUIClient@@KKHPAEH@Z@2@@std@@QAE?AU?$pair@Viterator@?$_Tree@GU?$pair@$$CBGP6AXPAUIClient@@KKHPAEH@Z@std@@U_Kfn@?$map@GP6AXPAUIClient@@KKHPAEH@ZU?$less@G@std@@V?$allocator@P6AXPAUIClient@@KKHPAEH@Z@3@@2@U?$less@G@2@V?$allocator@P6AXPAUIClient@@KKHPAEH@Z@2@@std@@_N@2@ABU?$pair@$$CBGP6AXPAUIClient@@KKHPAEH@Z@2@@Z 1006ac10 f i KNewProtocolProcess.obj
 0001:00069e50       ?erase@?$_Tree@GU?$pair@$$CBGP6AXPAUIClient@@KKHPAEH@Z@std@@U_Kfn@?$map@GP6AXPAUIClient@@KKHPAEH@ZU?$less@G@std@@V?$allocator@P6AXPAUIClient@@KKHPAEH@Z@3@@2@U?$less@G@2@V?$allocator@P6AXPAUIClient@@KKHPAEH@Z@2@@std@@QAE?AViterator@12@V312@@Z 1006ae50 f i KNewProtocolProcess.obj
 0001:0006a6a0       ?_Erase@?$_Tree@GU?$pair@$$CBGP6AXPAUIClient@@KKHPAEH@Z@std@@U_Kfn@?$map@GP6AXPAUIClient@@KKHPAEH@ZU?$less@G@std@@V?$allocator@P6AXPAUIClient@@KKHPAEH@Z@3@@2@U?$less@G@2@V?$allocator@P6AXPAUIClient@@KKHPAEH@Z@2@@std@@IAEXPAU_Node@12@@Z 1006b6a0 f i KNewProtocolProcess.obj
 0001:0006a750       ?_Init@?$_Tree@GU?$pair@$$CBGP6AXPAUIClient@@KKHPAEH@Z@std@@U_Kfn@?$map@GP6AXPAUIClient@@KKHPAEH@ZU?$less@G@std@@V?$allocator@P6AXPAUIClient@@KKHPAEH@Z@3@@2@U?$less@G@2@V?$allocator@P6AXPAUIClient@@KKHPAEH@Z@2@@std@@IAEXXZ 1006b750 f i KNewProtocolProcess.obj
 0001:0006a830       ?_Lmost@?$_Tree@GU?$pair@$$CBGP6AXPAUIClient@@KKHPAEH@Z@std@@U_Kfn@?$map@GP6AXPAUIClient@@KKHPAEH@ZU?$less@G@std@@V?$allocator@P6AXPAUIClient@@KKHPAEH@Z@3@@2@U?$less@G@2@V?$allocator@P6AXPAUIClient@@KKHPAEH@Z@2@@std@@IAEAAPAU_Node@12@XZ 1006b830 f i KNewProtocolProcess.obj
 0001:0006a850       ?_Rmost@?$_Tree@GU?$pair@$$CBGP6AXPAUIClient@@KKHPAEH@Z@std@@U_Kfn@?$map@GP6AXPAUIClient@@KKHPAEH@ZU?$less@G@std@@V?$allocator@P6AXPAUIClient@@KKHPAEH@Z@3@@2@U?$less@G@2@V?$allocator@P6AXPAUIClient@@KKHPAEH@Z@2@@std@@IAEAAPAU_Node@12@XZ 1006b850 f i KNewProtocolProcess.obj
 0001:0006a870       ?_Root@?$_Tree@GU?$pair@$$CBGP6AXPAUIClient@@KKHPAEH@Z@std@@U_Kfn@?$map@GP6AXPAUIClient@@KKHPAEH@ZU?$less@G@std@@V?$allocator@P6AXPAUIClient@@KKHPAEH@Z@3@@2@U?$less@G@2@V?$allocator@P6AXPAUIClient@@KKHPAEH@Z@2@@std@@IAEAAPAU_Node@12@XZ 1006b870 f i KNewProtocolProcess.obj
 0001:0006a890       ??0iterator@?$_Tree@GU?$pair@$$CBGP6AXPAUIClient@@KKHPAEH@Z@std@@U_Kfn@?$map@GP6AXPAUIClient@@KKHPAEH@ZU?$less@G@std@@V?$allocator@P6AXPAUIClient@@KKHPAEH@Z@3@@2@U?$less@G@2@V?$allocator@P6AXPAUIClient@@KKHPAEH@Z@2@@std@@QAE@PAU_Node@12@@Z 1006b890 f i KNewProtocolProcess.obj
 0001:0006a8b0       ??Eiterator@?$_Tree@GU?$pair@$$CBGP6AXPAUIClient@@KKHPAEH@Z@std@@U_Kfn@?$map@GP6AXPAUIClient@@KKHPAEH@ZU?$less@G@std@@V?$allocator@P6AXPAUIClient@@KKHPAEH@Z@3@@2@U?$less@G@2@V?$allocator@P6AXPAUIClient@@KKHPAEH@Z@2@@std@@QAE?AV012@H@Z 1006b8b0 f i KNewProtocolProcess.obj
 0001:0006a8e0       ??9iterator@?$_Tree@GU?$pair@$$CBGP6AXPAUIClient@@KKHPAEH@Z@std@@U_Kfn@?$map@GP6AXPAUIClient@@KKHPAEH@ZU?$less@G@std@@V?$allocator@P6AXPAUIClient@@KKHPAEH@Z@3@@2@U?$less@G@2@V?$allocator@P6AXPAUIClient@@KKHPAEH@Z@2@@std@@QBE_NABV012@@Z 1006b8e0 f i KNewProtocolProcess.obj
 0001:0006a910       ??0?$pair@Viterator@?$_Tree@GU?$pair@$$CBGP6AXPAUIClient@@KKHPAEH@Z@std@@U_Kfn@?$map@GP6AXPAUIClient@@KKHPAEH@ZU?$less@G@std@@V?$allocator@P6AXPAUIClient@@KKHPAEH@Z@3@@2@U?$less@G@2@V?$allocator@P6AXPAUIClient@@KKHPAEH@Z@2@@std@@_N@std@@QAE@ABViterator@?$_Tree@GU?$pair@$$CBGP6AXPAUIClient@@KKHPAEH@Z@std@@U_Kfn@?$map@GP6AXPAUIClient@@KKHPAEH@ZU?$less@G@std@@V?$allocator@P6AXPAUIClient@@KKHPAEH@Z@3@@2@U?$less@G@2@V?$allocator@P6AXPAUIClient@@KKHPAEH@Z@2@@1@AB_N@Z 1006b910 f i KNewProtocolProcess.obj
 0001:0006a940       ?destroy@?$allocator@PAVCBuffer@Win32@OnlineGameLib@@@std@@QAEXPAPAVCBuffer@Win32@OnlineGameLib@@@Z 1006b940 f i KNewProtocolProcess.obj
 0001:0006a960       ??R_Kfn@?$map@GP6AXPAUIClient@@KKHPAEH@ZU?$less@G@std@@V?$allocator@P6AXPAUIClient@@KKHPAEH@Z@3@@std@@QBEABGABU?$pair@$$CBGP6AXPAUIClient@@KKHPAEH@Z@2@@Z 1006b960 f i KNewProtocolProcess.obj
 0001:0006a970       ??R?$less@G@std@@QBE_NABG0@Z 1006b970 f i KNewProtocolProcess.obj
 0001:0006a9a0       ?_Color@?$_Tree@GU?$pair@$$CBGP6AXPAUIClient@@KKHPAEH@Z@std@@U_Kfn@?$map@GP6AXPAUIClient@@KKHPAEH@ZU?$less@G@std@@V?$allocator@P6AXPAUIClient@@KKHPAEH@Z@3@@2@U?$less@G@2@V?$allocator@P6AXPAUIClient@@KKHPAEH@Z@2@@std@@KAAAW4_Redbl@12@PAU_Node@12@@Z 1006b9a0 f i KNewProtocolProcess.obj
 0001:0006a9b0       ?_Key@?$_Tree@GU?$pair@$$CBGP6AXPAUIClient@@KKHPAEH@Z@std@@U_Kfn@?$map@GP6AXPAUIClient@@KKHPAEH@ZU?$less@G@std@@V?$allocator@P6AXPAUIClient@@KKHPAEH@Z@3@@2@U?$less@G@2@V?$allocator@P6AXPAUIClient@@KKHPAEH@Z@2@@std@@KAABGPAU_Node@12@@Z 1006b9b0 f i KNewProtocolProcess.obj
 0001:0006a9d0       ?_Left@?$_Tree@GU?$pair@$$CBGP6AXPAUIClient@@KKHPAEH@Z@std@@U_Kfn@?$map@GP6AXPAUIClient@@KKHPAEH@ZU?$less@G@std@@V?$allocator@P6AXPAUIClient@@KKHPAEH@Z@3@@2@U?$less@G@2@V?$allocator@P6AXPAUIClient@@KKHPAEH@Z@2@@std@@KAAAPAU_Node@12@PAU312@@Z 1006b9d0 f i KNewProtocolProcess.obj
 0001:0006a9e0       ?_Parent@?$_Tree@GU?$pair@$$CBGP6AXPAUIClient@@KKHPAEH@Z@std@@U_Kfn@?$map@GP6AXPAUIClient@@KKHPAEH@ZU?$less@G@std@@V?$allocator@P6AXPAUIClient@@KKHPAEH@Z@3@@2@U?$less@G@2@V?$allocator@P6AXPAUIClient@@KKHPAEH@Z@2@@std@@KAAAPAU_Node@12@PAU312@@Z 1006b9e0 f i KNewProtocolProcess.obj
 0001:0006a9f0       ?_Right@?$_Tree@GU?$pair@$$CBGP6AXPAUIClient@@KKHPAEH@Z@std@@U_Kfn@?$map@GP6AXPAUIClient@@KKHPAEH@ZU?$less@G@std@@V?$allocator@P6AXPAUIClient@@KKHPAEH@Z@3@@2@U?$less@G@2@V?$allocator@P6AXPAUIClient@@KKHPAEH@Z@2@@std@@KAAAPAU_Node@12@PAU312@@Z 1006b9f0 f i KNewProtocolProcess.obj
 0001:0006aa00       ?_Insert@?$_Tree@GU?$pair@$$CBGP6AXPAUIClient@@KKHPAEH@Z@std@@U_Kfn@?$map@GP6AXPAUIClient@@KKHPAEH@ZU?$less@G@std@@V?$allocator@P6AXPAUIClient@@KKHPAEH@Z@3@@2@U?$less@G@2@V?$allocator@P6AXPAUIClient@@KKHPAEH@Z@2@@std@@IAE?AViterator@12@PAU_Node@12@0ABU?$pair@$$CBGP6AXPAUIClient@@KKHPAEH@Z@2@@Z 1006ba00 f i KNewProtocolProcess.obj
 0001:0006aed0       ?_Lrotate@?$_Tree@GU?$pair@$$CBGP6AXPAUIClient@@KKHPAEH@Z@std@@U_Kfn@?$map@GP6AXPAUIClient@@KKHPAEH@ZU?$less@G@std@@V?$allocator@P6AXPAUIClient@@KKHPAEH@Z@3@@2@U?$less@G@2@V?$allocator@P6AXPAUIClient@@KKHPAEH@Z@2@@std@@IAEXPAU_Node@12@@Z 1006bed0 f i KNewProtocolProcess.obj
 0001:0006b040       ?_Max@?$_Tree@GU?$pair@$$CBGP6AXPAUIClient@@KKHPAEH@Z@std@@U_Kfn@?$map@GP6AXPAUIClient@@KKHPAEH@ZU?$less@G@std@@V?$allocator@P6AXPAUIClient@@KKHPAEH@Z@3@@2@U?$less@G@2@V?$allocator@P6AXPAUIClient@@KKHPAEH@Z@2@@std@@KAPAU_Node@12@PAU312@@Z 1006c040 f i KNewProtocolProcess.obj
 0001:0006b0c0       ?_Min@?$_Tree@GU?$pair@$$CBGP6AXPAUIClient@@KKHPAEH@Z@std@@U_Kfn@?$map@GP6AXPAUIClient@@KKHPAEH@ZU?$less@G@std@@V?$allocator@P6AXPAUIClient@@KKHPAEH@Z@3@@2@U?$less@G@2@V?$allocator@P6AXPAUIClient@@KKHPAEH@Z@2@@std@@KAPAU_Node@12@PAU312@@Z 1006c0c0 f i KNewProtocolProcess.obj
 0001:0006b140       ?_Rrotate@?$_Tree@GU?$pair@$$CBGP6AXPAUIClient@@KKHPAEH@Z@std@@U_Kfn@?$map@GP6AXPAUIClient@@KKHPAEH@ZU?$less@G@std@@V?$allocator@P6AXPAUIClient@@KKHPAEH@Z@3@@2@U?$less@G@2@V?$allocator@P6AXPAUIClient@@KKHPAEH@Z@2@@std@@IAEXPAU_Node@12@@Z 1006c140 f i KNewProtocolProcess.obj
 0001:0006b2b0       ?_Buynode@?$_Tree@GU?$pair@$$CBGP6AXPAUIClient@@KKHPAEH@Z@std@@U_Kfn@?$map@GP6AXPAUIClient@@KKHPAEH@ZU?$less@G@std@@V?$allocator@P6AXPAUIClient@@KKHPAEH@Z@3@@2@U?$less@G@2@V?$allocator@P6AXPAUIClient@@KKHPAEH@Z@2@@std@@IAEPAU_Node@12@PAU312@W4_Redbl@12@@Z 1006c2b0 f i KNewProtocolProcess.obj
 0001:0006b300       ?_Destval@?$_Tree@GU?$pair@$$CBGP6AXPAUIClient@@KKHPAEH@Z@std@@U_Kfn@?$map@GP6AXPAUIClient@@KKHPAEH@ZU?$less@G@std@@V?$allocator@P6AXPAUIClient@@KKHPAEH@Z@3@@2@U?$less@G@2@V?$allocator@P6AXPAUIClient@@KKHPAEH@Z@2@@std@@IAEXPAU?$pair@$$CBGP6AXPAUIClient@@KKHPAEH@Z@2@@Z 1006c300 f i KNewProtocolProcess.obj
 0001:0006b320       ??0const_iterator@?$_Tree@GU?$pair@$$CBGP6AXPAUIClient@@KKHPAEH@Z@std@@U_Kfn@?$map@GP6AXPAUIClient@@KKHPAEH@ZU?$less@G@std@@V?$allocator@P6AXPAUIClient@@KKHPAEH@Z@3@@2@U?$less@G@2@V?$allocator@P6AXPAUIClient@@KKHPAEH@Z@2@@std@@QAE@PAU_Node@12@@Z 1006c320 f i KNewProtocolProcess.obj
 0001:0006b340       ?_Mynode@const_iterator@?$_Tree@GU?$pair@$$CBGP6AXPAUIClient@@KKHPAEH@Z@std@@U_Kfn@?$map@GP6AXPAUIClient@@KKHPAEH@ZU?$less@G@std@@V?$allocator@P6AXPAUIClient@@KKHPAEH@Z@3@@2@U?$less@G@2@V?$allocator@P6AXPAUIClient@@KKHPAEH@Z@2@@std@@QBEPAU_Node@23@XZ 1006c340 f i KNewProtocolProcess.obj
 0001:0006b350       ??Eiterator@?$_Tree@GU?$pair@$$CBGP6AXPAUIClient@@KKHPAEH@Z@std@@U_Kfn@?$map@GP6AXPAUIClient@@KKHPAEH@ZU?$less@G@std@@V?$allocator@P6AXPAUIClient@@KKHPAEH@Z@3@@2@U?$less@G@2@V?$allocator@P6AXPAUIClient@@KKHPAEH@Z@2@@std@@QAEAAV012@XZ 1006c350 f i KNewProtocolProcess.obj
 0001:0006b370       ??Fiterator@?$_Tree@GU?$pair@$$CBGP6AXPAUIClient@@KKHPAEH@Z@std@@U_Kfn@?$map@GP6AXPAUIClient@@KKHPAEH@ZU?$less@G@std@@V?$allocator@P6AXPAUIClient@@KKHPAEH@Z@3@@2@U?$less@G@2@V?$allocator@P6AXPAUIClient@@KKHPAEH@Z@2@@std@@QAEAAV012@XZ 1006c370 f i KNewProtocolProcess.obj
 0001:0006b390       ??8iterator@?$_Tree@GU?$pair@$$CBGP6AXPAUIClient@@KKHPAEH@Z@std@@U_Kfn@?$map@GP6AXPAUIClient@@KKHPAEH@ZU?$less@G@std@@V?$allocator@P6AXPAUIClient@@KKHPAEH@Z@3@@2@U?$less@G@2@V?$allocator@P6AXPAUIClient@@KKHPAEH@Z@2@@std@@QBE_NABV012@@Z 1006c390 f i KNewProtocolProcess.obj
 0001:0006b3b0       ?_Charalloc@?$allocator@P6AXPAUIClient@@KKHPAEH@Z@std@@QAEPADI@Z 1006c3b0 f i KNewProtocolProcess.obj
 0001:0006b3d0       ?_Consval@?$_Tree@GU?$pair@$$CBGP6AXPAUIClient@@KKHPAEH@Z@std@@U_Kfn@?$map@GP6AXPAUIClient@@KKHPAEH@ZU?$less@G@std@@V?$allocator@P6AXPAUIClient@@KKHPAEH@Z@3@@2@U?$less@G@2@V?$allocator@P6AXPAUIClient@@KKHPAEH@Z@2@@std@@IAEXPAU?$pair@$$CBGP6AXPAUIClient@@KKHPAEH@Z@2@ABU32@@Z 1006c3d0 f i KNewProtocolProcess.obj
 0001:0006b3f0       ?_Dec@const_iterator@?$_Tree@GU?$pair@$$CBGP6AXPAUIClient@@KKHPAEH@Z@std@@U_Kfn@?$map@GP6AXPAUIClient@@KKHPAEH@ZU?$less@G@std@@V?$allocator@P6AXPAUIClient@@KKHPAEH@Z@3@@2@U?$less@G@2@V?$allocator@P6AXPAUIClient@@KKHPAEH@Z@2@@std@@QAEXXZ 1006c3f0 f i KNewProtocolProcess.obj
 0001:0006b500       ?_Inc@const_iterator@?$_Tree@GU?$pair@$$CBGP6AXPAUIClient@@KKHPAEH@Z@std@@U_Kfn@?$map@GP6AXPAUIClient@@KKHPAEH@ZU?$less@G@std@@V?$allocator@P6AXPAUIClient@@KKHPAEH@Z@3@@2@U?$less@G@2@V?$allocator@P6AXPAUIClient@@KKHPAEH@Z@2@@std@@QAEXXZ 1006c500 f i KNewProtocolProcess.obj
 0001:0006b5e0       ?_Construct@std@@YAXPAPAVCBuffer@Win32@OnlineGameLib@@ABQAV234@@Z 1006c5e0 f i KNewProtocolProcess.obj
 0001:0006b620       ??2@YAPAXIPAX@Z            1006c620 f i KNewProtocolProcess.obj
 0001:0006b630       ?swap@std@@YAXAAW4_Redbl@?$_Tree@GU?$pair@$$CBGP6AXPAUIClient@@KKHPAEH@Z@std@@U_Kfn@?$map@GP6AXPAUIClient@@KKHPAEH@ZU?$less@G@std@@V?$allocator@P6AXPAUIClient@@KKHPAEH@Z@3@@2@U?$less@G@2@V?$allocator@P6AXPAUIClient@@KKHPAEH@Z@2@@1@0@Z 1006c630 f i KNewProtocolProcess.obj
 0001:0006b660       ?_Destroy@std@@YAXPAPAVCBuffer@Win32@OnlineGameLib@@@Z 1006c660 f i KNewProtocolProcess.obj
 0001:0006b670       ?_Destroy@std@@YAXPAU?$pair@$$CBGP6AXPAUIClient@@KKHPAEH@Z@1@@Z 1006c670 f i KNewProtocolProcess.obj
 0001:0006b680       ?_Construct@std@@YAXPAU?$pair@$$CBGP6AXPAUIClient@@KKHPAEH@Z@1@ABU21@@Z 1006c680 f i KNewProtocolProcess.obj
 0001:0006b6c0       ?g_InitProtocol@@YAXXZ     1006c6c0 f   KProtocol.obj
 0001:0006b6ed       ?SendServerCmdWalk@@YAXHH@Z 1006c6ed f   KProtocol.obj
 0001:0006b6f2       ?SendServerCmdRun@@YAXHH@Z 1006c6f2 f   KProtocol.obj
 0001:0006b73f       ??0KProtocolProcess@@QAE@XZ 1006c73f f   KProtocolProcess.obj
 0001:0006bad4       ??1KProtocolProcess@@QAE@XZ 1006cad4 f   KProtocolProcess.obj
 0001:0006badf       ?ProcessNetMsg@KProtocolProcess@@QAEXHPAE@Z 1006cadf f   KProtocolProcess.obj
 0001:0006bd80       ?RemoveRole@KProtocolProcess@@AAEXHPAE@Z 1006cd80 f   KProtocolProcess.obj
 0001:0006bd8d       ?NpcRequestCommand@KProtocolProcess@@AAEXHPAE@Z 1006cd8d f   KProtocolProcess.obj
 0001:0006bdc3       ?ObjRequestCommand@KProtocolProcess@@AAEXHPAE@Z 1006cdc3 f   KProtocolProcess.obj
 0001:0006bdf9       ?NpcWalkCommand@KProtocolProcess@@AAEXHPAE@Z 1006cdf9 f   KProtocolProcess.obj
 0001:0006be66       ?NpcRunCommand@KProtocolProcess@@AAEXHPAE@Z 1006ce66 f   KProtocolProcess.obj
 0001:0006bed3       ?NpcSkillCommand@KProtocolProcess@@AAEXHPAE@Z 1006ced3 f   KProtocolProcess.obj
 0001:0006bfaf       ?PlayerApplyTeamInfo@KProtocolProcess@@AAEXHPAE@Z 1006cfaf f   KProtocolProcess.obj
 0001:0006bfd4       ?PlayerApplyCreateTeam@KProtocolProcess@@AAEXHPAE@Z 1006cfd4 f   KProtocolProcess.obj
 0001:0006bff9       ?PlayerApplyTeamChangeState@KProtocolProcess@@AAEXHPAE@Z 1006cff9 f   KProtocolProcess.obj
 0001:0006c01e       ?PlayerApplyAddTeam@KProtocolProcess@@AAEXHPAE@Z 1006d01e f   KProtocolProcess.obj
 0001:0006c043       ?PlayerAcceptTeamMember@KProtocolProcess@@AAEXHPAE@Z 1006d043 f   KProtocolProcess.obj
 0001:0006c068       ?PlayerApplyLeaveTeam@KProtocolProcess@@AAEXHPAE@Z 1006d068 f   KProtocolProcess.obj
 0001:0006c08d       ?PlayerApplyTeamKickMember@KProtocolProcess@@AAEXHPAE@Z 1006d08d f   KProtocolProcess.obj
 0001:0006c0b2       ?PlayerApplyTeamChangeCaptain@KProtocolProcess@@AAEXHPAE@Z 1006d0b2 f   KProtocolProcess.obj
 0001:0006c0d7       ?PlayerApplyTeamDismiss@KProtocolProcess@@AAEXHPAE@Z 1006d0d7 f   KProtocolProcess.obj
 0001:0006c0fc       ?JoinTongReply@KProtocolProcess@@AAEXHPAE@Z 1006d0fc f   KProtocolProcess.obj
 0001:0006c121       ?PlayerApplySetPK@KProtocolProcess@@AAEXHPAE@Z 1006d121 f   KProtocolProcess.obj
 0001:0006c146       ?PlayerAddBaseAttribute@KProtocolProcess@@AAEXHPAE@Z 1006d146 f   KProtocolProcess.obj
 0001:0006c16b       ?PlayerApplyAddSkillPoint@KProtocolProcess@@AAEXHPAE@Z 1006d16b f   KProtocolProcess.obj
 0001:0006c190       ?PlayerEatItem@KProtocolProcess@@AAEXHPAE@Z 1006d190 f   KProtocolProcess.obj
 0001:0006c1d1       ?PlayerPickUpItem@KProtocolProcess@@AAEXHPAE@Z 1006d1d1 f   KProtocolProcess.obj
 0001:0006c212       ?PlayerMoveItem@KProtocolProcess@@AAEXHPAE@Z 1006d212 f   KProtocolProcess.obj
 0001:0006c237       ?PlayerSellItem@KProtocolProcess@@AAEXHPAE@Z 1006d237 f   KProtocolProcess.obj
 0001:0006c278       ?PlayerBuyItem@KProtocolProcess@@AAEXHPAE@Z 1006d278 f   KProtocolProcess.obj
 0001:0006c2b9       ?PlayerDropItem@KProtocolProcess@@AAEXHPAE@Z 1006d2b9 f   KProtocolProcess.obj
 0001:0006c2fa       ?PlayerSelUI@KProtocolProcess@@AAEXHPAE@Z 1006d2fa f   KProtocolProcess.obj
 0001:0006c31f       ?TradeApplyOpen@KProtocolProcess@@AAEXHPAE@Z 1006d31f f   KProtocolProcess.obj
 0001:0006c344       ?TradeApplyClose@KProtocolProcess@@AAEXHPAE@Z 1006d344 f   KProtocolProcess.obj
 0001:0006c369       ?TradeApplyStart@KProtocolProcess@@AAEXHPAE@Z 1006d369 f   KProtocolProcess.obj
 0001:0006c38e       ?TradeMoveMoney@KProtocolProcess@@AAEXHPAE@Z 1006d38e f   KProtocolProcess.obj
 0001:0006c3b3       ?TradeDecision@KProtocolProcess@@AAEXHPAE@Z 1006d3b3 f   KProtocolProcess.obj
 0001:0006c3d8       ?DialogNpc@KProtocolProcess@@AAEXHPAE@Z 1006d3d8 f   KProtocolProcess.obj
 0001:0006c3fd       ?TeamInviteAdd@KProtocolProcess@@AAEXHPAE@Z 1006d3fd f   KProtocolProcess.obj
 0001:0006c426       ?ChangeAuraSkill@KProtocolProcess@@AAEXHPAE@Z 1006d426 f   KProtocolProcess.obj
 0001:0006c462       ?TeamReplyInvite@KProtocolProcess@@AAEXHPAE@Z 1006d462 f   KProtocolProcess.obj
 0001:0006c58c       ?NpcSitCommand@KProtocolProcess@@AAEXHPAE@Z 1006d58c f   KProtocolProcess.obj
 0001:0006c63c       ?ObjMouseClick@KProtocolProcess@@AAEXHPAE@Z 1006d63c f   KProtocolProcess.obj
 0001:0006c8ae       ?StoreMoneyCommand@KProtocolProcess@@AAEXHPAE@Z 1006d8ae f   KProtocolProcess.obj
 0001:0006c90f       ?NpcReviveCommand@KProtocolProcess@@AAEXHPAE@Z 1006d90f f   KProtocolProcess.obj
 0001:0006c952       ?c2sTradeReplyStart@KProtocolProcess@@AAEXHPAE@Z 1006d952 f   KProtocolProcess.obj
 0001:0006c977       ?c2sPKApplyChangeNormalFlag@KProtocolProcess@@AAEXHPAE@Z 1006d977 f   KProtocolProcess.obj
 0001:0006c9a9       ?c2sPKApplyEnmity@KProtocolProcess@@AAEXHPAE@Z 1006d9a9 f   KProtocolProcess.obj
 0001:0006cc16       ?c2sViewEquip@KProtocolProcess@@AAEXHPAE@Z 1006dc16 f   KProtocolProcess.obj
 0001:0006ccca       ?LadderQuery@KProtocolProcess@@AAEXHPAE@Z 1006dcca f   KProtocolProcess.obj
 0001:0006cd92       ?ItemRepair@KProtocolProcess@@AAEXHPAE@Z 1006dd92 f   KProtocolProcess.obj
 0001:0006cdd1       ?TradeSet@KProtocolProcess@@AAEXHPAE@Z 1006ddd1 f   KProtocolProcess.obj
 0001:0006cf53       ?TradeStart@KProtocolProcess@@AAEXHPAE@Z 1006df53 f   KProtocolProcess.obj
 0001:0006cf87       ?TradeView@KProtocolProcess@@AAEXHPAE@Z 1006df87 f   KProtocolProcess.obj
 0001:0006cfff       ?TradeBuy@KProtocolProcess@@AAEXHPAE@Z 1006dfff f   KProtocolProcess.obj
 0001:0006d454       ?TradeEnd@KProtocolProcess@@AAEXHPAE@Z 1006e454 f   KProtocolProcess.obj
 0001:0006d484       ?NpcHorseCommand@KProtocolProcess@@AAEXHPAE@Z 1006e484 f   KProtocolProcess.obj
 0001:0006d54e       ?PlayerCommand@KProtocolProcess@@AAEXHPAE@Z 1006e54e f   KProtocolProcess.obj
 0001:0006d790       ?InputCommand@KProtocolProcess@@AAEXHPAE@Z 1006e790 f   KProtocolProcess.obj
 0001:0006d80e       ?UnlockCommand@KProtocolProcess@@AAEXHPAE@Z 1006e80e f   KProtocolProcess.obj
 0001:0006d84d       ?BreakCommand@KProtocolProcess@@AAEXHPAE@Z 1006e84d f   KProtocolProcess.obj
 0001:0006d8c0       ?SparApplyStart@KProtocolProcess@@AAEXHPAE@Z 1006e8c0 f   KProtocolProcess.obj
 0001:0006d8f4       ?LockMove@KProtocolProcess@@AAEXHPAE@Z 1006e8f4 f   KProtocolProcess.obj
 0001:0006d933       ?ChatRoomDecision@KProtocolProcess@@AAEXHPAE@Z 1006e933 f   KProtocolProcess.obj
 0001:0006da24       ?c2sSetImage@KProtocolProcess@@AAEXHPAE@Z 1006ea24 f   KProtocolProcess.obj
 0001:0006da90       ?GetCreatTeamFlag@KPlayerTeam@@QAEHXZ 1006ea90 f i KProtocolProcess.obj
 0001:0006daf1       ?LuaGetBit@@YAHPAUlua_State@@@Z 1006eaf1 f   ScriptFuns.obj
 0001:0006db78       ?LuaSetBit@@YAHPAUlua_State@@@Z 1006eb78 f   ScriptFuns.obj
 0001:0006dc15       ?LuaGetByte@@YAHPAUlua_State@@@Z 1006ec15 f   ScriptFuns.obj
 0001:0006dca6       ?LuaSetByte@@YAHPAUlua_State@@@Z 1006eca6 f   ScriptFuns.obj
 0001:0006dd46       ?GetSubWorldIndex@@YAHPAUlua_State@@@Z 1006ed46 f   ScriptFuns.obj
 0001:0006dde5       ?LuaSubWorldIDToIndex@@YAHPAUlua_State@@@Z 1006ede5 f   ScriptFuns.obj
 0001:0006de58       ?LuaSubWorldIndexToID@@YAHPAUlua_State@@@Z 1006ee58 f   ScriptFuns.obj
 0001:0006decc       ?LuaSelectUI@@YAHPAUlua_State@@@Z 1006eecc f   ScriptFuns.obj
 0001:0006e57a       ?LuaAddGlobalNews@@YAHPAUlua_State@@@Z 1006f57a f   ScriptFuns.obj
 0001:0006e6df       ?LuaAddGlobalNews2@@YAHPAUlua_State@@@Z 1006f6df f   ScriptFuns.obj
 0001:0006e844       ?LuaAddLocalNews@@YAHPAUlua_State@@@Z 1006f844 f   ScriptFuns.obj
 0001:0006e9a9       ?LuaAddGlobalCountNews@@YAHPAUlua_State@@@Z 1006f9a9 f   ScriptFuns.obj
 0001:0006eb01       ?LuaAddGlobalCountNews2@@YAHPAUlua_State@@@Z 1006fb01 f   ScriptFuns.obj
 0001:0006ec59       ?LuaAddLocalCountNews@@YAHPAUlua_State@@@Z 1006fc59 f   ScriptFuns.obj
 0001:0006edb1       ?LuaAddGlobalTimeNews@@YAHPAUlua_State@@@Z 1006fdb1 f   ScriptFuns.obj
 0001:0006ef99       ?LuaAddGlobalTimeNews2@@YAHPAUlua_State@@@Z 1006ff99 f   ScriptFuns.obj
 0001:0006f181       ?LuaAddLocalTimeNews@@YAHPAUlua_State@@@Z 10070181 f   ScriptFuns.obj
 0001:0006f369       ?LuaAddNote@@YAHPAUlua_State@@@Z 10070369 f   ScriptFuns.obj
 0001:0006f4f9       ?LuaAddMissionNote@@YAHPAUlua_State@@@Z 100704f9 f   ScriptFuns.obj
 0001:0006f668       ?LuaTalkUI@@YAHPAUlua_State@@@Z 10070668 f   ScriptFuns.obj
 0001:0006fa44       ?LuaSelUI@@YAHPAUlua_State@@@Z 10070a44 f   ScriptFuns.obj
 0001:0006fdef       ?LuaIncludeFile@@YAHPAUlua_State@@@Z 10070def f   ScriptFuns.obj
 0001:0006ffb4       ?LuaGetTaskValue@@YAHPAUlua_State@@@Z 10070fb4 f   ScriptFuns.obj
 0001:00070030       ?LuaGetTaskString@@YAHPAUlua_State@@@Z 10071030 f   ScriptFuns.obj
 0001:00070098       ?LuaSetTaskValue@@YAHPAUlua_State@@@Z 10071098 f   ScriptFuns.obj
 0001:00070108       ?LuaSyncTaskValue@@YAHPAUlua_State@@@Z 10071108 f   ScriptFuns.obj
 0001:0007015c       ?LuaGetTempTaskValue@@YAHPAUlua_State@@@Z 1007115c f   ScriptFuns.obj
 0001:00070202       ?LuaGetTempTaskString@@YAHPAUlua_State@@@Z 10071202 f   ScriptFuns.obj
 0001:0007029d       ?LuaSetTempTaskValue@@YAHPAUlua_State@@@Z 1007129d f   ScriptFuns.obj
 0001:00070348       ?LuaSale@@YAHPAUlua_State@@@Z 10071348 f   ScriptFuns.obj
 0001:000703de       ?LuaNewSale@@YAHPAUlua_State@@@Z 100713de f   ScriptFuns.obj
 0001:000704e4       ?LuaOpenBox@@YAHPAUlua_State@@@Z 100714e4 f   ScriptFuns.obj
 0001:0007057e       ?LuaOpenEquipEx@@YAHPAUlua_State@@@Z 1007157e f   ScriptFuns.obj
 0001:000705eb       ?LuaSetTimer@@YAHPAUlua_State@@@Z 100715eb f   ScriptFuns.obj
 0001:00070668       ?LuaStopTimer@@YAHPAUlua_State@@@Z 10071668 f   ScriptFuns.obj
 0001:0007069f       ?LuaGetCurTimerId@@YAHPAUlua_State@@@Z 1007169f f   ScriptFuns.obj
 0001:00070708       ?LuaGetRestTime@@YAHPAUlua_State@@@Z 10071708 f   ScriptFuns.obj
 0001:00070786       ?LuaGetMissionRestTime@@YAHPAUlua_State@@@Z 10071786 f   ScriptFuns.obj
 0001:000708bb       ?LuaIsLeader@@YAHPAUlua_State@@@Z 100718bb f   ScriptFuns.obj
 0001:0007093b       ?LuaGetTeamId@@YAHPAUlua_State@@@Z 1007193b f   ScriptFuns.obj
 0001:000709af       ?LuaTeamDoScript@@YAHPAUlua_State@@@Z 100719af f   ScriptFuns.obj
 0001:00070b5b       ?LuaGetTeamSize@@YAHPAUlua_State@@@Z 10071b5b f   ScriptFuns.obj
 0001:00070c1c       ?LuaGetTeamMem@@YAHPAUlua_State@@@Z 10071c1c f   ScriptFuns.obj
 0001:00070d27       ?LuaLeaveTeam@@YAHPAUlua_State@@@Z 10071d27 f   ScriptFuns.obj
 0001:00070d7d       ?LuaSetCreateTeamOption@@YAHPAUlua_State@@@Z 10071d7d f   ScriptFuns.obj
 0001:00070dd0       ?LuaSetFreezeTeamOption@@YAHPAUlua_State@@@Z 10071dd0 f   ScriptFuns.obj
 0001:00070e23       ?LuaMsgToPlayer@@YAHPAUlua_State@@@Z 10071e23 f   ScriptFuns.obj
 0001:00070ed0       ?LuaMsgToTeam@@YAHPAUlua_State@@@Z 10071ed0 f   ScriptFuns.obj
 0001:00070f52       ?LuaMsgToSubWorld@@YAHPAUlua_State@@@Z 10071f52 f   ScriptFuns.obj
 0001:00070fe5       ?LuaMsgToTong@@YAHPAUlua_State@@@Z 10071fe5 f   ScriptFuns.obj
 0001:000710cb       ?LuaMsgToFaction@@YAHPAUlua_State@@@Z 100720cb f   ScriptFuns.obj
 0001:000711b1       ?LuaMsgToChatRoom@@YAHPAUlua_State@@@Z 100721b1 f   ScriptFuns.obj
 0001:00071297       ?LuaMsgToAroundRegion@@YAHPAUlua_State@@@Z 10072297 f   ScriptFuns.obj
 0001:000713ab       ?LuaEnterNewWorld@@YAHPAUlua_State@@@Z 100723ab f   ScriptFuns.obj
 0001:00071473       ?LuaNpcEnterNewWorld@@YAHPAUlua_State@@@Z 10072473 f   ScriptFuns.obj
 0001:0007155b       ?LuaSetPos@@YAHPAUlua_State@@@Z 1007255b f   ScriptFuns.obj
 0001:000715f2       ?LuaGetPos@@YAHPAUlua_State@@@Z 100725f2 f   ScriptFuns.obj
 0001:000716b0       ?LuaGetNewWorldPos@@YAHPAUlua_State@@@Z 100726b0 f   ScriptFuns.obj
 0001:000717c7       ?LuaGetNewWorldName@@YAHPAUlua_State@@@Z 100727c7 f   ScriptFuns.obj
 0001:00071889       ?LuaGetNewWorldKind@@YAHPAUlua_State@@@Z 10072889 f   ScriptFuns.obj
 0001:0007195f       ?LuaGetNpcPos@@YAHPAUlua_State@@@Z 1007295f f   ScriptFuns.obj
 0001:00071a6d       ?LuaDropMoney@@YAHPAUlua_State@@@Z 10072a6d f   ScriptFuns.obj
 0001:00071c77       ?LuaDropItem@@YAHPAUlua_State@@@Z 10072c77 f   ScriptFuns.obj
 0001:00071fc2       ?LuaDropMapItem@@YAHPAUlua_State@@@Z 10072fc2 f   ScriptFuns.obj
 0001:0007238c       ?LuaAddItem@@YAHPAUlua_State@@@Z 1007338c f   ScriptFuns.obj
 0001:00072661       ?LuaAddItemIdx@@YAHPAUlua_State@@@Z 10073661 f   ScriptFuns.obj
 0001:00072718       ?LuaAddItemID@@YAHPAUlua_State@@@Z 10073718 f   ScriptFuns.obj
 0001:00072a18       ?LuaAddItemIDStack@@YAHPAUlua_State@@@Z 10073a18 f   ScriptFuns.obj
 0001:00072cff       ?LuaGetMagicAttrib@@YAHPAUlua_State@@@Z 10073cff f   ScriptFuns.obj
 0001:00072e50       ?LuaSetMagicAttrib@@YAHPAUlua_State@@@Z 10073e50 f   ScriptFuns.obj
 0001:000730f8       ?LuaAddMagic@@YAHPAUlua_State@@@Z 100740f8 f   ScriptFuns.obj
 0001:00073335       ?LuaDelMagic@@YAHPAUlua_State@@@Z 10074335 f   ScriptFuns.obj
 0001:00073422       ?LuaDelAllMagic@@YAHPAUlua_State@@@Z 10074422 f   ScriptFuns.obj
 0001:000734ea       ?LuaHaveMagic@@YAHPAUlua_State@@@Z 100744ea f   ScriptFuns.obj
 0001:00073637       ?LuaIncSkill@@YAHPAUlua_State@@@Z 10074637 f   ScriptFuns.obj
 0001:000736e8       ?LuaIncSkillExp@@YAHPAUlua_State@@@Z 100746e8 f   ScriptFuns.obj
 0001:00073799       ?LuaGetSkillIdInSkillList@@YAHPAUlua_State@@@Z 10074799 f   ScriptFuns.obj
 0001:00073838       ?LuaSetSkillLevel@@YAHPAUlua_State@@@Z 10074838 f   ScriptFuns.obj
 0001:00073927       ?LuaSetSkillTemp@@YAHPAUlua_State@@@Z 10074927 f   ScriptFuns.obj
 0001:000739bf       ?LuaRollBackSkills@@YAHPAUlua_State@@@Z 100749bf f   ScriptFuns.obj
 0001:00073a6f       ?LuaGetMagicLevel@@YAHPAUlua_State@@@Z 10074a6f f   ScriptFuns.obj
 0001:00073b64       ?LuaGetNpcTemplateID@@YAHPAUlua_State@@@Z 10074b64 f   ScriptFuns.obj
 0001:00073bc9       ?LuaGetNpcTempName@@YAHPAUlua_State@@@Z 10074bc9 f   ScriptFuns.obj
 0001:00073c39       ?LuaGetNpcTempTypeName@@YAHPAUlua_State@@@Z 10074c39 f   ScriptFuns.obj
 0001:00073ca9       ?LuaAddNpc@@YAHPAUlua_State@@@Z 10074ca9 f   ScriptFuns.obj
 0001:00073e5c       ?LuaDelNpc@@YAHPAUlua_State@@@Z 10074e5c f   ScriptFuns.obj
 0001:00073f57       ?LuaClearMapNpc@@YAHPAUlua_State@@@Z 10074f57 f   ScriptFuns.obj
 0001:000740dd       ?LuaClearMapNpcWithName@@YAHPAUlua_State@@@Z 100750dd f   ScriptFuns.obj
 0001:00074293       ?LuaDelNpcsInRgn@@YAHPAUlua_State@@@Z 10075293 f   ScriptFuns.obj
 0001:0007429a       ?LuaDelNpcsInWld@@YAHPAUlua_State@@@Z 1007529a f   ScriptFuns.obj
 0001:000742a1       ?LuaSyncNpc@@YAHPAUlua_State@@@Z 100752a1 f   ScriptFuns.obj
 0001:00074303       ?LuaSetNpcPos@@YAHPAUlua_State@@@Z 10075303 f   ScriptFuns.obj
 0001:000743a1       ?LuaSetNpcActionScript@@YAHPAUlua_State@@@Z 100753a1 f   ScriptFuns.obj
 0001:00074479       ?LuaSetNpcKind@@YAHPAUlua_State@@@Z 10075479 f   ScriptFuns.obj
 0001:000744ef       ?LuaSetNpcSeries@@YAHPAUlua_State@@@Z 100754ef f   ScriptFuns.obj
 0001:00074568       ?LuaGetNpcSeries@@YAHPAUlua_State@@@Z 10075568 f   ScriptFuns.obj
 0001:000745dd       ?LuaSetNpcExp@@YAHPAUlua_State@@@Z 100755dd f   ScriptFuns.obj
 0001:00074689       ?LuaSetNpcLife@@YAHPAUlua_State@@@Z 10075689 f   ScriptFuns.obj
 0001:00074747       ?LuaGetNpcLife@@YAHPAUlua_State@@@Z 10075747 f   ScriptFuns.obj
 0001:000747bc       ?LuaSetNpcLifeReplenish@@YAHPAUlua_State@@@Z 100757bc f   ScriptFuns.obj
 0001:00074868       ?LuaSetNpcAR@@YAHPAUlua_State@@@Z 10075868 f   ScriptFuns.obj
 0001:00074914       ?LuaSetNpcDefense@@YAHPAUlua_State@@@Z 10075914 f   ScriptFuns.obj
 0001:000749c0       ?LuaSetNpcDamage@@YAHPAUlua_State@@@Z 100759c0 f   ScriptFuns.obj
 0001:00074a4e       ?LuaSetNpcDmgEx@@YAHPAUlua_State@@@Z 10075a4e f   ScriptFuns.obj
 0001:00074ec9       ?LuaSetNpcResist@@YAHPAUlua_State@@@Z 10075ec9 f   ScriptFuns.obj
 0001:00075201       ?LuaSetNpcRevTime@@YAHPAUlua_State@@@Z 10076201 f   ScriptFuns.obj
 0001:0007527a       ?LuaSetNpcSpeed@@YAHPAUlua_State@@@Z 1007627a f   ScriptFuns.obj
 0001:00075337       ?LuaSetNpcHitRecover@@YAHPAUlua_State@@@Z 10076337 f   ScriptFuns.obj
 0001:000753ee       ?LuaSetNpcBoss@@YAHPAUlua_State@@@Z 100763ee f   ScriptFuns.obj
 0001:00075461       ?LuaGetNpcBoss@@YAHPAUlua_State@@@Z 10076461 f   ScriptFuns.obj
 0001:000754de       ?LuaIsBlueBoss@@YAHPAUlua_State@@@Z 100764de f   ScriptFuns.obj
 0001:0007556e       ?LuaGetNpcExpRate@@YAHPAUlua_State@@@Z 1007656e f   ScriptFuns.obj
 0001:000755d3       ?LuaIsRideHorse@@YAHPAUlua_State@@@Z 100765d3 f   ScriptFuns.obj
 0001:00075638       ?LuaSetNpcRemoveDeath@@YAHPAUlua_State@@@Z 10076638 f   ScriptFuns.obj
 0001:000756ab       ?LuaSetNpcTimeout@@YAHPAUlua_State@@@Z 100766ab f   ScriptFuns.obj
 0001:0007572e       ?LuaGetNpcTimeout@@YAHPAUlua_State@@@Z 1007672e f   ScriptFuns.obj
 0001:000757dc       ?LuaSetNpcParam@@YAHPAUlua_State@@@Z 100767dc f   ScriptFuns.obj
 0001:00075898       ?LuaGetNpcParam@@YAHPAUlua_State@@@Z 10076898 f   ScriptFuns.obj
 0001:00075951       ?LuaSetNpcOwner@@YAHPAUlua_State@@@Z 10076951 f   ScriptFuns.obj
 0001:00075a0d       ?LuaGetNpcOwner@@YAHPAUlua_State@@@Z 10076a0d f   ScriptFuns.obj
 0001:00075a95       ?LuaSetNpcFindPathTime@@YAHPAUlua_State@@@Z 10076a95 f   ScriptFuns.obj
 0001:00075b2c       ?LuaSetNpcName@@YAHPAUlua_State@@@Z 10076b2c f   ScriptFuns.obj
 0001:00075c5d       ?LuaGetNpcName@@YAHPAUlua_State@@@Z 10076c5d f   ScriptFuns.obj
 0001:00075ccd       ?LuaGetNpcID@@YAHPAUlua_State@@@Z 10076ccd f   ScriptFuns.obj
 0001:00075d4f       ?LuaSetNpcSkill@@YAHPAUlua_State@@@Z 10076d4f f   ScriptFuns.obj
 0001:00075e34       ?LuaSetNpcDropScript@@YAHPAUlua_State@@@Z 10076e34 f   ScriptFuns.obj
 0001:00075ea6       ?LuaSetPlayerRevivalPos@@YAHPAUlua_State@@@Z 10076ea6 f   ScriptFuns.obj
 0001:00075f5f       ?LuaGetPlayerRevivalPos@@YAHPAUlua_State@@@Z 10076f5f f   ScriptFuns.obj
 0001:00076092       ?LuaGetPlayerRevival@@YAHPAUlua_State@@@Z 10077092 f   ScriptFuns.obj
 0001:000760fe       ?LuaGetPlayerRevivalID@@YAHPAUlua_State@@@Z 100770fe f   ScriptFuns.obj
 0001:00076153       ?LuaGetPlayerCurrentCamp@@YAHPAUlua_State@@@Z 10077153 f   ScriptFuns.obj
 0001:000761cf       ?LuaGetPlayerCamp@@YAHPAUlua_State@@@Z 100771cf f   ScriptFuns.obj
 0001:0007624b       ?LuaSetPlayerCamp@@YAHPAUlua_State@@@Z 1007724b f   ScriptFuns.obj
 0001:000762b1       ?LuaSetPlayerCurrentCamp@@YAHPAUlua_State@@@Z 100772b1 f   ScriptFuns.obj
 0001:00076317       ?LuaSetNpcCurCamp@@YAHPAUlua_State@@@Z 10077317 f   ScriptFuns.obj
 0001:00076386       ?LuaRestorePlayerCamp@@YAHPAUlua_State@@@Z 10077386 f   ScriptFuns.obj
 0001:000763c5       ?LuaOpenTong@@YAHPAUlua_State@@@Z 100773c5 f   ScriptFuns.obj
 0001:00076498       ?LuaJoinTong@@YAHPAUlua_State@@@Z 10077498 f   ScriptFuns.obj
 0001:0007651d       ?LuaCreateTong@@YAHPAUlua_State@@@Z 1007751d f   ScriptFuns.obj
 0001:00076665       ?LuaGetTongFlag@@YAHPAUlua_State@@@Z 10077665 f   ScriptFuns.obj
 0001:000766ad       ?LuaGetTongName@@YAHPAUlua_State@@@Z 100776ad f   ScriptFuns.obj
 0001:00076721       ?LuaGetTongCamp@@YAHPAUlua_State@@@Z 10077721 f   ScriptFuns.obj
 0001:00076769       ?LuaGetTongMemNum@@YAHPAUlua_State@@@Z 10077769 f   ScriptFuns.obj
 0001:00076818       ?LuaGetTongFigure@@YAHPAUlua_State@@@Z 10077818 f   ScriptFuns.obj
 0001:00076860       ?LuaGetTongMoney@@YAHPAUlua_State@@@Z 10077860 f   ScriptFuns.obj
 0001:000768b7       ?LuaGetTongLevel@@YAHPAUlua_State@@@Z 100778b7 f   ScriptFuns.obj
 0001:00076909       ?LuaGetTongEff@@YAHPAUlua_State@@@Z 10077909 f   ScriptFuns.obj
 0001:00076960       ?LuaGetTongParam@@YAHPAUlua_State@@@Z 10077960 f   ScriptFuns.obj
 0001:000769a8       ?LuaGetTongJoinTm@@YAHPAUlua_State@@@Z 100779a8 f   ScriptFuns.obj
 0001:00076a19       ?LuaCommendMaster@@YAHPAUlua_State@@@Z 10077a19 f   ScriptFuns.obj
 0001:00076ae7       ?LuaSetTongLevel@@YAHPAUlua_State@@@Z 10077ae7 f   ScriptFuns.obj
 0001:00076b9e       ?LuaSetTongMoney@@YAHPAUlua_State@@@Z 10077b9e f   ScriptFuns.obj
 0001:00076c55       ?LuaSetTongEff@@YAHPAUlua_State@@@Z 10077c55 f   ScriptFuns.obj
 0001:00076d0c       ?LuaSetTongMemEffLW@@YAHPAUlua_State@@@Z 10077d0c f   ScriptFuns.obj
 0001:00076e16       ?LuaSetTongMemEffTW@@YAHPAUlua_State@@@Z 10077e16 f   ScriptFuns.obj
 0001:00076f7b       ?LuaSetTongMemEffUB@@YAHPAUlua_State@@@Z 10077f7b f   ScriptFuns.obj
 0001:00077085       ?LuaGetTongMemEff@@YAHPAUlua_State@@@Z 10078085 f   ScriptFuns.obj
 0001:0007717c       ?LuaSetTongParam@@YAHPAUlua_State@@@Z 1007817c f   ScriptFuns.obj
 0001:00077233       ?LuaGetPlayerFaction@@YAHPAUlua_State@@@Z 10078233 f   ScriptFuns.obj
 0001:00077294       ?LuaGetPlayerFactionName@@YAHPAUlua_State@@@Z 10078294 f   ScriptFuns.obj
 0001:000772f5       ?LuaGetPlayerFactionCamp@@YAHPAUlua_State@@@Z 100782f5 f   ScriptFuns.obj
 0001:0007735c       ?LuaGetPlayerFactionNo@@YAHPAUlua_State@@@Z 1007835c f   ScriptFuns.obj
 0001:000773c3       ?LuaChangePlayerFaction@@YAHPAUlua_State@@@Z 100783c3 f   ScriptFuns.obj
 0001:0007745e       ?LuaGetPlayerColdResist@@YAHPAUlua_State@@@Z 1007845e f   ScriptFuns.obj
 0001:00077577       ?LuaSetPlayerColdResist@@YAHPAUlua_State@@@Z 10078577 f   ScriptFuns.obj
 0001:0007769e       ?LuaGetPlayerFireResist@@YAHPAUlua_State@@@Z 1007869e f   ScriptFuns.obj
 0001:000777b7       ?LuaSetPlayerFireResist@@YAHPAUlua_State@@@Z 100787b7 f   ScriptFuns.obj
 0001:000778cd       ?LuaGetPlayerLightResist@@YAHPAUlua_State@@@Z 100788cd f   ScriptFuns.obj
 0001:000779e6       ?LuaSetPlayerLightResist@@YAHPAUlua_State@@@Z 100789e6 f   ScriptFuns.obj
 0001:00077b1c       ?LuaGetPlayerPoisonResist@@YAHPAUlua_State@@@Z 10078b1c f   ScriptFuns.obj
 0001:00077c35       ?LuaSetPlayerPoisonResist@@YAHPAUlua_State@@@Z 10078c35 f   ScriptFuns.obj
 0001:00077d5c       ?LuaGetPlayerPhysicsResist@@YAHPAUlua_State@@@Z 10078d5c f   ScriptFuns.obj
 0001:00077e75       ?LuaSetPlayerPhysicsResist@@YAHPAUlua_State@@@Z 10078e75 f   ScriptFuns.obj
 0001:00077f9c       ?LuaGetNextExp@@YAHPAUlua_State@@@Z 10078f9c f   ScriptFuns.obj
 0001:00077fef       ?LuaGetPlayerExp@@YAHPAUlua_State@@@Z 10078fef f   ScriptFuns.obj
 0001:00078042       ?LuaModifyPlayerExp@@YAHPAUlua_State@@@Z 10079042 f   ScriptFuns.obj
 0001:00078101       ?LuaAddOwnExp@@YAHPAUlua_State@@@Z 10079101 f   ScriptFuns.obj
 0001:0007816f       ?LuaAddStackExp@@YAHPAUlua_State@@@Z 1007916f f   ScriptFuns.obj
 0001:0007822e       ?LuaGetPlayerLevel@@YAHPAUlua_State@@@Z 1007922e f   ScriptFuns.obj
 0001:0007828d       ?LuaGetPlayerLife@@YAHPAUlua_State@@@Z 1007928d f   ScriptFuns.obj
 0001:000783a6       ?LuaRestorePlayerLife@@YAHPAUlua_State@@@Z 100793a6 f   ScriptFuns.obj
 0001:000783e5       ?LuaRestorePlayerMana@@YAHPAUlua_State@@@Z 100793e5 f   ScriptFuns.obj
 0001:00078424       ?LuaRestorePlayerStamina@@YAHPAUlua_State@@@Z 10079424 f   ScriptFuns.obj
 0001:00078463       ?LuaGetPlayerLifeReplenish@@YAHPAUlua_State@@@Z 10079463 f   ScriptFuns.obj
 0001:000784df       ?LuaGetPlayerMana@@YAHPAUlua_State@@@Z 100794df f   ScriptFuns.obj
 0001:000785f8       ?LuaGetPlayerStamina@@YAHPAUlua_State@@@Z 100795f8 f   ScriptFuns.obj
 0001:00078711       ?LuaGetPlayerManaReplenish@@YAHPAUlua_State@@@Z 10079711 f   ScriptFuns.obj
 0001:0007878d       ?LuaGetPlayerDefend@@YAHPAUlua_State@@@Z 1007978d f   ScriptFuns.obj
 0001:00078809       ?LuaGetPlayerSex@@YAHPAUlua_State@@@Z 10079809 f   ScriptFuns.obj
 0001:00078885       ?LuaGetPlayerIndex@@YAHPAUlua_State@@@Z 10079885 f   ScriptFuns.obj
 0001:0007890c       ?LuaGetPlayerNpcIdx@@YAHPAUlua_State@@@Z 1007990c f   ScriptFuns.obj
 0001:00078990       ?LuaGetPlayerAccount@@YAHPAUlua_State@@@Z 10079990 f   ScriptFuns.obj
 0001:00078a0f       ?LuaGetPlayerSeries@@YAHPAUlua_State@@@Z 10079a0f f   ScriptFuns.obj
 0001:00078a8b       ?LuaSetPlayerSeries@@YAHPAUlua_State@@@Z 10079a8b f   ScriptFuns.obj
 0001:00078ae7       ?LuaGetPlayerCount@@YAHPAUlua_State@@@Z 10079ae7 f   ScriptFuns.obj
 0001:00078b17       ?LuaGetNpcCount@@YAHPAUlua_State@@@Z 10079b17 f   ScriptFuns.obj
 0001:00078b47       ?LuaGetTotalItem@@YAHPAUlua_State@@@Z 10079b47 f   ScriptFuns.obj
 0001:00078b77       ?LuaGetPlayerName@@YAHPAUlua_State@@@Z 10079b77 f   ScriptFuns.obj
 0001:00078bf6       ?LuaGetPlayerID@@YAHPAUlua_State@@@Z 10079bf6 f   ScriptFuns.obj
 0001:00078c58       ?LuaGetMateName@@YAHPAUlua_State@@@Z 10079c58 f   ScriptFuns.obj
 0001:00078ca5       ?LuaFindPlayer@@YAHPAUlua_State@@@Z 10079ca5 f   ScriptFuns.obj
 0001:00078d76       ?LuaFindNearNpc@@YAHPAUlua_State@@@Z 10079d76 f   ScriptFuns.obj
 0001:00078ea6       ?LuaFindAroundNpc@@YAHPAUlua_State@@@Z 10079ea6 f   ScriptFuns.obj
 0001:00078f30       ?LuaGetPlayerLeadExp@@YAHPAUlua_State@@@Z 10079f30 f   ScriptFuns.obj
 0001:00078f83       ?LuaGetPlayerLeadLevel@@YAHPAUlua_State@@@Z 10079f83 f   ScriptFuns.obj
 0001:00078fd6       ?LuaGetPlayerRestAttributePoint@@YAHPAUlua_State@@@Z 10079fd6 f   ScriptFuns.obj
 0001:00079029       ?LuaGetPlayerRestSkillPoint@@YAHPAUlua_State@@@Z 1007a029 f   ScriptFuns.obj
 0001:0007907c       ?LuaGetPlayerLucky@@YAHPAUlua_State@@@Z 1007a07c f   ScriptFuns.obj
 0001:0007916b       ?LuaGetPlayerEngergy@@YAHPAUlua_State@@@Z 1007a16b f   ScriptFuns.obj
 0001:0007924e       ?LuaResetBaseAttribute@@YAHPAUlua_State@@@Z 1007a24e f   ScriptFuns.obj
 0001:000792dd       ?LuaResetProp@@YAHPAUlua_State@@@Z 1007a2dd f   ScriptFuns.obj
 0001:00079335       ?LuaSetPlayerEngergy@@YAHPAUlua_State@@@Z 1007a335 f   ScriptFuns.obj
 0001:000793e9       ?LuaGetPlayerDexterity@@YAHPAUlua_State@@@Z 1007a3e9 f   ScriptFuns.obj
 0001:000794cc       ?LuaSetPlayerDexterity@@YAHPAUlua_State@@@Z 1007a4cc f   ScriptFuns.obj
 0001:00079580       ?LuaGetPlayerStrength@@YAHPAUlua_State@@@Z 1007a580 f   ScriptFuns.obj
 0001:00079663       ?LuaSetPlayerStrength@@YAHPAUlua_State@@@Z 1007a663 f   ScriptFuns.obj
 0001:00079717       ?LuaGetPlayerVitality@@YAHPAUlua_State@@@Z 1007a717 f   ScriptFuns.obj
 0001:000797fa       ?LuaSetPlayerVitality@@YAHPAUlua_State@@@Z 1007a7fa f   ScriptFuns.obj
 0001:000798ae       ?LuaGetPlayerCashMoney@@YAHPAUlua_State@@@Z 1007a8ae f   ScriptFuns.obj
 0001:000799cf       ?LuaPlayerPayMoney@@YAHPAUlua_State@@@Z 1007a9cf f   ScriptFuns.obj
 0001:00079b6e       ?LuaPlayerEarnMoney@@YAHPAUlua_State@@@Z 1007ab6e f   ScriptFuns.obj
 0001:00079bc8       ?LuaPlayerPrePayMoney@@YAHPAUlua_State@@@Z 1007abc8 f   ScriptFuns.obj
 0001:00079c63       ?LuaGetPlayerFortune@@YAHPAUlua_State@@@Z 1007ac63 f   ScriptFuns.obj
 0001:00079cc7       ?LuaAttackNpc@@YAHPAUlua_State@@@Z 1007acc7 f   ScriptFuns.obj
 0001:00079e87       ?LuaSetPlayerChatForbiddenFlag@@YAHPAUlua_State@@@Z 1007ae87 f   ScriptFuns.obj
 0001:00079ef1       ?LuaSetRoleChatFlag@@YAHPAUlua_State@@@Z 1007aef1 f   ScriptFuns.obj
 0001:00079fc5       ?LuaShutDownServer@@YAHPAUlua_State@@@Z 1007afc5 f   ScriptFuns.obj
 0001:00079fe4       ?LuaKickOutPlayer@@YAHPAUlua_State@@@Z 1007afe4 f   ScriptFuns.obj
 0001:0007a0ab       ?LuaKickOutAccount@@YAHPAUlua_State@@@Z 1007b0ab f   ScriptFuns.obj
 0001:0007a165       ?LuaKickOutSelf@@YAHPAUlua_State@@@Z 1007b165 f   ScriptFuns.obj
 0001:0007a1c4       ?LuaKillNpc@@YAHPAUlua_State@@@Z 1007b1c4 f   ScriptFuns.obj
 0001:0007a2d3       ?LuaKillPlayer@@YAHPAUlua_State@@@Z 1007b2d3 f   ScriptFuns.obj
 0001:0007a382       ?LuaSetFightState@@YAHPAUlua_State@@@Z 1007b382 f   ScriptFuns.obj
 0001:0007a40d       ?LuaGetFightState@@YAHPAUlua_State@@@Z 1007b40d f   ScriptFuns.obj
 0001:0007a477       ?LuaSetLevel@@YAHPAUlua_State@@@Z 1007b477 f   ScriptFuns.obj
 0001:0007a519       ?LuaGetLevel@@YAHPAUlua_State@@@Z 1007b519 f   ScriptFuns.obj
 0001:0007a590       ?LuaUseTownPortal@@YAHPAUlua_State@@@Z 1007b590 f   ScriptFuns.obj
 0001:0007a5fb       ?LuaReturnFromTownPortal@@YAHPAUlua_State@@@Z 1007b5fb f   ScriptFuns.obj
 0001:0007a676       ?GetPlayerIndex@@YAHPAUlua_State@@@Z 1007b676 f   ScriptFuns.obj
 0001:0007a71b       ?GetObjIndex@@YAHPAUlua_State@@@Z 1007b71b f   ScriptFuns.obj
 0001:0007a7ad       ?LuaMessage@@YAHPAUlua_State@@@Z 1007b7ad f   ScriptFuns.obj
 0001:0007a7d6       ?LuaAddPlayerWayPoint@@YAHPAUlua_State@@@Z 1007b7d6 f   ScriptFuns.obj
 0001:0007a962       ?LuaAddPlayerStation@@YAHPAUlua_State@@@Z 1007b962 f   ScriptFuns.obj
 0001:0007aa74       ?LuaGetPlayerStationCount@@YAHPAUlua_State@@@Z 1007ba74 f   ScriptFuns.obj
 0001:0007aadf       ?LuaGetPlayerStation@@YAHPAUlua_State@@@Z 1007badf f   ScriptFuns.obj
 0001:0007ac14       ?LuaGetPlayerWayPoint@@YAHPAUlua_State@@@Z 1007bc14 f   ScriptFuns.obj
 0001:0007ad20       ?LuaGetStationName@@YAHPAUlua_State@@@Z 1007bd20 f   ScriptFuns.obj
 0001:0007add7       ?LuaGetWayPointName@@YAHPAUlua_State@@@Z 1007bdd7 f   ScriptFuns.obj
 0001:0007ae8e       ?LuaGetAllStationCount@@YAHPAUlua_State@@@Z 1007be8e f   ScriptFuns.obj
 0001:0007aecf       ?LuaGetCity@@YAHPAUlua_State@@@Z 1007becf f   ScriptFuns.obj
 0001:0007aed6       ?LuaGetPriceToWayPoint@@YAHPAUlua_State@@@Z 1007bed6 f   ScriptFuns.obj
 0001:0007af3c       ?LuaGetPriceToStation@@YAHPAUlua_State@@@Z 1007bf3c f   ScriptFuns.obj
 0001:0007afa2       ?LuaGetStationPos@@YAHPAUlua_State@@@Z 1007bfa2 f   ScriptFuns.obj
 0001:0007b159       ?LuaGetWayPointPos@@YAHPAUlua_State@@@Z 1007c159 f   ScriptFuns.obj
 0001:0007b28c       ?LuaGetWayPointFight@@YAHPAUlua_State@@@Z 1007c28c f   ScriptFuns.obj
 0001:0007b2f7       ?LuaGetRank@@YAHPAUlua_State@@@Z 1007c2f7 f   ScriptFuns.obj
 0001:0007b36b       ?LuaSetRank@@YAHPAUlua_State@@@Z 1007c36b f   ScriptFuns.obj
 0001:0007b3de       ?LuaGetExpandRank@@YAHPAUlua_State@@@Z 1007c3de f   ScriptFuns.obj
 0001:0007b442       ?LuaSetExpandRank@@YAHPAUlua_State@@@Z 1007c442 f   ScriptFuns.obj
 0001:0007b546       ?LuaRestoreExpandRank@@YAHPAUlua_State@@@Z 1007c546 f   ScriptFuns.obj
 0001:0007b5a8       ?LuaGetEquipItemEx@@YAHPAUlua_State@@@Z 1007c5a8 f   ScriptFuns.obj
 0001:0007b636       ?LuaSetEquipItemEx@@YAHPAUlua_State@@@Z 1007c636 f   ScriptFuns.obj
 0001:0007b6b1       ?LuaGetExpandBox@@YAHPAUlua_State@@@Z 1007c6b1 f   ScriptFuns.obj
 0001:0007b70f       ?LuaSetExpandBox@@YAHPAUlua_State@@@Z 1007c70f f   ScriptFuns.obj
 0001:0007b771       ?LuaSetObjPropState@@YAHPAUlua_State@@@Z 1007c771 f   ScriptFuns.obj
 0001:0007b7f7       ?LuaGetServerName@@YAHPAUlua_State@@@Z 1007c7f7 f   ScriptFuns.obj
 0001:0007b844       ?LuaGetDockCount@@YAHPAUlua_State@@@Z 1007c844 f   ScriptFuns.obj
 0001:0007b909       ?LuaGetDockPrice@@YAHPAUlua_State@@@Z 1007c909 f   ScriptFuns.obj
 0001:0007b96f       ?LuaGetDock@@YAHPAUlua_State@@@Z 1007c96f f   ScriptFuns.obj
 0001:0007ba35       ?LuaGetDockName@@YAHPAUlua_State@@@Z 1007ca35 f   ScriptFuns.obj
 0001:0007baba       ?LuaGetDockPos@@YAHPAUlua_State@@@Z 1007caba f   ScriptFuns.obj
 0001:0007bc9b       ?LuaGetWayPointFightState@@YAHPAUlua_State@@@Z 1007cc9b f   ScriptFuns.obj
 0001:0007bd3d       ?LuaSetMission@@YAHPAUlua_State@@@Z 1007cd3d f   ScriptFuns.obj
 0001:0007bdcb       ?LuaGetMissionValue@@YAHPAUlua_State@@@Z 1007cdcb f   ScriptFuns.obj
 0001:0007be67       ?LuaGetMissionString@@YAHPAUlua_State@@@Z 1007ce67 f   ScriptFuns.obj
 0001:0007bf05       ?LuaSetGlobalMission@@YAHPAUlua_State@@@Z 1007cf05 f   ScriptFuns.obj
 0001:0007bf70       ?LuaGetGlobalMissionValue@@YAHPAUlua_State@@@Z 1007cf70 f   ScriptFuns.obj
 0001:0007bff1       ?LuaGetGlobalMissionString@@YAHPAUlua_State@@@Z 1007cff1 f   ScriptFuns.obj
 0001:0007c06d       ?LuaGetMissionName@@YAHPAUlua_State@@@Z 1007d06d f   ScriptFuns.obj
 0001:0007c1a9       ?LuaInitMission@@YAHPAUlua_State@@@Z 1007d1a9 f   ScriptFuns.obj
 0001:0007c44d       ?LuaRunMission@@YAHPAUlua_State@@@Z 1007d44d f   ScriptFuns.obj
 0001:0007c5e6       ?LuaIsMission@@YAHPAUlua_State@@@Z 1007d5e6 f   ScriptFuns.obj
 0001:0007c70f       ?LuaGetMSLadder@@YAHPAUlua_State@@@Z 1007d70f f   ScriptFuns.obj
 0001:0007c900       ?LuaCloseMission@@YAHPAUlua_State@@@Z 1007d900 f   ScriptFuns.obj
 0001:0007caad       ?LuaStopMissionTimer@@YAHPAUlua_State@@@Z 1007daad f   ScriptFuns.obj
 0001:0007cc0a       ?LuaStartMissionTimer@@YAHPAUlua_State@@@Z 1007dc0a f   ScriptFuns.obj
 0001:0007cd54       ?LuaSetDeathRevivalPos@@YAHPAUlua_State@@@Z 1007dd54 f   ScriptFuns.obj
 0001:0007ce7d       ?LuaPlayerExecuteRevive@@YAHPAUlua_State@@@Z 1007de7d f   ScriptFuns.obj
 0001:0007ceee       ?LuaAddMissionPlayer@@YAHPAUlua_State@@@Z 1007deee f   ScriptFuns.obj
 0001:0007d0ca       ?LuaAddMissionNpc@@YAHPAUlua_State@@@Z 1007e0ca f   ScriptFuns.obj
 0001:0007d259       ?LuaSetMissionGroup@@YAHPAUlua_State@@@Z 1007e259 f   ScriptFuns.obj
 0001:0007d2d5       ?LuaRevivalAllNpc@@YAHPAUlua_State@@@Z 1007e2d5 f   ScriptFuns.obj
 0001:0007d308       ?LuaRemoveMissionPlayer@@YAHPAUlua_State@@@Z 1007e308 f   ScriptFuns.obj
 0001:0007d463       ?LuaRemoveMissionNpc@@YAHPAUlua_State@@@Z 1007e463 f   ScriptFuns.obj
 0001:0007d56a       ?LuaMissionMsg2Group@@YAHPAUlua_State@@@Z 1007e56a f   ScriptFuns.obj
 0001:0007d6b2       ?LuaMissionMsg2All@@YAHPAUlua_State@@@Z 1007e6b2 f   ScriptFuns.obj
 0001:0007d7d9       ?LuaMissionPlayerCount@@YAHPAUlua_State@@@Z 1007e7d9 f   ScriptFuns.obj
 0001:0007d93e       ?LuaMissionNpcCount@@YAHPAUlua_State@@@Z 1007e93e f   ScriptFuns.obj
 0001:0007daa3       ?LuaSetPlayerDeathScript@@YAHPAUlua_State@@@Z 1007eaa3 f   ScriptFuns.obj
 0001:0007db0c       ?LuaSetPlayerDamageScript@@YAHPAUlua_State@@@Z 1007eb0c f   ScriptFuns.obj
 0001:0007db75       ?LuaNpcIndexToPlayerIndex@@YAHPAUlua_State@@@Z 1007eb75 f   ScriptFuns.obj
 0001:0007dc26       ?LuaGetMissionPlayer_PlayerIndex@@YAHPAUlua_State@@@Z 1007ec26 f   ScriptFuns.obj
 0001:0007dd79       ?LuaGetMissionPlayer_DataIndex@@YAHPAUlua_State@@@Z 1007ed79 f   ScriptFuns.obj
 0001:0007def4       ?LuaSetMissionPlayerParam@@YAHPAUlua_State@@@Z 1007eef4 f   ScriptFuns.obj
 0001:0007e05d       ?LuaGetMissionPlayerParam@@YAHPAUlua_State@@@Z 1007f05d f   ScriptFuns.obj
 0001:0007e1ca       ?LuaGetPlayerMissionGroup@@YAHPAUlua_State@@@Z 1007f1ca f   ScriptFuns.obj
 0001:0007e307       ?LuaSetPlayerRevivalOptionWhenLogout@@YAHPAUlua_State@@@Z 1007f307 f   ScriptFuns.obj
 0001:0007e38d       ?LuaSetPlayerPKValue@@YAHPAUlua_State@@@Z 1007f38d f   ScriptFuns.obj
 0001:0007e40d       ?LuaGetPlayerPKValue@@YAHPAUlua_State@@@Z 1007f40d f   ScriptFuns.obj
 0001:0007e481       ?LuaGetGameTime@@YAHPAUlua_State@@@Z 1007f481 f   ScriptFuns.obj
 0001:0007e4b1       ?LuaGetPlayerLoginTime@@YAHPAUlua_State@@@Z 1007f4b1 f   ScriptFuns.obj
 0001:0007e520       ?LuaGetPlayerOnlineTime@@YAHPAUlua_State@@@Z 1007f520 f   ScriptFuns.obj
 0001:0007e599       ?LuaOfflineLive@@YAHPAUlua_State@@@Z 1007f599 f   ScriptFuns.obj
 0001:0007e658       ?LuaSetValue@@YAHPAUlua_State@@@Z 1007f658 f   ScriptFuns.obj
 0001:0007e708       ?LuaAddValue@@YAHPAUlua_State@@@Z 1007f708 f   ScriptFuns.obj
 0001:0007e7d0       ?LuaGetValue@@YAHPAUlua_State@@@Z 1007f7d0 f   ScriptFuns.obj
 0001:0007e86f       ?LuaSetPlayerReputeValue@@YAHPAUlua_State@@@Z 1007f86f f   ScriptFuns.obj
 0001:0007e8f6       ?LuaAddPlayerReputeValue@@YAHPAUlua_State@@@Z 1007f8f6 f   ScriptFuns.obj
 0001:0007e999       ?LuaGetPlayerReputeValue@@YAHPAUlua_State@@@Z 1007f999 f   ScriptFuns.obj
 0001:0007ea12       ?LuaSetPlayerFuYuanValue@@YAHPAUlua_State@@@Z 1007fa12 f   ScriptFuns.obj
 0001:0007ea99       ?LuaAddPlayerFuYuanValue@@YAHPAUlua_State@@@Z 1007fa99 f   ScriptFuns.obj
 0001:0007eb3c       ?LuaGetPlayerFuYuanValue@@YAHPAUlua_State@@@Z 1007fb3c f   ScriptFuns.obj
 0001:0007ebb5       ?LuaAddPlayerAccumValue@@YAHPAUlua_State@@@Z 1007fbb5 f   ScriptFuns.obj
 0001:0007ec58       ?LuaGetPlayerAccumValue@@YAHPAUlua_State@@@Z 1007fc58 f   ScriptFuns.obj
 0001:0007ecd1       ?LuaAddPlayerHonorValue@@YAHPAUlua_State@@@Z 1007fcd1 f   ScriptFuns.obj
 0001:0007ed74       ?LuaGetPlayerHonorValue@@YAHPAUlua_State@@@Z 1007fd74 f   ScriptFuns.obj
 0001:0007eded       ?LuaAddPlayerRespectValue@@YAHPAUlua_State@@@Z 1007fded f   ScriptFuns.obj
 0001:0007ee90       ?LuaGetPlayerRespectValue@@YAHPAUlua_State@@@Z 1007fe90 f   ScriptFuns.obj
 0001:0007ef09       ?LuaAddPlayerTranslifeValue@@YAHPAUlua_State@@@Z 1007ff09 f   ScriptFuns.obj
 0001:0007efad       ?LuaGetPlayerTranslifeValue@@YAHPAUlua_State@@@Z 1007ffad f   ScriptFuns.obj
 0001:0007f02a       ?LuaAddPlayerViprankValue@@YAHPAUlua_State@@@Z 1008002a f   ScriptFuns.obj
 0001:0007f0cd       ?LuaGetPlayerViprankValue@@YAHPAUlua_State@@@Z 100800cd f   ScriptFuns.obj
 0001:0007f146       ?LuaGetCurNpcIndex@@YAHPAUlua_State@@@Z 10080146 f   ScriptFuns.obj
 0001:0007f199       ?LuaShowLadder@@YAHPAUlua_State@@@Z 10080199 f   ScriptFuns.obj
 0001:0007f31c       ?LuaGetLadder@@YAHPAUlua_State@@@Z 1008031c f   ScriptFuns.obj
 0001:0007f41f       ?LuaSwearBrother@@YAHPAUlua_State@@@Z 1008041f f   ScriptFuns.obj
 0001:0007f5b0       ?LuaMakeEnemy@@YAHPAUlua_State@@@Z 100805b0 f   ScriptFuns.obj
 0001:0007f622       ?LuaMakeMate@@YAHPAUlua_State@@@Z 10080622 f   ScriptFuns.obj
 0001:0007f686       ?LuaDeleteMate@@YAHPAUlua_State@@@Z 10080686 f   ScriptFuns.obj
 0001:0007f6f1       ?LuaAddLeadExp@@YAHPAUlua_State@@@Z 100806f1 f   ScriptFuns.obj
 0001:0007f75b       ?LuaSetLeadLevel@@YAHPAUlua_State@@@Z 1008075b f   ScriptFuns.obj
 0001:0007f7c5       ?LuaGetLeadLevel@@YAHPAUlua_State@@@Z 100807c5 f   ScriptFuns.obj
 0001:0007f81e       ?LuaAddMagicPoint@@YAHPAUlua_State@@@Z 1008081e f   ScriptFuns.obj
 0001:0007f95f       ?LuaGetMagicPoint@@YAHPAUlua_State@@@Z 1008095f f   ScriptFuns.obj
 0001:0007f9b2       ?LuaAddPropPoint@@YAHPAUlua_State@@@Z 100809b2 f   ScriptFuns.obj
 0001:0007fae2       ?LuaSetExtPoint@@YAHPAUlua_State@@@Z 10080ae2 f   ScriptFuns.obj
 0001:0007fb8c       ?LuaAddExtPoint@@YAHPAUlua_State@@@Z 10080b8c f   ScriptFuns.obj
 0001:0007fc36       ?LuaPayExtPoint@@YAHPAUlua_State@@@Z 10080c36 f   ScriptFuns.obj
 0001:0007fcdd       ?LuaGetExtPoint@@YAHPAUlua_State@@@Z 10080cdd f   ScriptFuns.obj
 0001:0007fd42       ?LuaGetRestPropPoint@@YAHPAUlua_State@@@Z 10080d42 f   ScriptFuns.obj
 0001:0007fd9b       ?LuaMsgToGameMaster@@YAHPAUlua_State@@@Z 10080d9b f   ScriptFuns.obj
 0001:0007fe59       ?LuaMsgToIP@@YAHPAUlua_State@@@Z 10080e59 f   ScriptFuns.obj
 0001:0007ff56       ?LuaGetIP@@YAHPAUlua_State@@@Z 10080f56 f   ScriptFuns.obj
 0001:0007fff8       ?LuaSetDeathPunish@@YAHPAUlua_State@@@Z 10080ff8 f   ScriptFuns.obj
 0001:00080085       ?LuaSetReviveNow@@YAHPAUlua_State@@@Z 10081085 f   ScriptFuns.obj
 0001:000800e9       ?LuaNpcChat@@YAHPAUlua_State@@@Z 100810e9 f   ScriptFuns.obj
 0001:000801ee       ?LuaHideNpc@@YAHPAUlua_State@@@Z 100811ee f   ScriptFuns.obj
 0001:000802fb       ?LuaAddSkillState@@YAHPAUlua_State@@@Z 100812fb f   ScriptFuns.obj
 0001:000804b5       ?LuaAddNpcSkillState@@YAHPAUlua_State@@@Z 100814b5 f   ScriptFuns.obj
 0001:00080607       ?LuaIgnoreState@@YAHPAUlua_State@@@Z 10081607 f   ScriptFuns.obj
 0001:00080662       ?LuaCastSkill@@YAHPAUlua_State@@@Z 10081662 f   ScriptFuns.obj
 0001:00080702       ?LuaNpcCastSkill@@YAHPAUlua_State@@@Z 10081702 f   ScriptFuns.obj
 0001:000807a6       ?LuaSetMask@@YAHPAUlua_State@@@Z 100817a6 f   ScriptFuns.obj
 0001:000808bc       ?LuaAddTrap@@YAHPAUlua_State@@@Z 100818bc f   ScriptFuns.obj
 0001:0008099a       ?LuaAddObj@@YAHPAUlua_State@@@Z 1008199a f   ScriptFuns.obj
 0001:00080c03       ?LuaDelObj@@YAHPAUlua_State@@@Z 10081c03 f   ScriptFuns.obj
 0001:00080d7b       ?LuaSetObjScript@@YAHPAUlua_State@@@Z 10081d7b f   ScriptFuns.obj
 0001:00080e2a       ?LuaSetObjValue@@YAHPAUlua_State@@@Z 10081e2a f   ScriptFuns.obj
 0001:00080eb0       ?LuaGetObjValue@@YAHPAUlua_State@@@Z 10081eb0 f   ScriptFuns.obj
 0001:00080f1e       ?LuaSetObjPickExecute@@YAHPAUlua_State@@@Z 10081f1e f   ScriptFuns.obj
 0001:00080faa       ?LuaOpenGive@@YAHPAUlua_State@@@Z 10081faa f   ScriptFuns.obj
 0001:000810f9       ?LuaRemoveRoom@@YAHPAUlua_State@@@Z 100820f9 f   ScriptFuns.obj
 0001:00081187       ?LuaCalcFreeItemCellCount@@YAHPAUlua_State@@@Z 10082187 f   ScriptFuns.obj
 0001:0008128d       ?LuaIsNumber@@YAHPAUlua_State@@@Z 1008228d f   ScriptFuns.obj
 0001:00081306       ?LuaIsTable@@YAHPAUlua_State@@@Z 10082306 f   ScriptFuns.obj
 0001:00081380       ?LuaOpenURL@@YAHPAUlua_State@@@Z 10082380 f   ScriptFuns.obj
 0001:000813f1       ?LuaOpenExplore@@YAHPAUlua_State@@@Z 100823f1 f   ScriptFuns.obj
 0001:00081462       ?LuaModifyAttrib@@YAHPAUlua_State@@@Z 10082462 f   ScriptFuns.obj
 0001:0008155e       ?LuaRANDOM@@YAHPAUlua_State@@@Z 1008255e f   ScriptFuns.obj
 0001:00081606       ?LuaRANDOMC@@YAHPAUlua_State@@@Z 10082606 f   ScriptFuns.obj
 0001:000817c0       ?LuaIsMyItem@@YAHPAUlua_State@@@Z 100827c0 f   ScriptFuns.obj
 0001:00081861       ?LuaInput@@YAHPAUlua_State@@@Z 10082861 f   ScriptFuns.obj
 0001:000819b5       ?LuaGetInput@@YAHPAUlua_State@@@Z 100829b5 f   ScriptFuns.obj
 0001:000819f8       ?LuaOpenEnchase@@YAHPAUlua_State@@@Z 100829f8 f   ScriptFuns.obj
 0001:00081ab7       ?LuaEnchase@@YAHPAUlua_State@@@Z 10082ab7 f   ScriptFuns.obj
 0001:00081b2f       ?LuaCheckRoom@@YAHPAUlua_State@@@Z 10082b2f f   ScriptFuns.obj
 0001:00081c63       ?LuaSendMessageInfo@@YAHPAUlua_State@@@Z 10082c63 f   ScriptFuns.obj
 0001:00081dd9       ?LuaRemoveServerItem@@YAHPAUlua_State@@@Z 10082dd9 f   ScriptFuns.obj
 0001:00081e2d       ?LuaRemoveItemIdx@@YAHPAUlua_State@@@Z 10082e2d f   ScriptFuns.obj
 0001:00081eeb       ?LuaLockMoveItem@@YAHPAUlua_State@@@Z 10082eeb f   ScriptFuns.obj
 0001:00081f60       ?LuaSyncItem@@YAHPAUlua_State@@@Z 10082f60 f   ScriptFuns.obj
 0001:00081fd1       ?LuaSetTempItem@@YAHPAUlua_State@@@Z 10082fd1 f   ScriptFuns.obj
 0001:0008209b       ?LuaSetLevelItem@@YAHPAUlua_State@@@Z 1008309b f   ScriptFuns.obj
 0001:00082165       ?LuaSetSeriesItem@@YAHPAUlua_State@@@Z 10083165 f   ScriptFuns.obj
 0001:0008222f       ?LuaSetParamItem@@YAHPAUlua_State@@@Z 1008322f f   ScriptFuns.obj
 0001:000822f9       ?LuaSetFortuneItem@@YAHPAUlua_State@@@Z 100832f9 f   ScriptFuns.obj
 0001:000823c3       ?LuaSetTimeItem@@YAHPAUlua_State@@@Z 100833c3 f   ScriptFuns.obj
 0001:00082499       ?LuaAddTimeItem@@YAHPAUlua_State@@@Z 10083499 f   ScriptFuns.obj
 0001:000825ce       ?LuaLockItem@@YAHPAUlua_State@@@Z 100835ce f   ScriptFuns.obj
 0001:00082798       ?LuaSetStackItem@@YAHPAUlua_State@@@Z 10083798 f   ScriptFuns.obj
 0001:00082862       ?LuaSetMantleItem@@YAHPAUlua_State@@@Z 10083862 f   ScriptFuns.obj
 0001:000829b2       ?LuaSetFlashItem@@YAHPAUlua_State@@@Z 100839b2 f   ScriptFuns.obj
 0001:00082a80       ?LuaGetFreeObjPos@@YAHPAUlua_State@@@Z 10083a80 f   ScriptFuns.obj
 0001:00082bd3       ?LuaOpenRankData@@YAHPAUlua_State@@@Z 10083bd3 f   ScriptFuns.obj
 0001:00082c92       ?LuaSetSavePw@@YAHPAUlua_State@@@Z 10083c92 f   ScriptFuns.obj
 0001:00082cdb       ?LuaGetSavePw@@YAHPAUlua_State@@@Z 10083cdb f   ScriptFuns.obj
 0001:00082d28       ?LuaSetLockState@@YAHPAUlua_State@@@Z 10083d28 f   ScriptFuns.obj
 0001:00082d96       ?LuaGetLockState@@YAHPAUlua_State@@@Z 10083d96 f   ScriptFuns.obj
 0001:00082e0f       ?LuaIsHideNpc@@YAHPAUlua_State@@@Z 10083e0f f   ScriptFuns.obj
 0001:00082ea7       ?LuaSetPKState@@YAHPAUlua_State@@@Z 10083ea7 f   ScriptFuns.obj
 0001:00082fb9       ?LuaForbidChangePK@@YAHPAUlua_State@@@Z 10083fb9 f   ScriptFuns.obj
 0001:00083032       ?LuaGetPKState@@YAHPAUlua_State@@@Z 10084032 f   ScriptFuns.obj
 0001:0008309b       ?LuaGetNormalPKState@@YAHPAUlua_State@@@Z 1008409b f   ScriptFuns.obj
 0001:000830ff       ?LuaPaceBar@@YAHPAUlua_State@@@Z 100840ff f   ScriptFuns.obj
 0001:000831f0       ?LuaDelItem@@YAHPAUlua_State@@@Z 100841f0 f   ScriptFuns.obj
 0001:00083383       ?LuaGetItemCount@@YAHPAUlua_State@@@Z 10084383 f   ScriptFuns.obj
 0001:000834ea       ?LuaGetItemCountRoom@@YAHPAUlua_State@@@Z 100844ea f   ScriptFuns.obj
 0001:00083566       ?LuaGetTrade@@YAHPAUlua_State@@@Z 10084566 f   ScriptFuns.obj
 0001:000835c5       ?LuaForbidUseTownP@@YAHPAUlua_State@@@Z 100845c5 f   ScriptFuns.obj
 0001:00083644       ?LuaForbidTrade@@YAHPAUlua_State@@@Z 10084644 f   ScriptFuns.obj
 0001:000836a6       ?LuaForbidEnmity@@YAHPAUlua_State@@@Z 100846a6 f   ScriptFuns.obj
 0001:00083708       ?LuaForbidName@@YAHPAUlua_State@@@Z 10084708 f   ScriptFuns.obj
 0001:0008376a       ?LuaForbidCamp@@YAHPAUlua_State@@@Z 1008476a f   ScriptFuns.obj
 0001:000837cc       ?LuaGetDistance@@YAHPAUlua_State@@@Z 100847cc f   ScriptFuns.obj
 0001:0008384e       ?LuaGetDir@@YAHPAUlua_State@@@Z 1008484e f   ScriptFuns.obj
 0001:000838d0       ?LuaDirSin@@YAHPAUlua_State@@@Z 100848d0 f   ScriptFuns.obj
 0001:00083915       ?LuaDirCos@@YAHPAUlua_State@@@Z 10084915 f   ScriptFuns.obj
 0001:0008395a       ?LuaFileExists@@YAHPAUlua_State@@@Z 1008495a f   ScriptFuns.obj
 0001:000839b1       ?LuaFileName2Id@@YAHPAUlua_State@@@Z 100849b1 f   ScriptFuns.obj
 0001:000839ff       ?LuaTabFile_Load@@YAHPAUlua_State@@@Z 100849ff f   ScriptFuns.obj
 0001:00083a91       ?LuaIniFile_IsSectionExist@@YAHPAUlua_State@@@Z 10084a91 f   ScriptFuns.obj
 0001:00083b6b       ?LuaIniFile_Load@@YAHPAUlua_State@@@Z 10084b6b f   ScriptFuns.obj
 0001:00083c08       ?LuaIniFile_GetStr@@YAHPAUlua_State@@@Z 10084c08 f   ScriptFuns.obj
 0001:00083d24       ?LuaIniFile_GetInt@@YAHPAUlua_State@@@Z 10084d24 f   ScriptFuns.obj
 0001:00083e07       ?LuaIniFile_GetInt2@@YAHPAUlua_State@@@Z 10084e07 f   ScriptFuns.obj
 0001:00083f02       ?LuaIniFile_Save@@YAHPAUlua_State@@@Z 10084f02 f   ScriptFuns.obj
 0001:00083f74       ?LuaIniFile_SaveStr@@YAHPAUlua_State@@@Z 10084f74 f   ScriptFuns.obj
 0001:00084042       ?LuaIniFile_SaveInt@@YAHPAUlua_State@@@Z 10085042 f   ScriptFuns.obj
 0001:00084115       ?LuaIniFile_SaveInt2@@YAHPAUlua_State@@@Z 10085115 f   ScriptFuns.obj
 0001:00084203       ?LuaTabFile_GetRowCount@@YAHPAUlua_State@@@Z 10085203 f   ScriptFuns.obj
 0001:0008429e       ?LuaTabFile_GetCell@@YAHPAUlua_State@@@Z 1008529e f   ScriptFuns.obj
 0001:00084525       ?LuaGetDataInt@@YAHPAUlua_State@@@Z 10085525 f   ScriptFuns.obj
 0001:00084588       ?LuaGetDataStr@@YAHPAUlua_State@@@Z 10085588 f   ScriptFuns.obj
 0001:000845de       ?LuaSetData@@YAHPAUlua_State@@@Z 100855de f   ScriptFuns.obj
 0001:0008463b       ?LuaSendReport@@YAHPAUlua_State@@@Z 1008563b f   ScriptFuns.obj
 0001:00084642       ?LuaGetTime@@YAHPAUlua_State@@@Z 10085642 f   ScriptFuns.obj
 0001:00084747       ?LuaGetTimeDate@@YAHPAUlua_State@@@Z 10085747 f   ScriptFuns.obj
 0001:000847fd       ?LuaGetLocalDate@@YAHPAUlua_State@@@Z 100857fd f   ScriptFuns.obj
 0001:00084880       ?LuaAddDataGr@@YAHPAUlua_State@@@Z 10085880 f   ScriptFuns.obj
 0001:00084927       ?LuaSetDataGr@@YAHPAUlua_State@@@Z 10085927 f   ScriptFuns.obj
 0001:00084a35       ?LuaGetDataGr@@YAHPAUlua_State@@@Z 10085a35 f   ScriptFuns.obj
 0001:00084b18       ?LuaFindDataId@@YAHPAUlua_State@@@Z 10085b18 f   ScriptFuns.obj
 0001:00084b8c       ?LuaSaveDataFile@@YAHPAUlua_State@@@Z 10085b8c f   ScriptFuns.obj
 0001:00084b9d       ?LuaChatRoom_Create@@YAHPAUlua_State@@@Z 10085b9d f   ScriptFuns.obj
 0001:00084c8e       ?LuaChatRoom_AddTime@@YAHPAUlua_State@@@Z 10085c8e f   ScriptFuns.obj
 0001:00084d2e       ?LuaGetCurServerSec@@YAHPAUlua_State@@@Z 10085d2e f   ScriptFuns.obj
 0001:00084d5a       ?LuaSetNumber@@YAHPAUlua_State@@@Z 10085d5a f   ScriptFuns.obj
 0001:00084dfc       ?LuaGetNumber@@YAHPAUlua_State@@@Z 10085dfc f   ScriptFuns.obj
 0001:00084e89       ?LuaGetNameItem@@YAHPAUlua_State@@@Z 10085e89 f   ScriptFuns.obj
 0001:00084ef5       ?LuaGetParamItem@@YAHPAUlua_State@@@Z 10085ef5 f   ScriptFuns.obj
 0001:00084f6c       ?LuaGetFortuneItem@@YAHPAUlua_State@@@Z 10085f6c f   ScriptFuns.obj
 0001:00084fe3       ?LuaGetLockItem@@YAHPAUlua_State@@@Z 10085fe3 f   ScriptFuns.obj
 0001:00085126       ?LuaGetStackItem@@YAHPAUlua_State@@@Z 10086126 f   ScriptFuns.obj
 0001:0008519d       ?LuaGetMaxStackItem@@YAHPAUlua_State@@@Z 1008619d f   ScriptFuns.obj
 0001:00085214       ?LuaGetMantleItem@@YAHPAUlua_State@@@Z 10086214 f   ScriptFuns.obj
 0001:0008528b       ?LuaFindItem@@YAHPAUlua_State@@@Z 1008628b f   ScriptFuns.obj
 0001:00085542       ?LuaFindGoldItem@@YAHPAUlua_State@@@Z 10086542 f   ScriptFuns.obj
 0001:00085681       ?LuaFindItemEx@@YAHPAUlua_State@@@Z 10086681 f   ScriptFuns.obj
 0001:00085aab       ?LuaPlayMusic@@YAHPAUlua_State@@@Z 10086aab f   ScriptFuns.obj
 0001:00085b77       ?LuaFadeInMusic@@YAHPAUlua_State@@@Z 10086b77 f   ScriptFuns.obj
 0001:00085b7e       ?LuaFadeOutMusic@@YAHPAUlua_State@@@Z 10086b7e f   ScriptFuns.obj
 0001:00085b85       ?g_GetGameScriptFunNum@@YAHXZ 10086b85 f   ScriptFuns.obj
 0001:00085b8f       ?g_GetWorldScriptFunNum@@YAHXZ 10086b8f f   ScriptFuns.obj
 0001:00085bc0       ?SetMissionId@KMission@@QAEHK@Z 10086bc0 f i ScriptFuns.obj
 0001:00085be0       ?GetTimerRestTimer@KMission@@QAEKE@Z 10086be0 f i ScriptFuns.obj
 0001:00085c40       ?GetSubWorldIndex@KNpc@@QAEHXZ 10086c40 f i ScriptFuns.obj
 0001:00085c60       ?Remove@KSkillList@@QAEXH@Z 10086c60 f i ScriptFuns.obj
 0001:00085d60       ?GetSkillId@KSkillList@@QAEHH@Z 10086d60 f i ScriptFuns.obj
 0001:00085d90       ?SetSkillLevelDirectlyUsingId@KSkillList@@QAEHKK@Z 10086d90 f i ScriptFuns.obj
 0001:00085e20       ?GetLoginRevival@KPlayer@@QAEXPAUtagPOINT@@@Z 10086e20 f i ScriptFuns.obj
 0001:00085e50       ?GetLoginRevivalID@KPlayer@@QAEHXZ 10086e50 f i ScriptFuns.obj
 0001:00085e70       ?RestoreLife@KNpc@@QAEXXZ  10086e70 f i ScriptFuns.obj
 0001:00085e90       ?RestoreMana@KNpc@@QAEXXZ  10086e90 f i ScriptFuns.obj
 0001:00085eb0       ?RestoreStamina@KNpc@@QAEXXZ 10086eb0 f i ScriptFuns.obj
 0001:00085ed0       ?GetPlayerNumber@KPlayerSet@@QAEHXZ 10086ed0 f i ScriptFuns.obj
 0001:00085ef0       ?GetNpcNumber@KNpcSet@@QAEHXZ 10086ef0 f i ScriptFuns.obj
 0001:00085f10       ?GetItemNumber@KItemSet@@QAEHXZ 10086f10 f i ScriptFuns.obj
 0001:00085f30       ?SetChatForbiddenTm@KPlayer@@QAEXH@Z 10086f30 f i ScriptFuns.obj
 0001:00085f50       ?GetMissionName@KMission@@QAEPBDXZ 10086f50 f i ScriptFuns.obj
 0001:00085f70       ?SetMissionLadder@KMission@@QAEXPBDHPAH@Z 10086f70 f i ScriptFuns.obj
 0001:00085ff0       ?GetMissionLadderParam@KMission@@QAEHXZ 10086ff0 f i ScriptFuns.obj
 0001:00086010       ?GetDeathRevivalPos@KPlayer@@QAEPAUPLAYER_REVIVAL_POS_DATA@@XZ 10087010 f i ScriptFuns.obj
 0001:00086030       ?Msg2Group@KMission@@QAEKPBDEH@Z 10087030 f i ScriptFuns.obj
 0001:00086110       ?Msg2All@KMission@@QAEKPBDH@Z 10087110 f i ScriptFuns.obj
 0001:000861d0       ?GetPlayerCount@KMission@@QBEKXZ 100871d0 f i ScriptFuns.obj
 0001:000861f0       ?GetGroupPlayerCount@KMission@@QBEKE@Z 100871f0 f i ScriptFuns.obj
 0001:00086280       ?GetNpcCount@KMission@@QBEKXZ 10087280 f i ScriptFuns.obj
 0001:000862a0       ?GetGroupNpcCount@KMission@@QBEKE@Z 100872a0 f i ScriptFuns.obj
 0001:00086310       ?GetMissionPlayer_PlayerIndex@KMission@@QAEKK@Z 10087310 f i ScriptFuns.obj
 0001:00086350       ?GetMissionPlayer_DataIndex@KMission@@QAEKPBDKK@Z 10087350 f i ScriptFuns.obj
 0001:00086390       ?GetMissionPlayer_GroupId@KMission@@QAEKK@Z 10087390 f i ScriptFuns.obj
 0001:000863d0       ?SetLoginType@KPlayer@@QAEXH@Z 100873d0 f i ScriptFuns.obj
 0001:000863f0       ?_a2ip@@YAKPBD@Z           100873f0 f i ScriptFuns.obj
 0001:00086400       ?SetObjValue@KObj@@QAEXH@Z 10087400 f i ScriptFuns.obj
 0001:00086420       ?GetObjValue@KObj@@QAEHXZ  10087420 f i ScriptFuns.obj
 0001:00086440       ?SetObjPickExecute@KObj@@QAEXH@Z 10087440 f i ScriptFuns.obj
 0001:00086460       ?SetTemp@KItem@@QAEXH@Z    10087460 f i ScriptFuns.obj
 0001:00086480       ?GetLockPKState@KPlayerPK@@QAEEXZ 10087480 f i ScriptFuns.obj
 0001:000864a0       ??0?$basic_string@DU?$char_traits@D@std@@V?$allocator@D@2@@std@@QAE@ABV?$allocator@D@1@@Z 100874a0 f i ScriptFuns.obj
 0001:000864d0       ??4?$basic_string@DU?$char_traits@D@std@@V?$allocator@D@2@@std@@QAEAAV01@PBD@Z 100874d0 f i ScriptFuns.obj
 0001:000864f0       ?Add@?$KLinkArrayTemplate@VKTimerTaskFun@@$03@@QAEPAVKTimerTaskFun@@XZ 100874f0 f i ScriptFuns.obj
 0001:00086560       ?Remove@?$KLinkArrayTemplate@VKTimerTaskFun@@$03@@QAEKPAVKTimerTaskFun@@@Z 10087560 f i ScriptFuns.obj
 0001:000865a0       ?GetData@?$KLinkArrayTemplate@VKTimerTaskFun@@$03@@QAEPAVKTimerTaskFun@@PAV2@@Z 100875a0 f i ScriptFuns.obj
 0001:000865e0       ?GetParam@?$_KMissionPlayerArray@UTMissionPlayerInfo@@$0ELA@@@QBEHKH@Z 100875e0 f i ScriptFuns.obj
 0001:00086610       ?GetUsedCount@?$KLinkArrayTemplate@UTMissionPlayerInfo@@$0ELA@@@QBEKXZ 10087610 f i ScriptFuns.obj
 0001:00086630       ?GetTotalCount@?$KLinkArrayTemplate@UTMissionPlayerInfo@@$0ELA@@@QBEKXZ 10087630 f i ScriptFuns.obj
 0001:00086650       ?GetUsedCount@?$KLinkArrayTemplate@UTMissionNpcInfo@@$0LLIA@@@QBEKXZ 10087650 f i ScriptFuns.obj
 0001:00086670       ?SetMission@?$KMissionArray@VKMission@@$09@@QAEXKPBD@Z 10087670 f i ScriptFuns.obj
 0001:000866b0       ?GetMissionValue@?$KMissionArray@VKMission@@$09@@QBEHK@Z 100876b0 f i ScriptFuns.obj
 0001:00086710       ?GetMissionString@?$KMissionArray@VKMission@@$09@@QBEPBDK@Z 10087710 f i ScriptFuns.obj
 0001:00086740       ?SetMission@?$KMissionArray@VKMission@@$01@@QAEXKPBD@Z 10087740 f i ScriptFuns.obj
 0001:00086780       ?GetMissionValue@?$KMissionArray@VKMission@@$01@@QBEHK@Z 10087780 f i ScriptFuns.obj
 0001:000867e0       ?GetMissionString@?$KMissionArray@VKMission@@$01@@QBEPBDK@Z 100877e0 f i ScriptFuns.obj
 0001:00086810       ?Add@?$KLinkArrayTemplate@VKMission@@$01@@QAEPAVKMission@@XZ 10087810 f i ScriptFuns.obj
 0001:00086880       ?Remove@?$KLinkArrayTemplate@VKMission@@$01@@QAEKPAVKMission@@@Z 10087880 f i ScriptFuns.obj
 0001:000868c0       ?GetData@?$KLinkArrayTemplate@VKMission@@$01@@QAEPAVKMission@@PAV2@@Z 100878c0 f i ScriptFuns.obj
 0001:00086900       ??0?$list@V?$basic_string@DU?$char_traits@D@std@@V?$allocator@D@2@@std@@V?$allocator@V?$basic_string@DU?$char_traits@D@std@@V?$allocator@D@2@@std@@@2@@std@@QAE@ABV?$allocator@V?$basic_string@DU?$char_traits@D@std@@V?$allocator@D@2@@std@@@1@@Z 10087900 f i ScriptFuns.obj
 0001:00086940       ??1?$list@V?$basic_string@DU?$char_traits@D@std@@V?$allocator@D@2@@std@@V?$allocator@V?$basic_string@DU?$char_traits@D@std@@V?$allocator@D@2@@std@@@2@@std@@QAE@XZ 10087940 f i ScriptFuns.obj
 0001:000869a0       ?push_back@?$list@V?$basic_string@DU?$char_traits@D@std@@V?$allocator@D@2@@std@@V?$allocator@V?$basic_string@DU?$char_traits@D@std@@V?$allocator@D@2@@std@@@2@@std@@QAEXABV?$basic_string@DU?$char_traits@D@std@@V?$allocator@D@2@@2@@Z 100879a0 f i ScriptFuns.obj
 0001:000869d0       ?Remove@?$KLinkArrayTemplate@VKTimerTaskFun@@$03@@QAEKK@Z 100879d0 f i ScriptFuns.obj
 0001:00086a20       ?FindFree@?$KLinkArrayTemplate@VKTimerTaskFun@@$03@@QAEPAVKTimerTaskFun@@AAK@Z 10087a20 f i ScriptFuns.obj
 0001:00086a60       ?Remove@?$KLinkArrayTemplate@VKMission@@$01@@QAEKK@Z 10087a60 f i ScriptFuns.obj
 0001:00086ac0       ?FindFree@?$KLinkArrayTemplate@VKMission@@$01@@QAEPAVKMission@@AAK@Z 10087ac0 f i ScriptFuns.obj
 0001:00086b10       ?begin@?$list@V?$basic_string@DU?$char_traits@D@std@@V?$allocator@D@2@@std@@V?$allocator@V?$basic_string@DU?$char_traits@D@std@@V?$allocator@D@2@@std@@@2@@std@@QAE?AViterator@12@XZ 10087b10 f i ScriptFuns.obj
 0001:00086b50       ?end@?$list@V?$basic_string@DU?$char_traits@D@std@@V?$allocator@D@2@@std@@V?$allocator@V?$basic_string@DU?$char_traits@D@std@@V?$allocator@D@2@@std@@@2@@std@@QAE?AViterator@12@XZ 10087b50 f i ScriptFuns.obj
 0001:00086b80       ?insert@?$list@V?$basic_string@DU?$char_traits@D@std@@V?$allocator@D@2@@std@@V?$allocator@V?$basic_string@DU?$char_traits@D@std@@V?$allocator@D@2@@std@@@2@@std@@QAE?AViterator@12@V312@ABV?$basic_string@DU?$char_traits@D@std@@V?$allocator@D@2@@2@@Z 10087b80 f i ScriptFuns.obj
 0001:00086c40       ?erase@?$list@V?$basic_string@DU?$char_traits@D@std@@V?$allocator@D@2@@std@@V?$allocator@V?$basic_string@DU?$char_traits@D@std@@V?$allocator@D@2@@std@@@2@@std@@QAE?AViterator@12@V312@0@Z 10087c40 f i ScriptFuns.obj
 0001:00086c90       ?_Buynode@?$list@V?$basic_string@DU?$char_traits@D@std@@V?$allocator@D@2@@std@@V?$allocator@V?$basic_string@DU?$char_traits@D@std@@V?$allocator@D@2@@std@@@2@@std@@IAEPAU_Node@12@PAU312@0@Z 10087c90 f i ScriptFuns.obj
 0001:00086d00       ?_Freenode@?$list@V?$basic_string@DU?$char_traits@D@std@@V?$allocator@D@2@@std@@V?$allocator@V?$basic_string@DU?$char_traits@D@std@@V?$allocator@D@2@@std@@@2@@std@@IAEXPAU_Node@12@@Z 10087d00 f i ScriptFuns.obj
 0001:00086d20       ?erase@?$list@V?$basic_string@DU?$char_traits@D@std@@V?$allocator@D@2@@std@@V?$allocator@V?$basic_string@DU?$char_traits@D@std@@V?$allocator@D@2@@std@@@2@@std@@QAE?AViterator@12@V312@@Z 10087d20 f i ScriptFuns.obj
 0001:00086de0       ?_Prev@_Acc@?$list@V?$basic_string@DU?$char_traits@D@std@@V?$allocator@D@2@@std@@V?$allocator@V?$basic_string@DU?$char_traits@D@std@@V?$allocator@D@2@@std@@@2@@std@@SAAAPAU_Node@23@PAU423@@Z 10087de0 f i ScriptFuns.obj
 0001:00086df0       ?_Charalloc@?$allocator@V?$basic_string@DU?$char_traits@D@std@@V?$allocator@D@2@@std@@@std@@QAEPADI@Z 10087df0 f i ScriptFuns.obj
 0001:00086e10       ?deallocate@?$allocator@V?$basic_string@DU?$char_traits@D@std@@V?$allocator@D@2@@std@@@std@@QAEXPAXI@Z 10087e10 f i ScriptFuns.obj
 0001:00086e30       ?construct@?$allocator@V?$basic_string@DU?$char_traits@D@std@@V?$allocator@D@2@@std@@@std@@QAEXPAV?$basic_string@DU?$char_traits@D@std@@V?$allocator@D@2@@2@ABV32@@Z 10087e30 f i ScriptFuns.obj
 0001:00086e50       ?_Mynode@const_iterator@?$list@V?$basic_string@DU?$char_traits@D@std@@V?$allocator@D@2@@std@@V?$allocator@V?$basic_string@DU?$char_traits@D@std@@V?$allocator@D@2@@std@@@2@@std@@QBEPAU_Node@23@XZ 10087e50 f i ScriptFuns.obj
 0001:00086e60       ??0iterator@?$list@V?$basic_string@DU?$char_traits@D@std@@V?$allocator@D@2@@std@@V?$allocator@V?$basic_string@DU?$char_traits@D@std@@V?$allocator@D@2@@std@@@2@@std@@QAE@PAU_Node@12@@Z 10087e60 f i ScriptFuns.obj
 0001:00086e80       ??Eiterator@?$list@V?$basic_string@DU?$char_traits@D@std@@V?$allocator@D@2@@std@@V?$allocator@V?$basic_string@DU?$char_traits@D@std@@V?$allocator@D@2@@std@@@2@@std@@QAE?AV012@H@Z 10087e80 f i ScriptFuns.obj
 0001:00086eb0       ??9iterator@?$list@V?$basic_string@DU?$char_traits@D@std@@V?$allocator@D@2@@std@@V?$allocator@V?$basic_string@DU?$char_traits@D@std@@V?$allocator@D@2@@std@@@2@@std@@QBE_NABV012@@Z 10087eb0 f i ScriptFuns.obj
 0001:00086ee0       ?destroy@?$allocator@V?$basic_string@DU?$char_traits@D@std@@V?$allocator@D@2@@std@@@std@@QAEXPAV?$basic_string@DU?$char_traits@D@std@@V?$allocator@D@2@@2@@Z 10087ee0 f i ScriptFuns.obj
 0001:00086f00       ??Eiterator@?$list@V?$basic_string@DU?$char_traits@D@std@@V?$allocator@D@2@@std@@V?$allocator@V?$basic_string@DU?$char_traits@D@std@@V?$allocator@D@2@@std@@@2@@std@@QAEAAV012@XZ 10087f00 f i ScriptFuns.obj
 0001:00086f30       ??8iterator@?$list@V?$basic_string@DU?$char_traits@D@std@@V?$allocator@D@2@@std@@V?$allocator@V?$basic_string@DU?$char_traits@D@std@@V?$allocator@D@2@@std@@@2@@std@@QBE_NABV012@@Z 10087f30 f i ScriptFuns.obj
 0001:00086f50       ?_Construct@std@@YAXPAV?$basic_string@DU?$char_traits@D@std@@V?$allocator@D@2@@1@ABV21@@Z 10087f50 f i ScriptFuns.obj
 0001:00086fc0       ??3@YAXPAX0@Z              10087fc0 f i ScriptFuns.obj
 0001:00086fd0       ?_Destroy@std@@YAXPAV?$basic_string@DU?$char_traits@D@std@@V?$allocator@D@2@@1@@Z 10087fd0 f i ScriptFuns.obj
 0001:00086fe0       ??_G?$basic_string@DU?$char_traits@D@std@@V?$allocator@D@2@@std@@QAEPAXI@Z 10087fe0 f i ScriptFuns.obj
 0001:0008704f       ??0KScriptValueSet@@QAE@XZ 1008804f f   KScriptValueSet.obj
 0001:000870a9       ??1KScriptValueSet@@UAE@XZ 100880a9 f   KScriptValueSet.obj
 0001:00087100       ?Load@KScriptValueSet@@QAEHPAD@Z 10088100 f   KScriptValueSet.obj
 0001:00087344       ?Save@KScriptValueSet@@QAEHPAD@Z 10088344 f   KScriptValueSet.obj
 0001:00087430       ?SetValue@KScriptValueSet@@QAEHPAD0@Z 10088430 f   KScriptValueSet.obj
 0001:00087482       ?SetValue@KScriptValueSet@@QAEHPADH@Z 10088482 f   KScriptValueSet.obj
 0001:000874ca       ?GetValue@KScriptValueSet@@QAEHPAD0@Z 100884ca f   KScriptValueSet.obj
 0001:0008751d       ?GetValue@KScriptValueSet@@QAEHPADPAH@Z 1008851d f   KScriptValueSet.obj
 0001:00087560       ?AddValue@KScriptValueSet@@AAEXPAD0@Z 10088560 f   KScriptValueSet.obj
 0001:000875e9       ?AddValue@KScriptValueSet@@AAEXPADH@Z 100885e9 f   KScriptValueSet.obj
 0001:0008766f       ?SearchValue@KScriptValueSet@@AAEPAVKNode@@PADH@Z 1008866f f   KScriptValueSet.obj
 0001:00087710       ??_EKScriptValueSet@@UAEPAXI@Z 10088710 f i KScriptValueSet.obj
 0001:00087710       ??_GKScriptValueSet@@UAEPAXI@Z 10088710 f i KScriptValueSet.obj
 0001:00087740       ??0TStringValueNode@@QAE@PAD0@Z 10088740 f i KScriptValueSet.obj
 0001:00087790       ??_GTStringValueNode@@UAEPAXI@Z 10088790 f i KScriptValueSet.obj
 0001:00087790       ??_ETStringValueNode@@UAEPAXI@Z 10088790 f i KScriptValueSet.obj
 0001:000877c0       ??1TStringValueNode@@UAE@XZ 100887c0 f i KScriptValueSet.obj
 0001:000877e0       ??0TIntegerValueNode@@QAE@PADH@Z 100887e0 f i KScriptValueSet.obj
 0001:00087820       ??_GTIntegerValueNode@@UAEPAXI@Z 10088820 f i KScriptValueSet.obj
 0001:00087820       ??_ETIntegerValueNode@@UAEPAXI@Z 10088820 f i KScriptValueSet.obj
 0001:00087850       ??1TIntegerValueNode@@UAE@XZ 10088850 f i KScriptValueSet.obj
 0001:0008790f       ??M@YAHVKSortScriptNode@@0@Z 1008890f f   KSortScript.obj
 0001:0008792e       ??8@YAHVKSortScriptNode@@0@Z 1008892e f   KSortScript.obj
 0001:00087950       ?g_IniScriptEngine@@YAKXZ  10088950 f   KSortScript.obj
 0001:000879e8       ?g_GetScript@@YAPBVKScript@@K@Z 100889e8 f   KSortScript.obj
 0001:00087a21       ?g_GetScript@@YAPBVKScript@@PBD@Z 10088a21 f   KSortScript.obj
 0001:00087a45       ?LoadScriptInDirectory@@YAXPAD0@Z 10088a45 f   KSortScript.obj
 0001:00087eb0       ?UnLoadScript@@YAXK@Z      10088eb0 f   KSortScript.obj
 0001:00087ed4       ?ReLoadScript@@YAHPBD@Z    10088ed4 f   KSortScript.obj
 0001:00087f40       ?ReLoadAllScript@@YAKXZ    10088f40 f   KSortScript.obj
 0001:00087f60       ??0?$BinSTree@VKSortScriptNode@@@@QAE@XZ 10088f60 f i KSortScript.obj
 0001:00087f90       ??1?$BinSTree@VKSortScriptNode@@@@QAE@XZ 10088f90 f i KSortScript.obj
 0001:00087fb0       ?Find@?$BinSTree@VKSortScriptNode@@@@QAE_NAAVKSortScriptNode@@@Z 10088fb0 f i KSortScript.obj
 0001:00088000       ?Insert@?$BinSTree@VKSortScriptNode@@@@QAEXABVKSortScriptNode@@@Z 10089000 f i KSortScript.obj
 0001:00088120       ?Delete@?$BinSTree@VKSortScriptNode@@@@QAEXABVKSortScriptNode@@@Z 10089120 f i KSortScript.obj
 0001:00088240       ?ClearList@?$BinSTree@VKSortScriptNode@@@@QAEXXZ 10089240 f i KSortScript.obj
 0001:00088280       ?DeleteTree@?$BinSTree@VKSortScriptNode@@@@AAEXPAV?$TreeNode@VKSortScriptNode@@@@@Z 10089280 f i KSortScript.obj
 0001:000882d0       ?FindNode@?$BinSTree@VKSortScriptNode@@@@ABEPAV?$TreeNode@VKSortScriptNode@@@@ABVKSortScriptNode@@AAPAV2@@Z 100892d0 f i KSortScript.obj
 0001:00088360       ??0?$TreeNode@VKSortScriptNode@@@@QAE@ABVKSortScriptNode@@PAV0@1@Z 10089360 f i KSortScript.obj
 0001:000883a0       ?GetScriptID@KSortScriptNode@@QAEKXZ 100893a0 f i KSortScript.obj
 0001:000883c0       ?SetScriptIndex@KSortScriptNode@@QAEXK@Z 100893c0 f i KSortScript.obj
 0001:000883e0       ?SetScriptID@KSortScriptNode@@QAEXK@Z 100893e0 f i KSortScript.obj
 0001:00088400       ?GetScript@KSortScriptNode@@QAEPBVKScript@@XZ 10089400 f i KSortScript.obj
 0001:00088449       _CoreGetServerShell        10089449 f   CoreServerShell.obj
 0001:00088458       ?Release@CoreServerShell@@UAEXXZ 10089458 f   CoreServerShell.obj
 0001:00088468       ?GetLoopRate@CoreServerShell@@UAEHXZ 10089468 f   CoreServerShell.obj
 0001:00088478       ?GetConnectInfo@CoreServerShell@@UAEHPAUKCoreConnectInfo@@@Z 10089478 f   CoreServerShell.obj
 0001:0008849f       ?AddCharacter@CoreServerShell@@UAEHHHPAXPAU_GUID@@@Z 1008949f f   CoreServerShell.obj
 0001:000885c1       ?PlayerDbLoading@CoreServerShell@@UAE_NHHAAHAAI@Z 100895c1 f   CoreServerShell.obj
 0001:00088641       ?AddPlayerToWorld@CoreServerShell@@UAEXH@Z 10089641 f   CoreServerShell.obj
 0001:00088662       ?ProcessClientMessage@CoreServerShell@@UAEXHPBDH@Z 10089662 f   CoreServerShell.obj
 0001:00088685       ?ProcessNewClientMessage@CoreServerShell@@UAEXPAUIClient@@KKHPBDH@Z 10089685 f   CoreServerShell.obj
 0001:000886b4       ?SendNetMsgToTransfer@CoreServerShell@@UAEXPAUIClient@@@Z 100896b4 f   CoreServerShell.obj
 0001:000886cf       ?SendNetMsgToChat@CoreServerShell@@UAEXPAUIClient@@@Z 100896cf f   CoreServerShell.obj
 0001:000886ea       ?SendNetMsgToTong@CoreServerShell@@UAEXPAUIClient@@@Z 100896ea f   CoreServerShell.obj
 0001:00088705       ?ProcessBroadcastMessage@CoreServerShell@@UAEXPBDH@Z 10089705 f   CoreServerShell.obj
 0001:00088724       ?ProcessExecuteMessage@CoreServerShell@@UAEXPBDH@Z 10089724 f   CoreServerShell.obj
 0001:00088743       ?ClientDisconnect@CoreServerShell@@UAEXH@Z 10089743 f   CoreServerShell.obj
 0001:0008875e       ?RemoveQuitingPlayer@CoreServerShell@@UAEXH@Z 1008975e f   CoreServerShell.obj
 0001:000887a2       ?GetGameData@CoreServerShell@@UAEHIIH@Z 100897a2 f   CoreServerShell.obj
 0001:00089d50       ?OperationRequest@CoreServerShell@@UAEHIIH@Z 1008ad50 f   CoreServerShell.obj
 0001:0008a135       ?OnLunch@CoreServerShell@@AAEHPAX@Z 1008b135 f   CoreServerShell.obj
 0001:0008a1dd       ?OnLaunch@CoreServerShell@@AAEHPAX@Z 1008b1dd f   CoreServerShell.obj
 0001:0008a1fb       ?OnShutdown@CoreServerShell@@AAEHXZ 1008b1fb f   CoreServerShell.obj
 0001:0008a20b       ?Breathe@CoreServerShell@@UAEHXZ 1008b20b f   CoreServerShell.obj
 0001:0008a286       ?CheckProtocolSize@CoreServerShell@@UAE_NPBDH@Z 1008b286 f   CoreServerShell.obj
 0001:0008a33f       ?AttachPlayer@CoreServerShell@@UAEHKPAU_GUID@@@Z 1008b33f f   CoreServerShell.obj
 0001:0008a35e       ?SavePlayerDataAtOnce@CoreServerShell@@UAEPAXH@Z 1008b35e f   CoreServerShell.obj
 0001:0008a3bb       ?IsCharacterQuiting@CoreServerShell@@UAE_NH@Z 1008b3bb f   CoreServerShell.obj
 0001:0008a3f5       ?SetCharacterLixian@CoreServerShell@@UAEXHE@Z 1008b3f5 f   CoreServerShell.obj
 0001:0008a425       ?GetCharacterLixian@CoreServerShell@@UAEHH@Z 1008b425 f   CoreServerShell.obj
 0001:0008a458       ?IsPlayerLoginTimeOut@CoreServerShell@@UAE_NH@Z 1008b458 f   CoreServerShell.obj
 0001:0008a47f       ?RemovePlayerLoginTimeOut@CoreServerShell@@UAEXH@Z 1008b47f f   CoreServerShell.obj
 0001:0008a4c3       ?GetPlayerIndexByGuid@CoreServerShell@@UAEXPAU_GUID@@PAH1@Z 1008b4c3 f   CoreServerShell.obj
 0001:0008a51d       ?PreparePlayerForExchange@CoreServerShell@@UAEPAXH@Z 1008b51d f   CoreServerShell.obj
 0001:0008a559       ?IsPlayerExchangingServer@CoreServerShell@@UAE_NH@Z 1008b559 f   CoreServerShell.obj
 0001:0008a593       ?RemovePlayerForExchange@CoreServerShell@@UAEXH@Z 1008b593 f   CoreServerShell.obj
 0001:0008a5bf       ?GetGuid@CoreServerShell@@UAEXHPAX@Z 1008b5bf f   CoreServerShell.obj
 0001:0008a5fa       ?GetExchangeMap@CoreServerShell@@UAEKH@Z 1008b5fa f   CoreServerShell.obj
 0001:0008a62a       ?RecoverPlayerExchange@CoreServerShell@@UAEXH@Z 1008b62a f   CoreServerShell.obj
 0001:0008a6e5       ?SetSaveStatus@CoreServerShell@@UAEXHI@Z 1008b6e5 f   CoreServerShell.obj
 0001:0008a715       ?GetSaveStatus@CoreServerShell@@UAEIH@Z 1008b715 f   CoreServerShell.obj
 0001:0008a744       ?PreparePlayerForLoginFailed@CoreServerShell@@UAEXH@Z 1008b744 f   CoreServerShell.obj
 0001:0008a770       ?GroupChat@CoreServerShell@@UAEHPAUIClient@@KKKEKPBXI@Z 1008b770 f   CoreServerShell.obj
 0001:0008aeeb       ?SetLadder@CoreServerShell@@UAEXPAXI@Z 1008beeb f   CoreServerShell.obj
 0001:0008af0a       ?PayForSpeech@CoreServerShell@@UAEHHH@Z 1008bf0a f   CoreServerShell.obj
 0001:0008b250       ?SetExtPoint@CoreServerShell@@UAEXHH@Z 1008c250 f   CoreServerShell.obj
 0001:0008b288       ?GetLastName@CoreServerShell@@UAEXHPAD@Z 1008c288 f   CoreServerShell.obj
 0001:0008b2f1       ?RenameRoleRequest@CoreServerShell@@UAEXH_N@Z 1008c2f1 f   CoreServerShell.obj
 0001:0008b3d8       ?SaveData@CoreServerShell@@UAEXXZ 1008c3d8 f   CoreServerShell.obj
 0001:0008b410       ??0CoreServerShell@@QAE@XZ 1008c410 f i CoreServerShell.obj
 0001:0008b430       ??0iCoreServerShell@@QAE@XZ 1008c430 f i CoreServerShell.obj
 0001:0008b47f       ??0KMagicDesc@@QAE@XZ      1008c47f f   KMagicDesc.obj
 0001:0008b49d       ??1KMagicDesc@@QAE@XZ      1008c49d f   KMagicDesc.obj
 0001:0008b4b1       ?Init@KMagicDesc@@QAEHXZ   1008c4b1 f   KMagicDesc.obj
 0001:0008b4ca       ?GetDesc@KMagicDesc@@QAEPBDPAX@Z 1008c4ca f   KMagicDesc.obj
 0001:0008bc96       ?g_MagicID2String@@YAPBDH@Z 1008cc96 f   KMagicDesc.obj
 0001:0008bcbc       ?g_String2MagicID@@YAHPAD@Z 1008ccbc f   KMagicDesc.obj
 0001:0008bd1b       ?String2MagicID@KMagicDesc@@QAEHPAD@Z 1008cd1b f   KMagicDesc.obj
 0001:0008bd90       ?TextGMFilter@@YAHHPBDH@Z  1008cd90 f   KGMCommand.obj
 0001:0008be57       ?TextMsgProcessGMCmd@@YAHHPBDH@Z 1008ce57 f   KGMCommand.obj
 0001:0008bf40       ?ProcessGMCommand@@YAHHW4EGameMasterCommand@@PBDH@Z 1008cf40 f   KGMCommand.obj
 0001:0008c228       ?GetNextUnit@@YAHPBDDHPAD@Z 1008d228 f   KGMCommand.obj
 0001:0008c2f0       ?SetParam@?$_KMissionPlayerArray@UTMissionPlayerInfo@@$0ELA@@@QAEHKHH@Z 1008d2f0 f   KMission.obj
 0001:0008c398       ?GetMin@KMission@@QAEPAUTMissionLadderInfo@@QAU2@H@Z 1008d398 f   KMission.obj
 0001:0008c443       ?DataCopy@KMission@@QAEXPAUTMissionLadderInfo@@PAUTMissionPlayerInfo@@@Z 1008d443 f   KMission.obj
 0001:0008c4ae       ?ListSort@KMission@@QAEXQAUTMissionLadderInfo@@H@Z 1008d4ae f   KMission.obj
 0001:0008c586       ?Activate@KMission@@QAEHXZ 1008d586 f   KMission.obj
 0001:0008c5a4       ?ExecuteScript@KMission@@QAEHPAD0H@Z 1008d5a4 f   KMission.obj
 0001:0008c5f3       ?ExecuteScript@KMission@@QAEHKPADH@Z 1008d5f3 f   KMission.obj
 0001:0008c6f8       ?StopMission@KMission@@QAEHXZ 1008d6f8 f   KMission.obj
 0001:0008c8b9       ?AddPlayer@KMission@@QAEKKKEH@Z 1008d8b9 f   KMission.obj
 0001:0008c9af       ?AddNpc@KMission@@QAEKKKEH@Z 1008d9af f   KMission.obj
 0001:0008ca99       ?RemovePlayer@KMission@@QAEHKK@Z 1008da99 f   KMission.obj
 0001:0008cb66       ?RemoveNpc@KMission@@QAEHKK@Z 1008db66 f   KMission.obj
 0001:0008cc68       ?SetPlayerParam@KMission@@QAEXKHH@Z 1008dc68 f   KMission.obj
 0001:0008cf51       ?g_MissionTimerCallBackFun@@YAHPAXPADK@Z 1008df51 f   KMission.obj
 0001:0008cfb0       ?Activate@?$KTimerFunArray@VKTimerTaskFun@@$03$1?g_MissionTimerCallBackFun@@YAHPAXPADK@Z@@QAEHXZ 1008dfb0 f i KMission.obj
 0001:0008d030       ?FindFree@?$KLinkArrayTemplate@UTMissionPlayerInfo@@$0ELA@@@QAEPAUTMissionPlayerInfo@@AAK@Z 1008e030 f i KMission.obj
 0001:0008d070       ?Remove@?$KLinkArrayTemplate@UTMissionNpcInfo@@$0LLIA@@@QAEKPAUTMissionNpcInfo@@@Z 1008e070 f i KMission.obj
 0001:0008d0b0       ?FindFree@?$KLinkArrayTemplate@UTMissionNpcInfo@@$0LLIA@@@QAEPAUTMissionNpcInfo@@AAK@Z 1008e0b0 f i KMission.obj
 0001:0008d0f0       ?GetUsedCount@?$KLinkArrayTemplate@VKTimerTaskFun@@$03@@QBEKXZ 1008e0f0 f i KMission.obj
 0001:0008d110       ?Remove@?$KLinkArrayTemplate@UTMissionNpcInfo@@$0LLIA@@@QAEKK@Z 1008e110 f i KMission.obj
 0001:0008d170       ?GetOwner@KMission@@QAEPAXXZ 1008e170 f i KMission.obj
 0001:0008d190       ?Init@KMission@@QAEXXZ     1008e190 f i KMission.obj
 0001:0008d200       ?GetNextPlayer@KMission@@QAEKKAAK@Z 1008e200 f i KMission.obj
 0001:0008d270       ?GetNextNpc@KMission@@QAEKKAAK@Z 1008e270 f i KMission.obj
 0001:0008d2d0       ?g_GetPriceToWayPoint@@YAHHH@Z 1008e2d0 f   KTaskFuns.obj
 0001:0008d393       ?g_GetPriceToStation@@YAHHH@Z 1008e393 f   KTaskFuns.obj
 0001:0008d474       ?g_GetPriceToDock@@YAHHH@Z 1008e474 f   KTaskFuns.obj
 0001:0008d558       ??0KTimerTaskFun@@QAE@XZ   1008e558 f   KTaskFuns.obj
 0001:0008d595       ?Activate@KTimerTaskFun@@QAEHP6AHPAXPADK@Z@Z 1008e595 f   KTaskFuns.obj
 0001:0008d63a       ?SaveTask@KTimerTaskFun@@UAEHPAVKPlayer@@@Z 1008e63a f   KTaskFuns.obj
 0001:0008d70c       ?LoadTask@KTimerTaskFun@@UAEHPAVKPlayer@@@Z 1008e70c f   KTaskFuns.obj
 0001:0008d794       ?SetTimer@KTimerTaskFun@@QAEHIG@Z 1008e794 f   KTaskFuns.obj
 0001:0008d7e2       ?CloseTimer@KTimerTaskFun@@QAEXXZ 1008e7e2 f   KTaskFuns.obj
 0001:0008d80b       ?GetRestTime@KTimerTaskFun@@QAEKXZ 1008e80b f   KTaskFuns.obj
 0001:0008d848       ?GetTimerTaskScript@KTimerTaskFun@@QAEXPADGI@Z 1008e848 f   KTaskFuns.obj
 0001:0008d890       ?g_PlayerTimerCallBackFun@@YAHPAXPADK@Z 1008e890 f   KTaskFuns.obj
 0001:0008d8d0       ??0KTaskFun@@QAE@XZ        1008e8d0 f i KTaskFuns.obj
 0001:0008d92f       ??0KLadder@@QAE@XZ         1008e92f f   KLadder.obj
 0001:0008d950       ??1KLadder@@QAE@XZ         1008e950 f   KLadder.obj
 0001:0008d96e       ?Init@KLadder@@QAEHPAXI@Z  1008e96e f   KLadder.obj
 0001:0008d9a1       ?TopTenFacMasterHand@KLadder@@QAEPBUTRoleList@@H@Z 1008e9a1 f   KLadder.obj
 0001:0008d9d4       ?TopTenFacRich@KLadder@@QAEPBUTRoleList@@H@Z 1008e9d4 f   KLadder.obj
 0001:0008da07       ?TopTenKiller@KLadder@@QAEPBUTRoleList@@XZ 1008ea07 f   KLadder.obj
 0001:0008da1a       ?TopTenRepute@KLadder@@QAEPBUTRoleList@@XZ 1008ea1a f   KLadder.obj
 0001:0008da2d       ?TopTenFuYuan@KLadder@@QAEPBUTRoleList@@XZ 1008ea2d f   KLadder.obj
 0001:0008da40       ?TopTenAccumStat1@KLadder@@QAEPBUTRoleList@@XZ 1008ea40 f   KLadder.obj
 0001:0008da53       ?TopTenAccumStat2@KLadder@@QAEPBUTRoleList@@XZ 1008ea53 f   KLadder.obj
 0001:0008da66       ?TopTenHonorStat@KLadder@@QAEPBUTRoleList@@XZ 1008ea66 f   KLadder.obj
 0001:0008da79       ?TopTenTimeStat@KLadder@@QAEPBUTRoleList@@XZ 1008ea79 f   KLadder.obj
 0001:0008da8c       ?TopTenTongLv@KLadder@@QAEPBUTRoleList@@XZ 1008ea8c f   KLadder.obj
 0001:0008da9f       ?TopTenTongMn@KLadder@@QAEPBUTRoleList@@XZ 1008ea9f f   KLadder.obj
 0001:0008dab2       ?TopTenTongEff@KLadder@@QAEPBUTRoleList@@XZ 1008eab2 f   KLadder.obj
 0001:0008dac5       ?TopTenMasterHand@KLadder@@QAEPBUTRoleList@@XZ 1008eac5 f   KLadder.obj
 0001:0008dad8       ?TopTenRich@KLadder@@QAEPBUTRoleList@@XZ 1008ead8 f   KLadder.obj
 0001:0008dae6       ?GetFacMasterHandPercent@KLadder@@QAEHH@Z 1008eae6 f   KLadder.obj
 0001:0008db10       ?GetFacMoneyPercent@KLadder@@QAEHH@Z 1008eb10 f   KLadder.obj
 0001:0008db3a       ?GetFacMemberCount@KLadder@@QAEHH@Z 1008eb3a f   KLadder.obj
 0001:0008db64       ?GetTopTen@KLadder@@QAEPBUTRoleList@@K@Z 1008eb64 f   KLadder.obj
 0001:0008dc80       ??4KSubWorldSet@@QAEAAV0@ABV0@@Z 1008ec80 f i stdafx.obj
 0001:0008dca2       _GetTickCount@0            1008eca2 f   kernel32:KERNEL32.dll
 0001:0008dca8       _FileTimeToSystemTime@8    1008eca8 f   kernel32:KERNEL32.dll
 0001:0008dcae       _LocalFileTimeToFileTime@8 1008ecae f   kernel32:KERNEL32.dll
 0001:0008dcb4       _SystemTimeToFileTime@8    1008ecb4 f   kernel32:KERNEL32.dll
 0001:0008dcba       _Sleep@4                   1008ecba f   kernel32:KERNEL32.dll
 0001:0008dcc0       _GetComputerNameA@8        1008ecc0 f   kernel32:KERNEL32.dll
 0001:0008dcc6       _GetSystemTime@4           1008ecc6 f   kernel32:KERNEL32.dll
 0001:0008dccc       _ShellExecuteA@24          1008eccc f   shell32:SHELL32.dll
 0001:0008dcd2       _lua_tostring              1008ecd2 f   lualibdll:LuaLibDll.dll
 0001:0008dcd8       _lua_isstring              1008ecd8 f   lualibdll:LuaLibDll.dll
 0001:0008dcde       _lua_tonumber              1008ecde f   lualibdll:LuaLibDll.dll
 0001:0008dce4       _lua_isnumber              1008ece4 f   lualibdll:LuaLibDll.dll
 0001:0008dcea       _lua_typename              1008ecea f   lualibdll:LuaLibDll.dll
 0001:0008dcf0       _lua_gettop                1008ecf0 f   lualibdll:LuaLibDll.dll
 0001:0008dcf6       _lua_pushnumber            1008ecf6 f   lualibdll:LuaLibDll.dll
 0001:0008dcfc       _lua_type                  1008ecfc f   lualibdll:LuaLibDll.dll
 0001:0008dd02       _lua_getglobal             1008ed02 f   lualibdll:LuaLibDll.dll
 0001:0008dd08       _lua_rawget                1008ed08 f   lualibdll:LuaLibDll.dll
 0001:0008dd0e       _lua_dofile                1008ed0e f   lualibdll:LuaLibDll.dll
 0001:0008dd14       _lua_pushnil               1008ed14 f   lualibdll:LuaLibDll.dll
 0001:0008dd1a       _lua_pushstring            1008ed1a f   lualibdll:LuaLibDll.dll
 0001:0008dd20       _inet_addr@4               1008ed20 f   Ws2_32:WS2_32.dll
 0001:0008dd26       ?g_FileName2Id@@YAKPAD@Z   1008ed26 f   engine:Engine.dll
 0001:0008dd2c       ?GetString@KTabFile@@UAEHHPAD00KH@Z 1008ed2c f   engine:Engine.dll
 0001:0008dd32       ?GetInteger@KTabFile@@UAEHHPADHPAHH@Z 1008ed32 f   engine:Engine.dll
 0001:0008dd38       ??1KTabFile@@UAE@XZ        1008ed38 f   engine:Engine.dll
 0001:0008dd3e       ?g_DebugLog@@YAXPADZZ      1008ed3e f   engine:Engine.dll
 0001:0008dd44       ?Load@KTabFile@@UAEHPAD@Z  1008ed44 f   engine:Engine.dll
 0001:0008dd4a       ??0KTabFile@@QAE@XZ        1008ed4a f   engine:Engine.dll
 0001:0008dd50       ?g_Random@@YAII@Z          1008ed50 f   engine:Engine.dll
 0001:0008dd56       ??1KLinkArray@@QAE@XZ      1008ed56 f   engine:Engine.dll
 0001:0008dd5c       ??0KLinkArray@@QAE@XZ      1008ed5c f   engine:Engine.dll
 0001:0008dd62       ?Insert@KLinkArray@@QAEXH@Z 1008ed62 f   engine:Engine.dll
 0001:0008dd68       ?Init@KLinkArray@@QAEXH@Z  1008ed68 f   engine:Engine.dll
 0001:0008dd6e       ?GetNext@KLinkArray@@QBEHH@Z 1008ed6e f   engine:Engine.dll
 0001:0008dd74       ?Remove@KLinkArray@@QAEXH@Z 1008ed74 f   engine:Engine.dll
 0001:0008dd7a       ?GetHeight@KTabFile@@UAEHXZ 1008ed7a f   engine:Engine.dll
 0001:0008dd80       ?SafeCallEnd@KLuaScript@@QAEXH@Z 1008ed80 f   engine:Engine.dll
 0001:0008dd86       ?SafeCallBegin@KLuaScript@@QAEXPAH@Z 1008ed86 f   engine:Engine.dll
 0001:0008dd8c       ?KSG_StringSkipSymbol@@YA_NPAPBDH@Z 1008ed8c f   engine:Engine.dll
 0001:0008dd92       ?KSG_StringGetInt@@YAHPAPBDH@Z 1008ed92 f   engine:Engine.dll
 0001:0008dd98       ?GetString@KIniFile@@QAEHPBD00PADK@Z 1008ed98 f   engine:Engine.dll
 0001:0008dd9e       ??1KIniFile@@QAE@XZ        1008ed9e f   engine:Engine.dll
 0001:0008dda4       ?Load@KIniFile@@QAEHPBD@Z  1008eda4 f   engine:Engine.dll
 0001:0008ddaa       ??0KIniFile@@QAE@XZ        1008edaa f   engine:Engine.dll
 0001:0008ddb0       ?GetInteger@KIniFile@@QAEHPBD0HPAH@Z 1008edb0 f   engine:Engine.dll
 0001:0008ddb6       ?Save@KIniFile@@QAEHPBD@Z  1008edb6 f   engine:Engine.dll
 0001:0008ddbc       ?WriteInteger@KIniFile@@QAEXPBD0H@Z 1008edbc f   engine:Engine.dll
 0001:0008ddc2       ?WriteString@KIniFile@@QAEXPBD00@Z 1008edc2 f   engine:Engine.dll
 0001:0008ddc8       ?GetInteger@KTabFile@@UAEHHHHPAH@Z 1008edc8 f   engine:Engine.dll
 0001:0008ddce       ?KSG_GetCurSec@@YAHXZ      1008edce f   engine:Engine.dll
 0001:0008ddd4       ?Clear@KIniFile@@QAEXXZ    1008edd4 f   engine:Engine.dll
 0001:0008ddda       ?g_StrCmp@@YAHPBD0@Z       1008edda f   engine:Engine.dll
 0001:0008dde0       ?g_StrLower@@YAXPAD@Z      1008ede0 f   engine:Engine.dll
 0001:0008dde6       ?g_StrCpyLen@@YAXPADPBDH@Z 1008ede6 f   engine:Engine.dll
 0001:0008ddec       ?SetGlobalName@KLuaScript@@QAEXPAD@Z 1008edec f   engine:Engine.dll
 0001:0008ddf2       ?SetScriptName@KLuaScript@@UAEXPAD@Z 1008edf2 f   engine:Engine.dll
 0001:0008ddf8       ?RegisterFunction@KLuaScript@@UAEHPADPAX@Z 1008edf8 f   engine:Engine.dll
 0001:0008ddfe       ?CallFunction@KLuaScript@@UAAHPADH0ZZ 1008edfe f   engine:Engine.dll
 0001:0008de04       ?Execute@KLuaScript@@UAEHXZ 1008ee04 f   engine:Engine.dll
 0001:0008de0a       ?Compile@KLuaScript@@UAEHPAD@Z 1008ee0a f   engine:Engine.dll
 0001:0008de10       ?Load@KLuaScript@@UAEHPAD@Z 1008ee10 f   engine:Engine.dll
 0001:0008de16       ?Exit@KLuaScript@@UAEXXZ   1008ee16 f   engine:Engine.dll
 0001:0008de1c       ?Init@KLuaScript@@UAEHXZ   1008ee1c f   engine:Engine.dll
 0001:0008de22       ?ExecuteCode@KLuaScript@@QAEHXZ 1008ee22 f   engine:Engine.dll
 0001:0008de28       ?LoadBuffer@KLuaScript@@QAEHPAEK@Z 1008ee28 f   engine:Engine.dll
 0001:0008de2e       ?RegisterFunctions@KLuaScript@@QAEHQAUTLua_Funcs@@H@Z 1008ee2e f   engine:Engine.dll
 0001:0008de34       ??0KLuaScript@@QAE@XZ      1008ee34 f   engine:Engine.dll
 0001:0008de3a       ??1KLuaScript@@UAE@XZ      1008ee3a f   engine:Engine.dll
 0001:0008de40       ?Clear@KTabFile@@UAEXXZ    1008ee40 f   engine:Engine.dll
 0001:0008de46       ?FindRow@KTabFile@@UAEHPAD@Z 1008ee46 f   engine:Engine.dll
 0001:0008de4c       _TReplaceText              1008ee4c f   engine:Engine.dll
 0001:0008de52       ?KSG_StringGetValue@@YAHHHH@Z 1008ee52 f   engine:Engine.dll
 0001:0008de58       ?KSG_StringSetValue@@YAHHHHH@Z 1008ee58 f   engine:Engine.dll
 0001:0008de5e       ?GetString@KTabFile@@UAEHHHPAD0K@Z 1008ee5e f   engine:Engine.dll
 0001:0008de64       ?g_StrCpy@@YAXPADPBD@Z     1008ee64 f   engine:Engine.dll
 0001:0008de6a       ?GetPrev@KLinkArray@@QBEHH@Z 1008ee6a f   engine:Engine.dll
 0001:0008de70       ?GetInteger3@KIniFile@@QAEXPBD0PAH11@Z 1008ee70 f   engine:Engine.dll
 0001:0008de76       ?g_UnitePathAndName@@YAXPAD00@Z 1008ee76 f   engine:Engine.dll
 0001:0008de7c       ?g_SetRootPath@@YAXPAD@Z   1008ee7c f   engine:Engine.dll
 0001:0008de82       ?GetWidth@KTabFile@@UAEHXZ 1008ee82 f   engine:Engine.dll
 0001:0008de88       ?g_GetRandomSeed@@YAIXZ    1008ee88 f   engine:Engine.dll
 0001:0008de8e       ?g_RandomSeed@@YAXI@Z      1008ee8e f   engine:Engine.dll
 0001:0008de94       ??0KPolygon@@QAE@XZ        1008ee94 f   engine:Engine.dll
 0001:0008de9a       ?Clear@KPolygon@@QAEXXZ    1008ee9a f   engine:Engine.dll
 0001:0008dea0       ?IsPointInPolygon@KPolygon@@QAEHUtagPOINT@@@Z 1008eea0 f   engine:Engine.dll
 0001:0008dea6       ?GetCenterPos@KPolygon@@QAEXPAUtagPOINT@@@Z 1008eea6 f   engine:Engine.dll
 0001:0008deac       _TGetLimitLenString        1008eeac f   engine:Engine.dll
 0001:0008deb2       ?Read@KPakFile@@QAEKPAXI@Z 1008eeb2 f   engine:Engine.dll
 0001:0008deb8       ?Close@KPakFile@@QAEXXZ    1008eeb8 f   engine:Engine.dll
 0001:0008debe       ?Size@KPakFile@@QAEKXZ     1008eebe f   engine:Engine.dll
 0001:0008dec4       ??1KPakFile@@QAE@XZ        1008eec4 f   engine:Engine.dll
 0001:0008deca       ?Open@KPakFile@@QAEHPBD@Z  1008eeca f   engine:Engine.dll
 0001:0008ded0       ??0KPakFile@@QAE@XZ        1008eed0 f   engine:Engine.dll
 0001:0008ded6       ?Seek@KPakFile@@QAEKHI@Z   1008eed6 f   engine:Engine.dll
 0001:0008dedc       ?FindColumn@KTabFile@@UAEHPAD@Z 1008eedc f   engine:Engine.dll
 0001:0008dee2       ?g_FindDebugWindow@@YAPAUHWND__@@PAD0@Z 1008eee2 f   engine:Engine.dll
 0001:0008dee8       ?GetRect@KIniFile@@QAEXPBD0PAUtagRECT@@@Z 1008eee8 f   engine:Engine.dll
 0001:0008deee       ?g_SetFilePath@@YAXPAD@Z   1008eeee f   engine:Engine.dll
 0001:0008def4       ?GetFloat3@KIniFile@@QAEXPBD0PAM@Z 1008eef4 f   engine:Engine.dll
 0001:0008defa       ??0KTimer@@QAE@XZ          1008eefa f   engine:Engine.dll
 0001:0008df00       ?GetInteger2@KIniFile@@QAEXPBD0PAH1@Z 1008ef00 f   engine:Engine.dll
 0001:0008df06       ?g_GetFilePath@@YAXPAD@Z   1008ef06 f   engine:Engine.dll
 0001:0008df0c       ??0KScriptList@@QAE@XZ     1008ef0c f   engine:Engine.dll
 0001:0008df12       ??1KScriptList@@QAE@XZ     1008ef12 f   engine:Engine.dll
 0001:0008df18       ?g_GetRootPath@@YAXPAD@Z   1008ef18 f   engine:Engine.dll
 0001:0008df1e       ?g_StrCat@@YAXPADPBD@Z     1008ef1e f   engine:Engine.dll
 0001:0008df24       ?GetInteger@KTabFile@@UAEHPAD0HPAH@Z 1008ef24 f   engine:Engine.dll
 0001:0008df2a       ?GetCount@KLinkArray@@QAEHXZ 1008ef2a f   engine:Engine.dll
 0001:0008df30       _TGetColor                 1008ef30 f   engine:Engine.dll
 0001:0008df36       _TEncodeText               1008ef36 f   engine:Engine.dll
 0001:0008df3c       ?g_FileExists@@YAHPAD@Z    1008ef3c f   engine:Engine.dll
 0001:0008df42       ?IsSectionExist@KIniFile@@QAEHPBD@Z 1008ef42 f   engine:Engine.dll
 0001:0008df48       ?WriteInteger2@KIniFile@@QAEXPBD0HH@Z 1008ef48 f   engine:Engine.dll
 0001:0008df4e       ?GetString@KTabFile@@UAEHPAD000K@Z 1008ef4e f   engine:Engine.dll
 0001:0008df54       ?GetNextKey@KIniFile@@QAEHPBD0PAD@Z 1008ef54 f   engine:Engine.dll
 0001:0008df5a       ?g_GetFullPath@@YAXPAD0@Z  1008ef5a f   engine:Engine.dll
 0001:0008df60       ??0CBuffer@Win32@OnlineGameLib@@AAE@AAVAllocator@012@I@Z 1008ef60 f   common:Buffer.obj
 0001:0008e010       ??1CBuffer@Win32@OnlineGameLib@@AAE@XZ 1008f010 f   common:Buffer.obj
 0001:0008e0dd       ?GetHeadPack@CBuffer@Win32@OnlineGameLib@@QAEPAV123@I@Z 1008f0dd f   common:Buffer.obj
 0001:0008e15d       ?GetNextPack@CBuffer@Win32@OnlineGameLib@@QAEPAV123@XZ 1008f15d f   common:Buffer.obj
 0001:0008e1e9       ?AddData@CBuffer@Win32@OnlineGameLib@@QAEXQBDI@Z 1008f1e9 f   common:Buffer.obj
 0001:0008e29f       ?AddData@CBuffer@Win32@OnlineGameLib@@QAEXQBEI@Z 1008f29f f   common:Buffer.obj
 0001:0008e2bc       ?AddData@CBuffer@Win32@OnlineGameLib@@QAEXE@Z 1008f2bc f   common:Buffer.obj
 0001:0008e2d7       ?SplitBuffer@CBuffer@Win32@OnlineGameLib@@QAEPAV123@I@Z 1008f2d7 f   common:Buffer.obj
 0001:0008e339       ?AllocateNewBuffer@CBuffer@Win32@OnlineGameLib@@QBEPAV123@XZ 1008f339 f   common:Buffer.obj
 0001:0008e34f       ?Release@CBuffer@Win32@OnlineGameLib@@QAEXXZ 1008f34f f   common:Buffer.obj
 0001:0008e3f9       ??2CBuffer@Win32@OnlineGameLib@@CAPAXII@Z 1008f3f9 f   common:Buffer.obj
 0001:0008e41b       ??3CBuffer@Win32@OnlineGameLib@@CAXPAXI@Z 1008f41b f   common:Buffer.obj
 0001:0008e4a5       ??0Allocator@CBuffer@Win32@OnlineGameLib@@QAE@II@Z 1008f4a5 f   common:Buffer.obj
 0001:0008e4f1       ??1Allocator@CBuffer@Win32@OnlineGameLib@@UAE@XZ 1008f4f1 f   common:Buffer.obj
 0001:0008e586       ?Allocate@Allocator@CBuffer@Win32@OnlineGameLib@@QAEPAV234@XZ 1008f586 f   common:Buffer.obj
 0001:0008e6d6       ?Flush@Allocator@CBuffer@Win32@OnlineGameLib@@IAEXXZ 1008f6d6 f   common:Buffer.obj
 0001:0008e786       ?Release@Allocator@CBuffer@Win32@OnlineGameLib@@AAEXPAV234@@Z 1008f786 f   common:Buffer.obj
 0001:0008e87e       ??0CPackager@Win32@OnlineGameLib@@QAE@II@Z 1008f87e f   common:Buffer.obj
 0001:0008e921       ??1CPackager@Win32@OnlineGameLib@@UAE@XZ 1008f921 f   common:Buffer.obj
 0001:0008e9b1       ?AddData@CPackager@Win32@OnlineGameLib@@QAEXEQBDIK@Z 1008f9b1 f   common:Buffer.obj
 0001:0008eabd       ?AddData@CPackager@Win32@OnlineGameLib@@QAEXEQBEIK@Z 1008fabd f   common:Buffer.obj
 0001:0008eae2       ?DelData@CPackager@Win32@OnlineGameLib@@QAEXE@Z 1008fae2 f   common:Buffer.obj
 0001:0008ebef       ?GetHeadPack@CPackager@Win32@OnlineGameLib@@QAEPAVCBuffer@23@EI@Z 1008fbef f   common:Buffer.obj
 0001:0008edab       ?GetNextPack@CPackager@Win32@OnlineGameLib@@QAEPAVCBuffer@23@E@Z 1008fdab f   common:Buffer.obj
 0001:0008ef5f       ?PackUp@CPackager@Win32@OnlineGameLib@@QAEPAVCBuffer@23@PBXI@Z 1008ff5f f   common:Buffer.obj
 0001:0008f141       ?Empty@CPackager@Win32@OnlineGameLib@@QAEXXZ 10090141 f   common:Buffer.obj
 0001:0008f3a0       ??0COpaqueUserData@OnlineGameLib@@IAE@XZ 100903a0 f i common:Buffer.obj
 0001:0008f3c0       ??1COpaqueUserData@OnlineGameLib@@IAE@XZ 100903c0 f i common:Buffer.obj
 0001:0008f3e0       ?Empty@CBuffer@Win32@OnlineGameLib@@QAEXXZ 100903e0 f i common:Buffer.obj
 0001:0008f400       ?_trace@@YAXPBDZZ          10090400 f i common:Buffer.obj
 0001:0008f410       ??1CException@Win32@OnlineGameLib@@UAE@XZ 10090410 f i common:Buffer.obj
 0001:0008f470       ??_ECException@Win32@OnlineGameLib@@UAEPAXI@Z 10090470 f i common:Buffer.obj
 0001:0008f470       ??_GCException@Win32@OnlineGameLib@@UAEPAXI@Z 10090470 f i common:Buffer.obj
 0001:0008f4a0       ??0CException@Win32@OnlineGameLib@@QAE@ABV012@@Z 100904a0 f i common:Buffer.obj
 0001:0008f510       ??0CCriticalSection@Win32@OnlineGameLib@@QAE@XZ 10090510 f i common:Buffer.obj
 0001:0008f530       ?OnBufferCreated@Allocator@CBuffer@Win32@OnlineGameLib@@EAEXXZ 10090530 f i common:Buffer.obj
 0001:0008f540       ?OnBufferAllocated@Allocator@CBuffer@Win32@OnlineGameLib@@EAEXXZ 10090540 f i common:Buffer.obj
 0001:0008f550       ?OnBufferReleased@Allocator@CBuffer@Win32@OnlineGameLib@@EAEXXZ 10090550 f i common:Buffer.obj
 0001:0008f560       ??_GAllocator@CBuffer@Win32@OnlineGameLib@@UAEPAXI@Z 10090560 f i common:Buffer.obj
 0001:0008f560       ??_EAllocator@CBuffer@Win32@OnlineGameLib@@UAEPAXI@Z 10090560 f i common:Buffer.obj
 0001:0008f590       ??0?$TNodeList@VCBuffer@Win32@OnlineGameLib@@@OnlineGameLib@@QAE@XZ 10090590 f i common:Buffer.obj
 0001:0008f5b0       ??1CCriticalSection@Win32@OnlineGameLib@@QAE@XZ 100905b0 f i common:Buffer.obj
 0001:0008f5d0       ??0Owner@CCriticalSection@Win32@OnlineGameLib@@QAE@AAV123@@Z 100905d0 f i common:Buffer.obj
 0001:0008f600       ?Enter@CCriticalSection@Win32@OnlineGameLib@@QAEXXZ 10090600 f i common:Buffer.obj
 0001:0008f620       ??1Owner@CCriticalSection@Win32@OnlineGameLib@@QAE@XZ 10090620 f i common:Buffer.obj
 0001:0008f640       ?Leave@CCriticalSection@Win32@OnlineGameLib@@QAEXXZ 10090640 f i common:Buffer.obj
 0001:0008f660       ?Empty@CNodeList@OnlineGameLib@@QBE_NXZ 10090660 f i common:Buffer.obj
 0001:0008f680       ?AddRef@CBuffer@Win32@OnlineGameLib@@QAEXXZ 10090680 f i common:Buffer.obj
 0001:0008f6a0       ?DestroyBuffer@Allocator@CBuffer@Win32@OnlineGameLib@@AAEXPAV234@@Z 100906a0 f i common:Buffer.obj
 0001:0008f750       ??_GCBuffer@Win32@OnlineGameLib@@AAEPAXI@Z 10090750 f i common:Buffer.obj
 0001:0008f780       ?Count@CNodeList@OnlineGameLib@@QBEIXZ 10090780 f i common:Buffer.obj
 0001:0008f7a0       ??_GCPackager@Win32@OnlineGameLib@@UAEPAXI@Z 100907a0 f i common:Buffer.obj
 0001:0008f7a0       ??_ECPackager@Win32@OnlineGameLib@@UAEPAXI@Z 100907a0 f i common:Buffer.obj
 0001:0008f7d0       ??1?$map@EPAVCBuffer@Win32@OnlineGameLib@@U?$less@E@std@@V?$allocator@PAVCBuffer@Win32@OnlineGameLib@@@5@@std@@QAE@XZ 100907d0 f i common:Buffer.obj
 0001:0008f7f0       ?SetUserData@COpaqueUserData@OnlineGameLib@@QAEXK@Z 100907f0 f i common:Buffer.obj
 0001:0008f810       ?SetUserPtr@COpaqueUserData@OnlineGameLib@@QAEXPAX@Z 10090810 f i common:Buffer.obj
 0001:0008f830       ?GetUserData@COpaqueUserData@OnlineGameLib@@QBEKXZ 10090830 f i common:Buffer.obj
 0001:0008f850       ?GetUserPtr@COpaqueUserData@OnlineGameLib@@QBEPAXXZ 10090850 f i common:Buffer.obj
 0001:0008f870       ?HaveNextPack@CBuffer@Win32@OnlineGameLib@@QAE_NXZ 10090870 f i common:Buffer.obj
 0001:0008f890       ?Peek@CPackager@Win32@OnlineGameLib@@SAEPBXI@Z 10090890 f i common:Buffer.obj
 0001:0008f8b0       ?_Header@CPackager@Win32@OnlineGameLib@@AAE_NE@Z 100908b0 f i common:Buffer.obj
 0001:0008f8e0       ?_Middle@CPackager@Win32@OnlineGameLib@@AAE_NE@Z 100908e0 f i common:Buffer.obj
 0001:0008f910       ?_Tail@CPackager@Win32@OnlineGameLib@@AAE_NE@Z 10090910 f i common:Buffer.obj
 0001:0008f940       ?_Error@CPackager@Win32@OnlineGameLib@@AAE_NE@Z 10090940 f i common:Buffer.obj
 0001:0008f970       ??0?$basic_string@DU?$char_traits@D@std@@V?$allocator@D@2@@std@@QAE@PBDABV?$allocator@D@1@@Z 10090970 f i common:Buffer.obj
 0001:0008f9a0       ??0?$map@EPAVCBuffer@Win32@OnlineGameLib@@U?$less@E@std@@V?$allocator@PAVCBuffer@Win32@OnlineGameLib@@@5@@std@@QAE@ABU?$less@E@1@ABV?$allocator@PAVCBuffer@Win32@OnlineGameLib@@@1@@Z 100909a0 f i common:Buffer.obj
 0001:0008f9d0       ?begin@?$map@EPAVCBuffer@Win32@OnlineGameLib@@U?$less@E@std@@V?$allocator@PAVCBuffer@Win32@OnlineGameLib@@@5@@std@@QAE?AViterator@?$_Tree@EU?$pair@$$CBEPAVCBuffer@Win32@OnlineGameLib@@@std@@U_Kfn@?$map@EPAVCBuffer@Win32@OnlineGameLib@@U?$less@E@std@@V?$allocator@PAVCBuffer@Win32@OnlineGameLib@@@5@@2@U?$less@E@2@V?$allocator@PAVCBuffer@Win32@OnlineGameLib@@@2@@2@XZ 100909d0 f i common:Buffer.obj
 0001:0008fa00       ?end@?$map@EPAVCBuffer@Win32@OnlineGameLib@@U?$less@E@std@@V?$allocator@PAVCBuffer@Win32@OnlineGameLib@@@5@@std@@QAE?AViterator@?$_Tree@EU?$pair@$$CBEPAVCBuffer@Win32@OnlineGameLib@@@std@@U_Kfn@?$map@EPAVCBuffer@Win32@OnlineGameLib@@U?$less@E@std@@V?$allocator@PAVCBuffer@Win32@OnlineGameLib@@@5@@2@U?$less@E@2@V?$allocator@PAVCBuffer@Win32@OnlineGameLib@@@2@@2@XZ 10090a00 f i common:Buffer.obj
 0001:0008fa30       ??A?$map@EPAVCBuffer@Win32@OnlineGameLib@@U?$less@E@std@@V?$allocator@PAVCBuffer@Win32@OnlineGameLib@@@5@@std@@QAEAAPAVCBuffer@Win32@OnlineGameLib@@ABE@Z 10090a30 f i common:Buffer.obj
 0001:0008fa80       ?erase@?$map@EPAVCBuffer@Win32@OnlineGameLib@@U?$less@E@std@@V?$allocator@PAVCBuffer@Win32@OnlineGameLib@@@5@@std@@QAE?AViterator@?$_Tree@EU?$pair@$$CBEPAVCBuffer@Win32@OnlineGameLib@@@std@@U_Kfn@?$map@EPAVCBuffer@Win32@OnlineGameLib@@U?$less@E@std@@V?$allocator@PAVCBuffer@Win32@OnlineGameLib@@@5@@2@U?$less@E@2@V?$allocator@PAVCBuffer@Win32@OnlineGameLib@@@2@@2@V342@0@Z 10090a80 f i common:Buffer.obj
 0001:0008fab0       ?erase@?$map@EPAVCBuffer@Win32@OnlineGameLib@@U?$less@E@std@@V?$allocator@PAVCBuffer@Win32@OnlineGameLib@@@5@@std@@QAEIABE@Z 10090ab0 f i common:Buffer.obj
 0001:0008fad0       ?find@?$map@EPAVCBuffer@Win32@OnlineGameLib@@U?$less@E@std@@V?$allocator@PAVCBuffer@Win32@OnlineGameLib@@@5@@std@@QAE?AViterator@?$_Tree@EU?$pair@$$CBEPAVCBuffer@Win32@OnlineGameLib@@@std@@U_Kfn@?$map@EPAVCBuffer@Win32@OnlineGameLib@@U?$less@E@std@@V?$allocator@PAVCBuffer@Win32@OnlineGameLib@@@5@@2@U?$less@E@2@V?$allocator@PAVCBuffer@Win32@OnlineGameLib@@@2@@2@ABE@Z 10090ad0 f i common:Buffer.obj
 0001:0008fb00       ??1?$_Tree@EU?$pair@$$CBEPAVCBuffer@Win32@OnlineGameLib@@@std@@U_Kfn@?$map@EPAVCBuffer@Win32@OnlineGameLib@@U?$less@E@std@@V?$allocator@PAVCBuffer@Win32@OnlineGameLib@@@5@@2@U?$less@E@2@V?$allocator@PAVCBuffer@Win32@OnlineGameLib@@@2@@std@@QAE@XZ 10090b00 f i common:Buffer.obj
 0001:0008fbd0       ??0iterator@?$_Tree@EU?$pair@$$CBEPAVCBuffer@Win32@OnlineGameLib@@@std@@U_Kfn@?$map@EPAVCBuffer@Win32@OnlineGameLib@@U?$less@E@std@@V?$allocator@PAVCBuffer@Win32@OnlineGameLib@@@5@@2@U?$less@E@2@V?$allocator@PAVCBuffer@Win32@OnlineGameLib@@@2@@std@@QAE@XZ 10090bd0 f i common:Buffer.obj
 0001:0008fbf0       ??Diterator@?$_Tree@EU?$pair@$$CBEPAVCBuffer@Win32@OnlineGameLib@@@std@@U_Kfn@?$map@EPAVCBuffer@Win32@OnlineGameLib@@U?$less@E@std@@V?$allocator@PAVCBuffer@Win32@OnlineGameLib@@@5@@2@U?$less@E@2@V?$allocator@PAVCBuffer@Win32@OnlineGameLib@@@2@@std@@QBEAAU?$pair@$$CBEPAVCBuffer@Win32@OnlineGameLib@@@2@XZ 10090bf0 f i common:Buffer.obj
 0001:0008fc10       ??Eiterator@?$_Tree@EU?$pair@$$CBEPAVCBuffer@Win32@OnlineGameLib@@@std@@U_Kfn@?$map@EPAVCBuffer@Win32@OnlineGameLib@@U?$less@E@std@@V?$allocator@PAVCBuffer@Win32@OnlineGameLib@@@5@@2@U?$less@E@2@V?$allocator@PAVCBuffer@Win32@OnlineGameLib@@@2@@std@@QAE?AV012@H@Z 10090c10 f i common:Buffer.obj
 0001:0008fc40       ??8iterator@?$_Tree@EU?$pair@$$CBEPAVCBuffer@Win32@OnlineGameLib@@@std@@U_Kfn@?$map@EPAVCBuffer@Win32@OnlineGameLib@@U?$less@E@std@@V?$allocator@PAVCBuffer@Win32@OnlineGameLib@@@5@@2@U?$less@E@2@V?$allocator@PAVCBuffer@Win32@OnlineGameLib@@@2@@std@@QBE_NABV012@@Z 10090c40 f i common:Buffer.obj
 0001:0008fc60       ??9iterator@?$_Tree@EU?$pair@$$CBEPAVCBuffer@Win32@OnlineGameLib@@@std@@U_Kfn@?$map@EPAVCBuffer@Win32@OnlineGameLib@@U?$less@E@std@@V?$allocator@PAVCBuffer@Win32@OnlineGameLib@@@5@@2@U?$less@E@2@V?$allocator@PAVCBuffer@Win32@OnlineGameLib@@@2@@std@@QBE_NABV012@@Z 10090c60 f i common:Buffer.obj
 0001:0008fc90       ?insert@?$map@EPAVCBuffer@Win32@OnlineGameLib@@U?$less@E@std@@V?$allocator@PAVCBuffer@Win32@OnlineGameLib@@@5@@std@@QAE?AU?$pair@Viterator@?$_Tree@EU?$pair@$$CBEPAVCBuffer@Win32@OnlineGameLib@@@std@@U_Kfn@?$map@EPAVCBuffer@Win32@OnlineGameLib@@U?$less@E@std@@V?$allocator@PAVCBuffer@Win32@OnlineGameLib@@@5@@2@U?$less@E@2@V?$allocator@PAVCBuffer@Win32@OnlineGameLib@@@2@@std@@_N@2@ABU?$pair@$$CBEPAVCBuffer@Win32@OnlineGameLib@@@2@@Z 10090c90 f i common:Buffer.obj
 0001:0008fce0       ?_Value@?$_Tree@EU?$pair@$$CBEPAVCBuffer@Win32@OnlineGameLib@@@std@@U_Kfn@?$map@EPAVCBuffer@Win32@OnlineGameLib@@U?$less@E@std@@V?$allocator@PAVCBuffer@Win32@OnlineGameLib@@@5@@2@U?$less@E@2@V?$allocator@PAVCBuffer@Win32@OnlineGameLib@@@2@@std@@KAAAU?$pair@$$CBEPAVCBuffer@Win32@OnlineGameLib@@@2@PAU_Node@12@@Z 10090ce0 f i common:Buffer.obj
 0001:0008fcf0       ??0?$_Tree@EU?$pair@$$CBEPAVCBuffer@Win32@OnlineGameLib@@@std@@U_Kfn@?$map@EPAVCBuffer@Win32@OnlineGameLib@@U?$less@E@std@@V?$allocator@PAVCBuffer@Win32@OnlineGameLib@@@5@@2@U?$less@E@2@V?$allocator@PAVCBuffer@Win32@OnlineGameLib@@@2@@std@@QAE@ABU?$less@E@1@_NABV?$allocator@PAVCBuffer@Win32@OnlineGameLib@@@1@@Z 10090cf0 f i common:Buffer.obj
 0001:0008fd30       ?begin@?$_Tree@EU?$pair@$$CBEPAVCBuffer@Win32@OnlineGameLib@@@std@@U_Kfn@?$map@EPAVCBuffer@Win32@OnlineGameLib@@U?$less@E@std@@V?$allocator@PAVCBuffer@Win32@OnlineGameLib@@@5@@2@U?$less@E@2@V?$allocator@PAVCBuffer@Win32@OnlineGameLib@@@2@@std@@QAE?AViterator@12@XZ 10090d30 f i common:Buffer.obj
 0001:0008fd60       ?end@?$_Tree@EU?$pair@$$CBEPAVCBuffer@Win32@OnlineGameLib@@@std@@U_Kfn@?$map@EPAVCBuffer@Win32@OnlineGameLib@@U?$less@E@std@@V?$allocator@PAVCBuffer@Win32@OnlineGameLib@@@5@@2@U?$less@E@2@V?$allocator@PAVCBuffer@Win32@OnlineGameLib@@@2@@std@@QAE?AViterator@12@XZ 10090d60 f i common:Buffer.obj
 0001:0008fd90       ?erase@?$_Tree@EU?$pair@$$CBEPAVCBuffer@Win32@OnlineGameLib@@@std@@U_Kfn@?$map@EPAVCBuffer@Win32@OnlineGameLib@@U?$less@E@std@@V?$allocator@PAVCBuffer@Win32@OnlineGameLib@@@5@@2@U?$less@E@2@V?$allocator@PAVCBuffer@Win32@OnlineGameLib@@@2@@std@@QAE?AViterator@12@V312@0@Z 10090d90 f i common:Buffer.obj
 0001:0008fed0       ?erase@?$_Tree@EU?$pair@$$CBEPAVCBuffer@Win32@OnlineGameLib@@@std@@U_Kfn@?$map@EPAVCBuffer@Win32@OnlineGameLib@@U?$less@E@std@@V?$allocator@PAVCBuffer@Win32@OnlineGameLib@@@5@@2@U?$less@E@2@V?$allocator@PAVCBuffer@Win32@OnlineGameLib@@@2@@std@@QAEIABE@Z 10090ed0 f i common:Buffer.obj
 0001:0008ff30       ?find@?$_Tree@EU?$pair@$$CBEPAVCBuffer@Win32@OnlineGameLib@@@std@@U_Kfn@?$map@EPAVCBuffer@Win32@OnlineGameLib@@U?$less@E@std@@V?$allocator@PAVCBuffer@Win32@OnlineGameLib@@@5@@2@U?$less@E@2@V?$allocator@PAVCBuffer@Win32@OnlineGameLib@@@2@@std@@QAE?AViterator@12@ABE@Z 10090f30 f i common:Buffer.obj
 0001:0008ffd0       ?_Freenode@?$_Tree@EU?$pair@$$CBEPAVCBuffer@Win32@OnlineGameLib@@@std@@U_Kfn@?$map@EPAVCBuffer@Win32@OnlineGameLib@@U?$less@E@std@@V?$allocator@PAVCBuffer@Win32@OnlineGameLib@@@5@@2@U?$less@E@2@V?$allocator@PAVCBuffer@Win32@OnlineGameLib@@@2@@std@@IAEXPAU_Node@12@@Z 10090fd0 f i common:Buffer.obj
 0001:0008fff0       ??0?$pair@$$CBEPAVCBuffer@Win32@OnlineGameLib@@@std@@QAE@ABEABQAVCBuffer@Win32@OnlineGameLib@@@Z 10090ff0 f i common:Buffer.obj
 0001:00090020       ??0const_iterator@?$_Tree@EU?$pair@$$CBEPAVCBuffer@Win32@OnlineGameLib@@@std@@U_Kfn@?$map@EPAVCBuffer@Win32@OnlineGameLib@@U?$less@E@std@@V?$allocator@PAVCBuffer@Win32@OnlineGameLib@@@5@@2@U?$less@E@2@V?$allocator@PAVCBuffer@Win32@OnlineGameLib@@@2@@std@@QAE@XZ 10091020 f i common:Buffer.obj
 0001:00090030       ??Eiterator@?$_Tree@EU?$pair@$$CBEPAVCBuffer@Win32@OnlineGameLib@@@std@@U_Kfn@?$map@EPAVCBuffer@Win32@OnlineGameLib@@U?$less@E@std@@V?$allocator@PAVCBuffer@Win32@OnlineGameLib@@@5@@2@U?$less@E@2@V?$allocator@PAVCBuffer@Win32@OnlineGameLib@@@2@@std@@QAEAAV012@XZ 10091030 f i common:Buffer.obj
 0001:00090050       ??R?$less@E@std@@QBE_NABE0@Z 10091050 f i common:Buffer.obj
 0001:00090080       ?_Key@?$_Tree@EU?$pair@$$CBEPAVCBuffer@Win32@OnlineGameLib@@@std@@U_Kfn@?$map@EPAVCBuffer@Win32@OnlineGameLib@@U?$less@E@std@@V?$allocator@PAVCBuffer@Win32@OnlineGameLib@@@5@@2@U?$less@E@2@V?$allocator@PAVCBuffer@Win32@OnlineGameLib@@@2@@std@@KAABEPAU_Node@12@@Z 10091080 f i common:Buffer.obj
 0001:000900a0       ?size@?$_Tree@EU?$pair@$$CBEPAVCBuffer@Win32@OnlineGameLib@@@std@@U_Kfn@?$map@EPAVCBuffer@Win32@OnlineGameLib@@U?$less@E@std@@V?$allocator@PAVCBuffer@Win32@OnlineGameLib@@@5@@2@U?$less@E@2@V?$allocator@PAVCBuffer@Win32@OnlineGameLib@@@2@@std@@QBEIXZ 100910a0 f i common:Buffer.obj
 0001:000900c0       ?insert@?$_Tree@EU?$pair@$$CBEPAVCBuffer@Win32@OnlineGameLib@@@std@@U_Kfn@?$map@EPAVCBuffer@Win32@OnlineGameLib@@U?$less@E@std@@V?$allocator@PAVCBuffer@Win32@OnlineGameLib@@@5@@2@U?$less@E@2@V?$allocator@PAVCBuffer@Win32@OnlineGameLib@@@2@@std@@QAE?AU?$pair@Viterator@?$_Tree@EU?$pair@$$CBEPAVCBuffer@Win32@OnlineGameLib@@@std@@U_Kfn@?$map@EPAVCBuffer@Win32@OnlineGameLib@@U?$less@E@std@@V?$allocator@PAVCBuffer@Win32@OnlineGameLib@@@5@@2@U?$less@E@2@V?$allocator@PAVCBuffer@Win32@OnlineGameLib@@@2@@std@@_N@2@ABU?$pair@$$CBEPAVCBuffer@Win32@OnlineGameLib@@@2@@Z 100910c0 f i common:Buffer.obj
 0001:00090300       ?erase@?$_Tree@EU?$pair@$$CBEPAVCBuffer@Win32@OnlineGameLib@@@std@@U_Kfn@?$map@EPAVCBuffer@Win32@OnlineGameLib@@U?$less@E@std@@V?$allocator@PAVCBuffer@Win32@OnlineGameLib@@@5@@2@U?$less@E@2@V?$allocator@PAVCBuffer@Win32@OnlineGameLib@@@2@@std@@QAE?AViterator@12@V312@@Z 10091300 f i common:Buffer.obj
 0001:00090b50       ?lower_bound@?$_Tree@EU?$pair@$$CBEPAVCBuffer@Win32@OnlineGameLib@@@std@@U_Kfn@?$map@EPAVCBuffer@Win32@OnlineGameLib@@U?$less@E@std@@V?$allocator@PAVCBuffer@Win32@OnlineGameLib@@@5@@2@U?$less@E@2@V?$allocator@PAVCBuffer@Win32@OnlineGameLib@@@2@@std@@QAE?AViterator@12@ABE@Z 10091b50 f i common:Buffer.obj
 0001:00090b80       ?equal_range@?$_Tree@EU?$pair@$$CBEPAVCBuffer@Win32@OnlineGameLib@@@std@@U_Kfn@?$map@EPAVCBuffer@Win32@OnlineGameLib@@U?$less@E@std@@V?$allocator@PAVCBuffer@Win32@OnlineGameLib@@@5@@2@U?$less@E@2@V?$allocator@PAVCBuffer@Win32@OnlineGameLib@@@2@@std@@QAE?AU?$pair@Viterator@?$_Tree@EU?$pair@$$CBEPAVCBuffer@Win32@OnlineGameLib@@@std@@U_Kfn@?$map@EPAVCBuffer@Win32@OnlineGameLib@@U?$less@E@std@@V?$allocator@PAVCBuffer@Win32@OnlineGameLib@@@5@@2@U?$less@E@2@V?$allocator@PAVCBuffer@Win32@OnlineGameLib@@@2@@std@@V123@@2@ABE@Z 10091b80 f i common:Buffer.obj
 0001:00090bd0       ?_Erase@?$_Tree@EU?$pair@$$CBEPAVCBuffer@Win32@OnlineGameLib@@@std@@U_Kfn@?$map@EPAVCBuffer@Win32@OnlineGameLib@@U?$less@E@std@@V?$allocator@PAVCBuffer@Win32@OnlineGameLib@@@5@@2@U?$less@E@2@V?$allocator@PAVCBuffer@Win32@OnlineGameLib@@@2@@std@@IAEXPAU_Node@12@@Z 10091bd0 f i common:Buffer.obj
 0001:00090c80       ?_Init@?$_Tree@EU?$pair@$$CBEPAVCBuffer@Win32@OnlineGameLib@@@std@@U_Kfn@?$map@EPAVCBuffer@Win32@OnlineGameLib@@U?$less@E@std@@V?$allocator@PAVCBuffer@Win32@OnlineGameLib@@@5@@2@U?$less@E@2@V?$allocator@PAVCBuffer@Win32@OnlineGameLib@@@2@@std@@IAEXXZ 10091c80 f i common:Buffer.obj
 0001:00090d60       ?_Lmost@?$_Tree@EU?$pair@$$CBEPAVCBuffer@Win32@OnlineGameLib@@@std@@U_Kfn@?$map@EPAVCBuffer@Win32@OnlineGameLib@@U?$less@E@std@@V?$allocator@PAVCBuffer@Win32@OnlineGameLib@@@5@@2@U?$less@E@2@V?$allocator@PAVCBuffer@Win32@OnlineGameLib@@@2@@std@@IAEAAPAU_Node@12@XZ 10091d60 f i common:Buffer.obj
 0001:00090d80       ?_Rmost@?$_Tree@EU?$pair@$$CBEPAVCBuffer@Win32@OnlineGameLib@@@std@@U_Kfn@?$map@EPAVCBuffer@Win32@OnlineGameLib@@U?$less@E@std@@V?$allocator@PAVCBuffer@Win32@OnlineGameLib@@@5@@2@U?$less@E@2@V?$allocator@PAVCBuffer@Win32@OnlineGameLib@@@2@@std@@IAEAAPAU_Node@12@XZ 10091d80 f i common:Buffer.obj
 0001:00090da0       ?_Root@?$_Tree@EU?$pair@$$CBEPAVCBuffer@Win32@OnlineGameLib@@@std@@U_Kfn@?$map@EPAVCBuffer@Win32@OnlineGameLib@@U?$less@E@std@@V?$allocator@PAVCBuffer@Win32@OnlineGameLib@@@5@@2@U?$less@E@2@V?$allocator@PAVCBuffer@Win32@OnlineGameLib@@@2@@std@@IAEAAPAU_Node@12@XZ 10091da0 f i common:Buffer.obj
 0001:00090dc0       ?_Inc@const_iterator@?$_Tree@EU?$pair@$$CBEPAVCBuffer@Win32@OnlineGameLib@@@std@@U_Kfn@?$map@EPAVCBuffer@Win32@OnlineGameLib@@U?$less@E@std@@V?$allocator@PAVCBuffer@Win32@OnlineGameLib@@@5@@2@U?$less@E@2@V?$allocator@PAVCBuffer@Win32@OnlineGameLib@@@2@@std@@QAEXXZ 10091dc0 f i common:Buffer.obj
 0001:00090ea0       ?_Mynode@const_iterator@?$_Tree@EU?$pair@$$CBEPAVCBuffer@Win32@OnlineGameLib@@@std@@U_Kfn@?$map@EPAVCBuffer@Win32@OnlineGameLib@@U?$less@E@std@@V?$allocator@PAVCBuffer@Win32@OnlineGameLib@@@5@@2@U?$less@E@2@V?$allocator@PAVCBuffer@Win32@OnlineGameLib@@@2@@std@@QBEPAU_Node@23@XZ 10091ea0 f i common:Buffer.obj
 0001:00090eb0       ??0iterator@?$_Tree@EU?$pair@$$CBEPAVCBuffer@Win32@OnlineGameLib@@@std@@U_Kfn@?$map@EPAVCBuffer@Win32@OnlineGameLib@@U?$less@E@std@@V?$allocator@PAVCBuffer@Win32@OnlineGameLib@@@5@@2@U?$less@E@2@V?$allocator@PAVCBuffer@Win32@OnlineGameLib@@@2@@std@@QAE@PAU_Node@12@@Z 10091eb0 f i common:Buffer.obj
 0001:00090ed0       ??0?$pair@Viterator@?$_Tree@EU?$pair@$$CBEPAVCBuffer@Win32@OnlineGameLib@@@std@@U_Kfn@?$map@EPAVCBuffer@Win32@OnlineGameLib@@U?$less@E@std@@V?$allocator@PAVCBuffer@Win32@OnlineGameLib@@@5@@2@U?$less@E@2@V?$allocator@PAVCBuffer@Win32@OnlineGameLib@@@2@@std@@_N@std@@QAE@ABViterator@?$_Tree@EU?$pair@$$CBEPAVCBuffer@Win32@OnlineGameLib@@@std@@U_Kfn@?$map@EPAVCBuffer@Win32@OnlineGameLib@@U?$less@E@std@@V?$allocator@PAVCBuffer@Win32@OnlineGameLib@@@5@@2@U?$less@E@2@V?$allocator@PAVCBuffer@Win32@OnlineGameLib@@@2@@1@AB_N@Z 10091ed0 f i common:Buffer.obj
 0001:00090f00       ??R_Kfn@?$map@EPAVCBuffer@Win32@OnlineGameLib@@U?$less@E@std@@V?$allocator@PAVCBuffer@Win32@OnlineGameLib@@@5@@std@@QBEABEABU?$pair@$$CBEPAVCBuffer@Win32@OnlineGameLib@@@2@@Z 10091f00 f i common:Buffer.obj
 0001:00090f10       ?_Color@?$_Tree@EU?$pair@$$CBEPAVCBuffer@Win32@OnlineGameLib@@@std@@U_Kfn@?$map@EPAVCBuffer@Win32@OnlineGameLib@@U?$less@E@std@@V?$allocator@PAVCBuffer@Win32@OnlineGameLib@@@5@@2@U?$less@E@2@V?$allocator@PAVCBuffer@Win32@OnlineGameLib@@@2@@std@@KAAAW4_Redbl@12@PAU_Node@12@@Z 10091f10 f i common:Buffer.obj
 0001:00090f20       ?_Left@?$_Tree@EU?$pair@$$CBEPAVCBuffer@Win32@OnlineGameLib@@@std@@U_Kfn@?$map@EPAVCBuffer@Win32@OnlineGameLib@@U?$less@E@std@@V?$allocator@PAVCBuffer@Win32@OnlineGameLib@@@5@@2@U?$less@E@2@V?$allocator@PAVCBuffer@Win32@OnlineGameLib@@@2@@std@@KAAAPAU_Node@12@PAU312@@Z 10091f20 f i common:Buffer.obj
 0001:00090f30       ?_Parent@?$_Tree@EU?$pair@$$CBEPAVCBuffer@Win32@OnlineGameLib@@@std@@U_Kfn@?$map@EPAVCBuffer@Win32@OnlineGameLib@@U?$less@E@std@@V?$allocator@PAVCBuffer@Win32@OnlineGameLib@@@5@@2@U?$less@E@2@V?$allocator@PAVCBuffer@Win32@OnlineGameLib@@@2@@std@@KAAAPAU_Node@12@PAU312@@Z 10091f30 f i common:Buffer.obj
 0001:00090f40       ?_Right@?$_Tree@EU?$pair@$$CBEPAVCBuffer@Win32@OnlineGameLib@@@std@@U_Kfn@?$map@EPAVCBuffer@Win32@OnlineGameLib@@U?$less@E@std@@V?$allocator@PAVCBuffer@Win32@OnlineGameLib@@@5@@2@U?$less@E@2@V?$allocator@PAVCBuffer@Win32@OnlineGameLib@@@2@@std@@KAAAPAU_Node@12@PAU312@@Z 10091f40 f i common:Buffer.obj
 0001:00090f50       ?upper_bound@?$_Tree@EU?$pair@$$CBEPAVCBuffer@Win32@OnlineGameLib@@@std@@U_Kfn@?$map@EPAVCBuffer@Win32@OnlineGameLib@@U?$less@E@std@@V?$allocator@PAVCBuffer@Win32@OnlineGameLib@@@5@@2@U?$less@E@2@V?$allocator@PAVCBuffer@Win32@OnlineGameLib@@@2@@std@@QAE?AViterator@12@ABE@Z 10091f50 f i common:Buffer.obj
 0001:00090f80       ?_Insert@?$_Tree@EU?$pair@$$CBEPAVCBuffer@Win32@OnlineGameLib@@@std@@U_Kfn@?$map@EPAVCBuffer@Win32@OnlineGameLib@@U?$less@E@std@@V?$allocator@PAVCBuffer@Win32@OnlineGameLib@@@5@@2@U?$less@E@2@V?$allocator@PAVCBuffer@Win32@OnlineGameLib@@@2@@std@@IAE?AViterator@12@PAU_Node@12@0ABU?$pair@$$CBEPAVCBuffer@Win32@OnlineGameLib@@@2@@Z 10091f80 f i common:Buffer.obj
 0001:00091450       ?_Lbound@?$_Tree@EU?$pair@$$CBEPAVCBuffer@Win32@OnlineGameLib@@@std@@U_Kfn@?$map@EPAVCBuffer@Win32@OnlineGameLib@@U?$less@E@std@@V?$allocator@PAVCBuffer@Win32@OnlineGameLib@@@5@@2@U?$less@E@2@V?$allocator@PAVCBuffer@Win32@OnlineGameLib@@@2@@std@@IBEPAU_Node@12@ABE@Z 10092450 f i common:Buffer.obj
 0001:00091520       ?_Lrotate@?$_Tree@EU?$pair@$$CBEPAVCBuffer@Win32@OnlineGameLib@@@std@@U_Kfn@?$map@EPAVCBuffer@Win32@OnlineGameLib@@U?$less@E@std@@V?$allocator@PAVCBuffer@Win32@OnlineGameLib@@@5@@2@U?$less@E@2@V?$allocator@PAVCBuffer@Win32@OnlineGameLib@@@2@@std@@IAEXPAU_Node@12@@Z 10092520 f i common:Buffer.obj
 0001:00091690       ?_Max@?$_Tree@EU?$pair@$$CBEPAVCBuffer@Win32@OnlineGameLib@@@std@@U_Kfn@?$map@EPAVCBuffer@Win32@OnlineGameLib@@U?$less@E@std@@V?$allocator@PAVCBuffer@Win32@OnlineGameLib@@@5@@2@U?$less@E@2@V?$allocator@PAVCBuffer@Win32@OnlineGameLib@@@2@@std@@KAPAU_Node@12@PAU312@@Z 10092690 f i common:Buffer.obj
 0001:00091710       ?_Min@?$_Tree@EU?$pair@$$CBEPAVCBuffer@Win32@OnlineGameLib@@@std@@U_Kfn@?$map@EPAVCBuffer@Win32@OnlineGameLib@@U?$less@E@std@@V?$allocator@PAVCBuffer@Win32@OnlineGameLib@@@5@@2@U?$less@E@2@V?$allocator@PAVCBuffer@Win32@OnlineGameLib@@@2@@std@@KAPAU_Node@12@PAU312@@Z 10092710 f i common:Buffer.obj
 0001:00091790       ?_Rrotate@?$_Tree@EU?$pair@$$CBEPAVCBuffer@Win32@OnlineGameLib@@@std@@U_Kfn@?$map@EPAVCBuffer@Win32@OnlineGameLib@@U?$less@E@std@@V?$allocator@PAVCBuffer@Win32@OnlineGameLib@@@5@@2@U?$less@E@2@V?$allocator@PAVCBuffer@Win32@OnlineGameLib@@@2@@std@@IAEXPAU_Node@12@@Z 10092790 f i common:Buffer.obj
 0001:00091900       ?_Buynode@?$_Tree@EU?$pair@$$CBEPAVCBuffer@Win32@OnlineGameLib@@@std@@U_Kfn@?$map@EPAVCBuffer@Win32@OnlineGameLib@@U?$less@E@std@@V?$allocator@PAVCBuffer@Win32@OnlineGameLib@@@5@@2@U?$less@E@2@V?$allocator@PAVCBuffer@Win32@OnlineGameLib@@@2@@std@@IAEPAU_Node@12@PAU312@W4_Redbl@12@@Z 10092900 f i common:Buffer.obj
 0001:00091950       ?_Destval@?$_Tree@EU?$pair@$$CBEPAVCBuffer@Win32@OnlineGameLib@@@std@@U_Kfn@?$map@EPAVCBuffer@Win32@OnlineGameLib@@U?$less@E@std@@V?$allocator@PAVCBuffer@Win32@OnlineGameLib@@@5@@2@U?$less@E@2@V?$allocator@PAVCBuffer@Win32@OnlineGameLib@@@2@@std@@IAEXPAU?$pair@$$CBEPAVCBuffer@Win32@OnlineGameLib@@@2@@Z 10092950 f i common:Buffer.obj
 0001:00091970       ??0const_iterator@?$_Tree@EU?$pair@$$CBEPAVCBuffer@Win32@OnlineGameLib@@@std@@U_Kfn@?$map@EPAVCBuffer@Win32@OnlineGameLib@@U?$less@E@std@@V?$allocator@PAVCBuffer@Win32@OnlineGameLib@@@5@@2@U?$less@E@2@V?$allocator@PAVCBuffer@Win32@OnlineGameLib@@@2@@std@@QAE@PAU_Node@12@@Z 10092970 f i common:Buffer.obj
 0001:00091990       ??Fiterator@?$_Tree@EU?$pair@$$CBEPAVCBuffer@Win32@OnlineGameLib@@@std@@U_Kfn@?$map@EPAVCBuffer@Win32@OnlineGameLib@@U?$less@E@std@@V?$allocator@PAVCBuffer@Win32@OnlineGameLib@@@5@@2@U?$less@E@2@V?$allocator@PAVCBuffer@Win32@OnlineGameLib@@@2@@std@@QAEAAV012@XZ 10092990 f i common:Buffer.obj
 0001:000919b0       ??0?$pair@Viterator@?$_Tree@EU?$pair@$$CBEPAVCBuffer@Win32@OnlineGameLib@@@std@@U_Kfn@?$map@EPAVCBuffer@Win32@OnlineGameLib@@U?$less@E@std@@V?$allocator@PAVCBuffer@Win32@OnlineGameLib@@@5@@2@U?$less@E@2@V?$allocator@PAVCBuffer@Win32@OnlineGameLib@@@2@@std@@V123@@std@@QAE@ABViterator@?$_Tree@EU?$pair@$$CBEPAVCBuffer@Win32@OnlineGameLib@@@std@@U_Kfn@?$map@EPAVCBuffer@Win32@OnlineGameLib@@U?$less@E@std@@V?$allocator@PAVCBuffer@Win32@OnlineGameLib@@@5@@2@U?$less@E@2@V?$allocator@PAVCBuffer@Win32@OnlineGameLib@@@2@@1@0@Z 100929b0 f i common:Buffer.obj
 0001:000919e0       ?_Root@?$_Tree@EU?$pair@$$CBEPAVCBuffer@Win32@OnlineGameLib@@@std@@U_Kfn@?$map@EPAVCBuffer@Win32@OnlineGameLib@@U?$less@E@std@@V?$allocator@PAVCBuffer@Win32@OnlineGameLib@@@5@@2@U?$less@E@2@V?$allocator@PAVCBuffer@Win32@OnlineGameLib@@@2@@std@@IBEAAPAU_Node@12@XZ 100929e0 f i common:Buffer.obj
 0001:00091a00       ?_Ubound@?$_Tree@EU?$pair@$$CBEPAVCBuffer@Win32@OnlineGameLib@@@std@@U_Kfn@?$map@EPAVCBuffer@Win32@OnlineGameLib@@U?$less@E@std@@V?$allocator@PAVCBuffer@Win32@OnlineGameLib@@@5@@2@U?$less@E@2@V?$allocator@PAVCBuffer@Win32@OnlineGameLib@@@2@@std@@IBEPAU_Node@12@ABE@Z 10092a00 f i common:Buffer.obj
 0001:00091ad0       ?_Consval@?$_Tree@EU?$pair@$$CBEPAVCBuffer@Win32@OnlineGameLib@@@std@@U_Kfn@?$map@EPAVCBuffer@Win32@OnlineGameLib@@U?$less@E@std@@V?$allocator@PAVCBuffer@Win32@OnlineGameLib@@@5@@2@U?$less@E@2@V?$allocator@PAVCBuffer@Win32@OnlineGameLib@@@2@@std@@IAEXPAU?$pair@$$CBEPAVCBuffer@Win32@OnlineGameLib@@@2@ABU32@@Z 10092ad0 f i common:Buffer.obj
 0001:00091af0       ?_Dec@const_iterator@?$_Tree@EU?$pair@$$CBEPAVCBuffer@Win32@OnlineGameLib@@@std@@U_Kfn@?$map@EPAVCBuffer@Win32@OnlineGameLib@@U?$less@E@std@@V?$allocator@PAVCBuffer@Win32@OnlineGameLib@@@5@@2@U?$less@E@2@V?$allocator@PAVCBuffer@Win32@OnlineGameLib@@@2@@std@@QAEXXZ 10092af0 f i common:Buffer.obj
 0001:00091c00       ?PopNode@?$TNodeList@VCBuffer@Win32@OnlineGameLib@@@OnlineGameLib@@QAEPAVCBuffer@Win32@2@XZ 10092c00 f i common:Buffer.obj
 0001:00091c20       ?ToBool@Win32@OnlineGameLib@@YA_NABH@Z 10092c20 f i common:Buffer.obj
 0001:00091c40       ?_Distance@std@@YAXViterator@?$_Tree@EU?$pair@$$CBEPAVCBuffer@Win32@OnlineGameLib@@@std@@U_Kfn@?$map@EPAVCBuffer@Win32@OnlineGameLib@@U?$less@E@std@@V?$allocator@PAVCBuffer@Win32@OnlineGameLib@@@5@@2@U?$less@E@2@V?$allocator@PAVCBuffer@Win32@OnlineGameLib@@@2@@1@0AAI@Z 10092c40 f i common:Buffer.obj
 0001:00091c70       ?swap@std@@YAXAAW4_Redbl@?$_Tree@EU?$pair@$$CBEPAVCBuffer@Win32@OnlineGameLib@@@std@@U_Kfn@?$map@EPAVCBuffer@Win32@OnlineGameLib@@U?$less@E@std@@V?$allocator@PAVCBuffer@Win32@OnlineGameLib@@@5@@2@U?$less@E@2@V?$allocator@PAVCBuffer@Win32@OnlineGameLib@@@2@@1@0@Z 10092c70 f i common:Buffer.obj
 0001:00091ca0       ?_Destroy@std@@YAXPAU?$pair@$$CBEPAVCBuffer@Win32@OnlineGameLib@@@1@@Z 10092ca0 f i common:Buffer.obj
 0001:00091cb0       ?_Construct@std@@YAXPAU?$pair@$$CBEPAVCBuffer@Win32@OnlineGameLib@@@1@ABU21@@Z 10092cb0 f i common:Buffer.obj
 0001:00091cf0       ?_Iter_cat@std@@YA?AUbidirectional_iterator_tag@1@ABU?$iterator@Ubidirectional_iterator_tag@std@@U?$pair@$$CBEPAVCBuffer@Win32@OnlineGameLib@@@2@H@1@@Z 10092cf0 f i common:Buffer.obj
 0001:00091d10       ?_Distance@std@@YAXViterator@?$_Tree@EU?$pair@$$CBEPAVCBuffer@Win32@OnlineGameLib@@@std@@U_Kfn@?$map@EPAVCBuffer@Win32@OnlineGameLib@@U?$less@E@std@@V?$allocator@PAVCBuffer@Win32@OnlineGameLib@@@5@@2@U?$less@E@2@V?$allocator@PAVCBuffer@Win32@OnlineGameLib@@@2@@1@0AAIUbidirectional_iterator_tag@1@@Z 10092d10 f i common:Buffer.obj
 0001:00091d50       ??0CNodeList@OnlineGameLib@@QAE@XZ 10092d50 f   common:NodeList.obj
 0001:00091d71       ?PushNode@CNodeList@OnlineGameLib@@QAEXPAVNode@12@@Z 10092d71 f   common:NodeList.obj
 0001:00091daf       ?PopNode@CNodeList@OnlineGameLib@@QAEPAVNode@12@XZ 10092daf f   common:NodeList.obj
 0001:00091dd9       ?RemoveNode@CNodeList@OnlineGameLib@@AAEXPAVNode@12@@Z 10092dd9 f   common:NodeList.obj
 0001:00091e14       ??0Node@CNodeList@OnlineGameLib@@IAE@XZ 10092e14 f   common:NodeList.obj
 0001:00091e3f       ??1Node@CNodeList@OnlineGameLib@@IAE@XZ 10092e3f f   common:NodeList.obj
 0001:00091ed2       ?AddToList@Node@CNodeList@OnlineGameLib@@QAEXPAV23@@Z 10092ed2 f   common:NodeList.obj
 0001:00091ee8       ?RemoveFromList@Node@CNodeList@OnlineGameLib@@QAEXXZ 10092ee8 f   common:NodeList.obj
 0001:00091f0b       ?Unlink@Node@CNodeList@OnlineGameLib@@AAEXXZ 10092f0b f   common:NodeList.obj
 0001:00091f60       ?Next@Node@CNodeList@OnlineGameLib@@QAEXPAV123@@Z 10092f60 f i common:NodeList.obj
 0001:00091f90       ?Next@Node@CNodeList@OnlineGameLib@@QBEPAV123@XZ 10092f90 f i common:NodeList.obj
 0001:00091fa0       ??0CException@Win32@OnlineGameLib@@QAE@ABV?$basic_string@DU?$char_traits@D@std@@V?$allocator@D@2@@std@@0@Z 10092fa0 f   common:Exception.obj
 0001:00092004       ?GetWhere@CException@Win32@OnlineGameLib@@UBE?AV?$basic_string@DU?$char_traits@D@std@@V?$allocator@D@2@@std@@XZ 10093004 f   common:Exception.obj
 0001:00092035       ?GetMessageA@CException@Win32@OnlineGameLib@@UBE?AV?$basic_string@DU?$char_traits@D@std@@V?$allocator@D@2@@std@@XZ 10093035 f   common:Exception.obj
 0001:00092066       ?MessageBoxA@CException@Win32@OnlineGameLib@@QBEXPAUHWND__@@@Z 10093066 f   common:Exception.obj
 0001:00092129       ??3@YAXPAX@Z               10093129 f   libcpmt:delop.obj
 0001:00092134       ?_Xlen@std@@YAXXZ          10093134 f   libcpmt:string.obj
 0001:0009218e       ??0logic_error@std@@QAE@ABV?$basic_string@DU?$char_traits@D@std@@V?$allocator@D@2@@1@@Z 1009318e f i libcpmt:string.obj
 0001:000921f2       ?what@logic_error@std@@UBEPBDXZ 100931f2 f i libcpmt:string.obj
 0001:000921ff       ?_Doraise@logic_error@std@@MBEXXZ 100931ff f i libcpmt:string.obj
 0001:0009221c       ??1logic_error@std@@UAE@XZ 1009321c f i libcpmt:string.obj
 0001:00092259       ??_Elogic_error@std@@UAEPAXI@Z 10093259 f i libcpmt:string.obj
 0001:00092259       ??_Glogic_error@std@@UAEPAXI@Z 10093259 f i libcpmt:string.obj
 0001:00092275       ??0logic_error@std@@QAE@ABV01@@Z 10093275 f i libcpmt:string.obj
 0001:000922d2       ??1length_error@std@@UAE@XZ 100932d2 f i libcpmt:string.obj
 0001:0009230f       ?_Doraise@length_error@std@@MBEXXZ 1009330f f i libcpmt:string.obj
 0001:0009232c       ??_Elength_error@std@@UAEPAXI@Z 1009332c f i libcpmt:string.obj
 0001:0009232c       ??_Glength_error@std@@UAEPAXI@Z 1009332c f i libcpmt:string.obj
 0001:00092348       ??0length_error@std@@QAE@ABV01@@Z 10093348 f i libcpmt:string.obj
 0001:00092360       ?_Xran@std@@YAXXZ          10093360 f   libcpmt:string.obj
 0001:000923ba       ??1out_of_range@std@@UAE@XZ 100933ba f i libcpmt:string.obj
 0001:000923f7       ?_Doraise@out_of_range@std@@MBEXXZ 100933f7 f i libcpmt:string.obj
 0001:00092414       ??_Gout_of_range@std@@UAEPAXI@Z 10093414 f i libcpmt:string.obj
 0001:00092414       ??_Eout_of_range@std@@UAEPAXI@Z 10093414 f i libcpmt:string.obj
 0001:00092430       ??0out_of_range@std@@QAE@ABV01@@Z 10093430 f i libcpmt:string.obj
 0001:0009248a       ?id@?$collate@D@std@@$E    1009348a f i libcpmt:string.obj
 0001:0009248b       ??0_Lockit@std@@QAE@XZ     1009348b f   libcpmt:xlock.obj
 0001:00092527       ??1_Lockit@std@@QAE@XZ     10093527 f   libcpmt:xlock.obj
 0001:0009253c       __purecall                 1009353c f   LIBCMT:purevirt.obj
 0001:00092550       _strlen                    10093550 f   LIBCMT:strlen.obj
 0001:000925cb       _sprintf                   100935cb f   LIBCMT:sprintf.obj
 0001:0009261d       _abs                       1009361d f   LIBCMT:abs.obj
 0001:00092628       __fpmath                   10093628 f   LIBCMT:fpinit.obj
 0001:0009263f       __fpclear                  1009363f f   LIBCMT:fpinit.obj
 0001:00092640       __cfltcvt_init             10093640 f   LIBCMT:fpinit.obj
 0001:00092678       ___setfflag                10093678 f   LIBCMT:fpinit.obj
 0001:00092688       __ftol                     10093688 f   LIBCMT:ftol.obj
 0001:000926af       ?_JumpToContinuation@@YGXPAXPAUEHRegistrationNode@@@Z 100936af f   LIBCMT:trnsctrl.obj
 0001:000926e3       ?_CallMemberFunction0@@YGXPAX0@Z 100936e3 f   LIBCMT:trnsctrl.obj
 0001:000926ea       ?_CallMemberFunction1@@YGXPAX00@Z 100936ea f   LIBCMT:trnsctrl.obj
 0001:000926f1       ?_CallMemberFunction2@@YGXPAX00H@Z 100936f1 f   LIBCMT:trnsctrl.obj
 0001:000926f8       ?_UnwindNestedFrames@@YGXPAUEHRegistrationNode@@PAUEHExceptionRecord@@@Z 100936f8 f   LIBCMT:trnsctrl.obj
 0001:00092747       ___CxxFrameHandler         10093747 f   LIBCMT:trnsctrl.obj
 0001:0009277d       ___CxxLongjmpUnwind@4      1009377d f   LIBCMT:trnsctrl.obj
 0001:00092797       ?_CallCatchBlock2@@YAPAXPAUEHRegistrationNode@@PBU_s_FuncInfo@@PAXHK@Z 10093797 f   LIBCMT:trnsctrl.obj
 0001:00092810       ?_CallSETranslator@@YAHPAUEHExceptionRecord@@PAUEHRegistrationNode@@PAX2PBU_s_FuncInfo@@H1@Z 10093810 f   LIBCMT:trnsctrl.obj
 0001:0009293b       ?_GetRangeOfTrysToCheck@@YAPBU_s_TryBlockMapEntry@@PBU_s_FuncInfo@@HHPAI1@Z 1009393b f   LIBCMT:trnsctrl.obj
 0001:000929b8       __global_unwind2           100939b8 f   LIBCMT:exsup.obj
 0001:000929fa       __local_unwind2            100939fa f   LIBCMT:exsup.obj
 0001:00092a52       __NLG_Return2              10093a52 f   LIBCMT:exsup.obj
 0001:00092a62       __abnormal_termination     10093a62 f   LIBCMT:exsup.obj
 0001:00092a85       __NLG_Notify1              10093a85 f   LIBCMT:exsup.obj
 0001:00092a8e       __NLG_Notify               10093a8e f   LIBCMT:exsup.obj
 0001:00092aa1       __NLG_Dispatch             10093aa1 f   LIBCMT:exsup.obj
 0001:00092aa6       _srand                     10093aa6 f   LIBCMT:rand.obj
 0001:00092ab3       _rand                      10093ab3 f   LIBCMT:rand.obj
 0001:00092ad5       _time                      10093ad5 f   LIBCMT:time.obj
 0001:00092bb1       ??_L@YGXPAXIHP6EX0@Z1@Z    10093bb1 f   LIBCMT:ehvecctr.obj
 0001:00092c33       __onexit                   10093c33 f   LIBCMT:onexit.obj
 0001:00092cb1       _atexit                    10093cb1 f   LIBCMT:onexit.obj
 0001:00092cc3       ___onexitinit              10093cc3 f   LIBCMT:onexit.obj
 0001:00092cf2       ??_M@YGXPAXIHP6EX0@Z@Z     10093cf2 f   LIBCMT:ehvecdtr.obj
 0001:00092d72       ?__ArrayUnwind@@YGXPAXIHP6EX0@Z@Z 10093d72 f   LIBCMT:ehvecdtr.obj
 0001:00092de6       ??2@YAPAXI@Z               10093de6 f   LIBCMT:new.obj
 0001:00092e00       _strcpy                    10093e00 f   LIBCMT:strcat.obj
 0001:00092e10       _strcat                    10093e10 f   LIBCMT:strcat.obj
 0001:00092ef0       _memset                    10093ef0 f   LIBCMT:memset.obj
 0001:00092f48       _printf                    10093f48 f   LIBCMT:printf.obj
 0001:00092f90       __CIsqrt                   10093f90 f   LIBCMT:sqrt.obj
 0001:00092fa4       _sqrt                      10093fa4 f   LIBCMT:sqrt.obj
 0001:00093050       _strcmp                    10094050 f   LIBCMT:strcmp.obj
 0001:000930e0       _memcpy                    100940e0 f   LIBCMT:memcpy.obj
 0001:00093415       _atol                      10094415 f   LIBCMT:atox.obj
 0001:000934a0       _atoi                      100944a0 f   LIBCMT:atox.obj
 0001:000934ab       __atoi64                   100944ab f   LIBCMT:atox.obj
 0001:00093570       _strstr                    10094570 f   LIBCMT:strstr.obj
 0001:000935f0       _strncpy                   100945f0 f   LIBCMT:strncpy.obj
 0001:000936f0       __chkstk                   100946f0 f   LIBCMT:chkstk.obj
 0001:000936f0       __alloca_probe             100946f0 f   LIBCMT:chkstk.obj
 0001:00093720       _memmove                   10094720 f   LIBCMT:memmove.obj
 0001:00093a55       _localtime                 10094a55 f   LIBCMT:localtim.obj
 0001:00093bc0       _memcmp                    10094bc0 f   LIBCMT:memcmp.obj
 0001:00093c6c       _ctime                     10094c6c f   LIBCMT:ctime.obj
 0001:00093c85       __Getdays                  10094c85 f   LIBCMT:strftime.obj
 0001:00093d14       __Getmonths                10094d14 f   LIBCMT:strftime.obj
 0001:00093da9       __Gettnames                10094da9 f   LIBCMT:strftime.obj
 0001:00093fdb       _strftime                  10094fdb f   LIBCMT:strftime.obj
 0001:00093ff6       __Strftime                 10094ff6 f   LIBCMT:strftime.obj
 0001:0009488d       __findfirst                1009588d f   LIBCMT:findfile.obj
 0001:0009495a       __findnext                 1009595a f   LIBCMT:findfile.obj
 0001:00094a22       __findclose                10095a22 f   LIBCMT:findfile.obj
 0001:00094a42       ___timet_from_ft           10095a42 f   LIBCMT:findfile.obj
 0001:00094aa6       __strupr                   10095aa6 f   LIBCMT:strupr.obj
 0001:00094bda       __CRT_INIT@12              10095bda f   LIBCMT:dllcrt0.obj
 0001:00094cb3       __DllMainCRTStartup@12     10095cb3 f   LIBCMT:dllcrt0.obj
 0001:00094d50       __amsg_exit                10095d50 f   LIBCMT:dllcrt0.obj
 0001:00094d83       ??1type_info@@UAE@XZ       10095d83 f   LIBCMT:typinfo.obj
 0001:00094dac       ??_Etype_info@@UAEPAXI@Z   10095dac f i LIBCMT:typinfo.obj
 0001:00094dac       ??_Gtype_info@@UAEPAXI@Z   10095dac f i LIBCMT:typinfo.obj
 0001:00094dc8       ??8type_info@@QBEHABV0@@Z  10095dc8 f   LIBCMT:typinfo.obj
 0001:00094de3       ??9type_info@@QBEHABV0@@Z  10095de3 f   LIBCMT:typinfo.obj
 0001:00094dff       ?before@type_info@@QBEHABV1@@Z 10095dff f   LIBCMT:typinfo.obj
 0001:00094e1e       ?raw_name@type_info@@QBEPBDXZ 10095e1e f   LIBCMT:typinfo.obj
 0001:00094e22       ??0type_info@@AAE@ABV0@@Z  10095e22 f   LIBCMT:typinfo.obj
 0001:00094e2d       ??4type_info@@AAEAAV0@ABV0@@Z 10095e2d f   LIBCMT:typinfo.obj
 0001:00094e32       __CxxThrowException@8      10095e32 f   LIBCMT:throw.obj
 0001:00094e6c       _free                      10095e6c f   LIBCMT:free.obj
 0001:00094eb4       ??0exception@@QAE@XZ       10095eb4 f   LIBCMT:stdexcpt.obj
 0001:00094ec5       ??_Gexception@@UAEPAXI@Z   10095ec5 f i LIBCMT:stdexcpt.obj
 0001:00094ec5       ??_Eexception@@UAEPAXI@Z   10095ec5 f i LIBCMT:stdexcpt.obj
 0001:00094ee1       ??0exception@@QAE@ABQBD@Z  10095ee1 f   LIBCMT:stdexcpt.obj
 0001:00094f1e       ??0exception@@QAE@ABV0@@Z  10095f1e f   LIBCMT:stdexcpt.obj
 0001:00094f68       ??4exception@@QAEAAV0@ABV0@@Z 10095f68 f   LIBCMT:stdexcpt.obj
 0001:00094f87       ??1exception@@UAE@XZ       10095f87 f   LIBCMT:stdexcpt.obj
 0001:00094f9d       ?what@exception@@UBEPBDXZ  10095f9d f   LIBCMT:stdexcpt.obj
 0001:00094fac       __EH_prolog                10095fac f   LIBCMT:ehprolog.obj
 0001:00094fcb       __flsbuf                   10095fcb f   LIBCMT:_flsbuf.obj
 0001:000950e3       __output                   100960e3 f   LIBCMT:output.obj
 0001:000958ed       __setdefaultprecision      100968ed f   LIBCMT:fp8.obj
 0001:000958ff       __ms_p5_test_fdiv          100968ff f   LIBCMT:testfdiv.obj
 0001:0009593d       __ms_p5_mp_test_fdiv       1009693d f   LIBCMT:testfdiv.obj
 0001:00095966       __forcdecpt                10096966 f   LIBCMT:cvt.obj
 0001:000959c0       __cropzeros                100969c0 f   LIBCMT:cvt.obj
 0001:00095a0e       __positive                 10096a0e f   LIBCMT:cvt.obj
 0001:00095a26       __fassign                  10096a26 f   LIBCMT:cvt.obj
 0001:00095a64       __cftoe                    10096a64 f   LIBCMT:cvt.obj
 0001:00095b87       __cftof                    10096b87 f   LIBCMT:cvt.obj
 0001:00095c83       __cftog                    10096c83 f   LIBCMT:cvt.obj
 0001:00095d16       __cfltcvt                  10096d16 f   LIBCMT:cvt.obj
 0001:00095d8c       ___InternalCxxFrameHandler 10096d8c f   LIBCMT:frame.obj
 0001:000960e1       ___FrameUnwindToState      100970e1 f   LIBCMT:frame.obj
 0001:00096519       ?_DestructExceptionObject@@YAXPAUEHExceptionRecord@@E@Z 10097519 f   LIBCMT:frame.obj
 0001:000965b0       __CallSettingFrame@12      100975b0 f   LIBCMT:lowhelpr.obj
 0001:000965d7       __NLG_Return               100975d7 f   LIBCMT:lowhelpr.obj
 0001:000965fc       __mtinit                   100975fc f   LIBCMT:tidtable.obj
 0001:00096650       __mtterm                   10097650 f   LIBCMT:tidtable.obj
 0001:0009666e       __initptd                  1009766e f   LIBCMT:tidtable.obj
 0001:00096681       __getptd                   10097681 f   LIBCMT:tidtable.obj
 0001:000966e8       __freeptd                  100976e8 f   LIBCMT:tidtable.obj
 0001:00096788       ___threadid                10097788 f   LIBCMT:tidtable.obj
 0001:0009678e       ___threadhandle            1009778e f   LIBCMT:tidtable.obj
 0001:00096794       ?terminate@@YAXXZ          10097794 f   LIBCMT:hooks.obj
 0001:000967f5       ?unexpected@@YAXXZ         100977f5 f   LIBCMT:hooks.obj
 0001:0009680d       ?_inconsistency@@YAXXZ     1009780d f   LIBCMT:hooks.obj
 0001:00096863       ___loctotime_t             10097863 f   LIBCMT:dtoxtime.obj
 0001:00096930       __except_handler3          10097930 f   LIBCMT:exsup3.obj
 0001:000969ed       __seh_longjmp_unwind@4     100979ed f   LIBCMT:exsup3.obj
 0001:00096a08       __cinit                    10097a08 f   LIBCMT:crt0dat.obj
 0001:00096a35       _exit                      10097a35 f   LIBCMT:crt0dat.obj
 0001:00096a46       __exit                     10097a46 f   LIBCMT:crt0dat.obj
 0001:00096a57       __cexit                    10097a57 f   LIBCMT:crt0dat.obj
 0001:00096a66       __c_exit                   10097a66 f   LIBCMT:crt0dat.obj
 0001:00096b1a       __lockexit                 10097b1a f   LIBCMT:crt0dat.obj
 0001:00096b23       __unlockexit               10097b23 f   LIBCMT:crt0dat.obj
 0001:00096b46       _realloc                   10097b46 f   LIBCMT:realloc.obj
 0001:00096c7e       __msize                    10097c7e f   LIBCMT:msize.obj
 0001:00096cc3       _malloc                    10097cc3 f   LIBCMT:malloc.obj
 0001:00096cd5       __nh_malloc                10097cd5 f   LIBCMT:malloc.obj
 0001:00096d01       __heap_alloc               10097d01 f   LIBCMT:malloc.obj
 0001:00096d4f       ___initstdio               10097d4f f   LIBCMT:_file.obj
 0001:00096df7       ___endstdio                10097df7 f   LIBCMT:_file.obj
 0001:00096e0b       __lock_file                10097e0b f   LIBCMT:_file.obj
 0001:00096e3a       __lock_file2               10097e3a f   LIBCMT:_file.obj
 0001:00096e5d       __unlock_file              10097e5d f   LIBCMT:_file.obj
 0001:00096e8c       __unlock_file2             10097e8c f   LIBCMT:_file.obj
 0001:00096eaf       __stbuf                    10097eaf f   LIBCMT:_sftbuf.obj
 0001:00096f3c       __ftbuf                    10097f3c f   LIBCMT:_sftbuf.obj
 0001:00096f70       __trandisp1                10097f70 f   LIBCMT:87disp.obj
 0001:00096fd7       __trandisp2                10097fd7 f   LIBCMT:87disp.obj
 0001:00097063       __rttospopde               10098063 f   LIBCMT:87disp.obj
 0001:00097068       __rttospop                 10098068 f   LIBCMT:87disp.obj
 0001:0009706a       __rtnospop                 1009806a f   LIBCMT:87disp.obj
 0001:0009706c       __rttosnpop                1009806c f   LIBCMT:87disp.obj
 0001:0009706d       __rtnospopde               1009806d f   LIBCMT:87disp.obj
 0001:00097074       __rtzeropop                10098074 f   LIBCMT:87disp.obj
 0001:00097076       __rtzeronpop               10098076 f   LIBCMT:87disp.obj
 0001:0009707b       __rtonepop                 1009807b f   LIBCMT:87disp.obj
 0001:0009707d       __rtonenpop                1009807d f   LIBCMT:87disp.obj
 0001:00097082       __tosnan1                  10098082 f   LIBCMT:87disp.obj
 0001:000970ad       __nosnan2                  100980ad f   LIBCMT:87disp.obj
 0001:000970af       __tosnan2                  100980af f   LIBCMT:87disp.obj
 0001:000970d7       __nan2                     100980d7 f   LIBCMT:87disp.obj
 0001:00097116       __rtindfpop                10098116 f   LIBCMT:87disp.obj
 0001:00097118       __rtindfnpop               10098118 f   LIBCMT:87disp.obj
 0001:00097129       __rttosnpopde              10098129 f   LIBCMT:87disp.obj
 0001:00097133       __rtchsifneg               10098133 f   LIBCMT:87disp.obj
 0001:00097140       __startTwoArgErrorHandling 10098140 f   LIBCMT:genexcep.obj
 0001:00097157       __startOneArgErrorHandling 10098157 f   LIBCMT:genexcep.obj
 0001:000971a0       __twoToTOS                 100981a0 f   LIBCMT:common.obj
 0001:000971b5       __load_CW                  100981b5 f   LIBCMT:common.obj
 0001:000971cc       __convertTOStoQNaN         100981cc f   LIBCMT:common.obj
 0001:000971e5       __fload_withFB             100981e5 f   LIBCMT:common.obj
 0001:00097228       __checkTOS_withFB          10098228 f   LIBCMT:common.obj
 0001:0009723e       __fast_exit                1009823e f   LIBCMT:common.obj
 0001:0009724b       __math_exit                1009824b f   LIBCMT:common.obj
 0001:00097275       __check_overflow_exit      10098275 f   LIBCMT:common.obj
 0001:00097289       __check_range_exit         10098289 f   LIBCMT:common.obj
 0001:0009732c       __isctype                  1009832c f   LIBCMT:isctype.obj
 0001:000973b0       __allmul                   100983b0 f   LIBCMT:llmul.obj
 0001:00097400       _strchr                    10098400 f   LIBCMT:strchr.obj
 0001:00097406       ___from_strstr_to_strchr   10098406 f   LIBCMT:strchr.obj
 0001:000974bc       ___tzset                   100984bc f   LIBCMT:tzset.obj
 0001:000974ea       __tzset                    100984ea f   LIBCMT:tzset.obj
 0001:00097787       __isindst                  10098787 f   LIBCMT:tzset.obj
 0001:00097a94       _gmtime                    10098a94 f   LIBCMT:gmtime.obj
 0001:00097b9e       _asctime                   10098b9e f   LIBCMT:asctime.obj
 0001:00097c90       __mtinitlocks              10098c90 f   LIBCMT:mlock.obj
 0001:00097cb9       __mtdeletelocks            10098cb9 f   LIBCMT:mlock.obj
 0001:00097d25       __lock                     10098d25 f   LIBCMT:mlock.obj
 0001:00097d86       __unlock                   10098d86 f   LIBCMT:mlock.obj
 0001:00097d9b       __lockerr_exit             10098d9b f   LIBCMT:mlock.obj
 0001:00097db3       _setlocale                 10098db3 f   LIBCMT:setlocal.obj
 0001:000981cd       __expandlocale             100991cd f   LIBCMT:setlocal.obj
 0001:000982e5       ___init_dummy              100992e5 f   LIBCMT:setlocal.obj
 0001:000982e8       __strcats                  100992e8 f   LIBCMT:setlocal.obj
 0001:0009830d       ___lc_strtolc              1009930d f   LIBCMT:setlocal.obj
 0001:000983d9       ___lc_lctostr              100993d9 f   LIBCMT:setlocal.obj
 0001:00098430       __strcmpi                  10099430 f   LIBCMT:stricmp.obj
 0001:00098430       __stricmp                  10099430 f   LIBCMT:stricmp.obj
 0001:00098430       _strcmpi                   10099430 f   LIBCMT:stricmp.obj
 0001:00098500       __dosmaperr                10099500 f   LIBCMT:dosmap.obj
 0001:00098573       __errno                    10099573 f   LIBCMT:dosmap.obj
 0001:0009857c       ___doserrno                1009957c f   LIBCMT:dosmap.obj
 0001:00098585       ___crtLCMapStringA         10099585 f   LIBCMT:a_map.obj
 0001:000987d4       __ioinit                   100997d4 f   LIBCMT:ioinit.obj
 0001:00098990       __ioterm                   10099990 f   LIBCMT:ioinit.obj
 0001:000989e4       __setenvp                  100999e4 f   LIBCMT:stdenvp.obj
 0001:00098a9d       __setargv                  10099a9d f   LIBCMT:stdargv.obj
 0001:00098cea       ___crtGetEnvironmentStringsA 10099cea f   LIBCMT:a_env.obj
 0001:00098e1c       __heap_init                10099e1c f   LIBCMT:heapinit.obj
 0001:00098e58       __heap_term                10099e58 f   LIBCMT:heapinit.obj
 0001:00098ecd       _DllMain@12                10099ecd f   LIBCMT:dllmain.obj
 0001:00098ed3       __FF_MSGBANNER             10099ed3 f   LIBCMT:crt0msg.obj
 0001:00098f0c       __NMSG_WRITE               10099f0c f   LIBCMT:crt0msg.obj
 0001:0009905f       __GET_RTERRMSG             1009a05f f   LIBCMT:crt0msg.obj
 0001:00099090       ?__CxxUnhandledExceptionFilter@@YGJPAU_EXCEPTION_POINTERS@@@Z 1009a090 f   LIBCMT:unhandld.obj
 0001:000990d6       ?__CxxSetUnhandledExceptionFilter@@YAXXZ 1009a0d6 f   LIBCMT:unhandld.obj
 0001:000990e7       ?__CxxRestoreUnhandledExceptionFilter@@YAXXZ 1009a0e7 f   LIBCMT:unhandld.obj
 0001:000990f4       __get_sbh_threshold        1009a0f4 f   LIBCMT:sbheap.obj
 0001:000990fa       __set_sbh_threshold        1009a0fa f   LIBCMT:sbheap.obj
 0001:00099111       ___sbh_heap_init           1009a111 f   LIBCMT:sbheap.obj
 0001:0009914f       ___sbh_find_block          1009a14f f   LIBCMT:sbheap.obj
 0001:0009917a       ___sbh_free_block          1009a17a f   LIBCMT:sbheap.obj
 0001:000994a5       ___sbh_alloc_block         1009a4a5 f   LIBCMT:sbheap.obj
 0001:000997ae       ___sbh_alloc_new_region    1009a7ae f   LIBCMT:sbheap.obj
 0001:0009985f       ___sbh_alloc_new_group     1009a85f f   LIBCMT:sbheap.obj
 0001:0009995a       ___sbh_resize_block        1009a95a f   LIBCMT:sbheap.obj
 0001:00099c50       ___sbh_heapmin             1009ac50 f   LIBCMT:sbheap.obj
 0001:00099d21       ___sbh_heap_check          1009ad21 f   LIBCMT:sbheap.obj
 0001:0009a050       __lseek                    1009b050 f   LIBCMT:lseek.obj
 0001:0009a0b5       __lseek_lk                 1009b0b5 f   LIBCMT:lseek.obj
 0001:0009a128       __write                    1009b128 f   LIBCMT:write.obj
 0001:0009a18d       __write_lk                 1009b18d f   LIBCMT:write.obj
 0001:0009a318       __getbuf                   1009b318 f   LIBCMT:_getbuf.obj
 0001:0009a35c       __isatty                   1009b35c f   LIBCMT:isatty.obj
 0001:0009a385       _wctomb                    1009b385 f   LIBCMT:wctomb.obj
 0001:0009a3de       __wctomb_lk                1009b3de f   LIBCMT:wctomb.obj
 0001:0009a450       __aulldiv                  1009b450 f   LIBCMT:ulldiv.obj
 0001:0009a4c0       __aullrem                  1009b4c0 f   LIBCMT:ullrem.obj
 0001:0009a535       __statusfp                 1009b535 f   LIBCMT:ieee87.obj
 0001:0009a548       __clearfp                  1009b548 f   LIBCMT:ieee87.obj
 0001:0009a55c       __control87                1009b55c f   LIBCMT:ieee87.obj
 0001:0009a591       __controlfp                1009b591 f   LIBCMT:ieee87.obj
 0001:0009a5a7       __fpreset                  1009b5a7 f   LIBCMT:ieee87.obj
 0001:0009a722       __tolower                  1009b722 f   LIBCMT:tolower.obj
 0001:0009a72a       _tolower                   1009b72a f   LIBCMT:tolower.obj
 0001:0009a799       __tolower_lk               1009b799 f   LIBCMT:tolower.obj
 0001:0009a864       __ZeroTail                 1009b864 f   LIBCMT:intrncvt.obj
 0001:0009a8ad       __IncMan                   1009b8ad f   LIBCMT:intrncvt.obj
 0001:0009a903       __RoundMan                 1009b903 f   LIBCMT:intrncvt.obj
 0001:0009a98f       __CopyMan                  1009b98f f   LIBCMT:intrncvt.obj
 0001:0009a9aa       __FillZeroMan              1009b9aa f   LIBCMT:intrncvt.obj
 0001:0009a9b6       __IsZeroMan                1009b9b6 f   LIBCMT:intrncvt.obj
 0001:0009a9d1       __ShrMan                   1009b9d1 f   LIBCMT:intrncvt.obj
 0001:0009aa5e       __ld12cvt                  1009ba5e f   LIBCMT:intrncvt.obj
 0001:0009abca       __ld12tod                  1009bbca f   LIBCMT:intrncvt.obj
 0001:0009abe0       __ld12tof                  1009bbe0 f   LIBCMT:intrncvt.obj
 0001:0009abf6       __ld12told                 1009bbf6 f   LIBCMT:intrncvt.obj
 0001:0009ac70       __atodbl                   1009bc70 f   LIBCMT:intrncvt.obj
 0001:0009ac9d       __atoldbl                  1009bc9d f   LIBCMT:intrncvt.obj
 0001:0009accb       __atoflt                   1009bccb f   LIBCMT:intrncvt.obj
 0001:0009acf8       __fptostr                  1009bcf8 f   LIBCMT:_fptostr.obj
 0001:0009ad6f       __fltout2                  1009bd6f f   LIBCMT:cfout.obj
 0001:0009adcb       ___dtold                   1009bdcb f   LIBCMT:cfout.obj
 0001:0009ae81       __fptrap                   1009be81 f   LIBCMT:crt0fp.obj
 0001:0009ae8a       ?_ValidateRead@@YAHPBXI@Z  1009be8a f   LIBCMT:validate.obj
 0001:0009aea6       ?_ValidateWrite@@YAHPAXI@Z 1009bea6 f   LIBCMT:validate.obj
 0001:0009aec2       ?_ValidateExecute@@YAHP6GHXZ@Z 1009bec2 f   LIBCMT:validate.obj
 0001:0009aeda       _calloc                    1009beda f   LIBCMT:calloc.obj
 0001:0009af67       __XcptFilter               1009bf67 f   LIBCMT:winxfltr.obj
 0001:0009b0df       _abort                     1009c0df f   LIBCMT:abort.obj
 0001:0009b0f6       ?_set_new_handler@@YAP6AHI@ZP6AHI@Z@Z 1009c0f6 f   LIBCMT:handler.obj
 0001:0009b11a       ?_query_new_handler@@YAP6AHI@ZXZ 1009c11a f   LIBCMT:handler.obj
 0001:0009b120       __callnewh                 1009c120 f   LIBCMT:handler.obj
 0001:0009b13b       __fcloseall                1009c13b f   LIBCMT:closeall.obj
 0001:0009b1bc       _fflush                    1009c1bc f   LIBCMT:fflush.obj
 0001:0009b1eb       __fflush_lk                1009c1eb f   LIBCMT:fflush.obj
 0001:0009b219       __flush                    1009c219 f   LIBCMT:fflush.obj
 0001:0009b275       __flushall                 1009c275 f   LIBCMT:fflush.obj
 0001:0009b322       __87except                 1009c322 f   LIBCMT:87except.obj
 0001:0009b3f2       ___crtGetStringTypeA       1009c3f2 f   LIBCMT:a_str.obj
 0001:0009b53b       _getenv                    1009c53b f   LIBCMT:getenv.obj
 0001:0009b55c       __getenv_lk                1009c55c f   LIBCMT:getenv.obj
 0001:0009b5d9       ___init_time               1009c5d9 f   LIBCMT:inittime.obj
 0001:0009bb48       ___init_numeric            1009cb48 f   LIBCMT:initnum.obj
 0001:0009bd54       ___init_monetary           1009cd54 f   LIBCMT:initmon.obj
 0001:0009bfc6       ___init_ctype              1009cfc6 f   LIBCMT:initctyp.obj
 0001:0009c20b       ___init_collate            1009d20b f   LIBCMT:initcoll.obj
 0001:0009c210       _strcspn                   1009d210 f   LIBCMT:strcspn.obj
 0001:0009c250       _strncmp                   1009d250 f   LIBCMT:strncmp.obj
 0001:0009c290       _strpbrk                   1009d290 f   LIBCMT:strpbrk.obj
 0001:0009c2ca       ___get_qualified_locale    1009d2ca f   LIBCMT:getqloc.obj
 0001:0009cb71       __setmbcp                  1009db71 f   LIBCMT:mbctype.obj
 0001:0009cf49       __getmbcp                  1009df49 f   LIBCMT:mbctype.obj
 0001:0009cf59       ___initmbctable            1009df59 f   LIBCMT:mbctype.obj
 0001:0009cf75       ___crtMessageBoxA          1009df75 f   LIBCMT:crtmbox.obj
 0001:0009cffe       __alloc_osfhnd             1009dffe f   LIBCMT:osfinfo.obj
 0001:0009d121       __set_osfhnd               1009e121 f   LIBCMT:osfinfo.obj
 0001:0009d19d       __free_osfhnd              1009e19d f   LIBCMT:osfinfo.obj
 0001:0009d21c       __get_osfhandle            1009e21c f   LIBCMT:osfinfo.obj
 0001:0009d25e       __open_osfhandle           1009e25e f   LIBCMT:osfinfo.obj
 0001:0009d305       __lock_fhandle             1009e305 f   LIBCMT:osfinfo.obj
 0001:0009d364       __unlock_fhandle           1009e364 f   LIBCMT:osfinfo.obj
 0001:0009d386       _signal                    1009e386 f   LIBCMT:winsig.obj
 0001:0009d56a       _raise                     1009e56a f   LIBCMT:winsig.obj
 0001:0009d729       ___fpecode                 1009e729 f   LIBCMT:winsig.obj
 0001:0009d732       ___pxcptinfoptrs           1009e732 f   LIBCMT:winsig.obj
 0001:0009d73b       ___addl                    1009e73b f   LIBCMT:mantold.obj
 0001:0009d75c       ___add_12                  1009e75c f   LIBCMT:mantold.obj
 0001:0009d7ba       ___shl_12                  1009e7ba f   LIBCMT:mantold.obj
 0001:0009d7e8       ___shr_12                  1009e7e8 f   LIBCMT:mantold.obj
 0001:0009d815       ___mtold12                 1009e815 f   LIBCMT:mantold.obj
 0001:0009d8dc       ___strgtold12              1009e8dc f   LIBCMT:strgtold.obj
 0001:0009ddad       ___STRINGTOLD              1009edad f   LIBCMT:strgtold.obj
 0001:0009dde9       _$I10_OUTPUT               1009ede9 f   LIBCMT:x10fout.obj
 0001:0009e07c       _fclose                    1009f07c f   LIBCMT:fclose.obj
 0001:0009e0ad       __fclose_lk                1009f0ad f   LIBCMT:fclose.obj
 0001:0009e0f9       __commit                   1009f0f9 f   LIBCMT:commit.obj
 0001:0009e18c       __handle_qnan1             1009f18c f   LIBCMT:fpexcept.obj
 0001:0009e1e0       __handle_qnan2             1009f1e0 f   LIBCMT:fpexcept.obj
 0001:0009e240       __except1                  1009f240 f   LIBCMT:fpexcept.obj
 0001:0009e2d8       __except2                  1009f2d8 f   LIBCMT:fpexcept.obj
 0001:0009e37d       __raise_exc                1009f37d f   LIBCMT:fpexcept.obj
 0001:0009e630       __handle_exc               1009f630 f   LIBCMT:fpexcept.obj
 0001:0009e847       __umatherr                 1009f847 f   LIBCMT:fpexcept.obj
 0001:0009e8cf       __set_errno                1009f8cf f   LIBCMT:fpexcept.obj
 0001:0009e91c       __errcode                  1009f91c f   LIBCMT:fpexcept.obj
 0001:0009e949       __matherr                  1009f949 f   LIBCMT:matherr.obj
 0001:0009e94c       __statfp                   1009f94c f   LIBCMT:fpctrl.obj
 0001:0009e95a       __clrfp                    1009f95a f   LIBCMT:fpctrl.obj
 0001:0009e969       __ctrlfp                   1009f969 f   LIBCMT:fpctrl.obj
 0001:0009e98c       __set_statfp               1009f98c f   LIBCMT:fpctrl.obj
 0001:0009e9e2       __mbsnbicoll               1009f9e2 f   LIBCMT:mbsnbico.obj
 0001:0009ea21       ___wtomb_environ           1009fa21 f   LIBCMT:wtombenv.obj
 0001:0009ea8f       ___getlocaleinfo           1009fa8f f   LIBCMT:inithelp.obj
 0001:0009ebc7       _localeconv                1009fbc7 f   LIBCMT:lconv.obj
 0001:0009ebcd       ___crtGetStringTypeW       1009fbcd f   LIBCMT:w_str.obj
 0001:0009ed92       __itoa                     1009fd92 f   LIBCMT:xtoa.obj
 0001:0009ed92       _itoa                      1009fd92 f   LIBCMT:xtoa.obj
 0001:0009ee1b       __ltoa                     1009fe1b f   LIBCMT:xtoa.obj
 0001:0009ee45       __ultoa                    1009fe45 f   LIBCMT:xtoa.obj
 0001:0009ee60       __i64toa                   1009fe60 f   LIBCMT:xtoa.obj
 0001:0009ef17       __ui64toa                  1009ff17 f   LIBCMT:xtoa.obj
 0001:0009ef40       __strnicmp                 1009ff40 f   LIBCMT:strnicmp.obj
 0001:0009f041       ___ld12mul                 100a0041 f   LIBCMT:tenpow.obj
 0001:0009f261       ___multtenpow12            100a0261 f   LIBCMT:tenpow.obj
 0001:0009f2dd       __close                    100a02dd f   LIBCMT:close.obj
 0001:0009f33a       __close_lk                 100a033a f   LIBCMT:close.obj
 0001:0009f3bd       __freebuf                  100a03bd f   LIBCMT:_freebuf.obj
 0001:0009f3e8       __set_exp                  100a03e8 f   LIBCMT:util.obj
 0001:0009f411       __get_exp                  100a0411 f   LIBCMT:util.obj
 0001:0009f425       __add_exp                  100a0425 f   LIBCMT:util.obj
 0001:0009f451       __set_bexp                 100a0451 f   LIBCMT:util.obj
 0001:0009f475       __sptype                   100a0475 f   LIBCMT:util.obj
 0001:0009f4cf       __decomp                   100a04cf f   LIBCMT:util.obj
 0001:0009f590       ___crtCompareStringA       100a0590 f   LIBCMT:a_cmp.obj
 0001:0009f838       ___crtsetenv               100a0838 f   LIBCMT:setenv.obj
 0001:0009fa7e       ___crtGetLocaleInfoW       100a0a7e f   LIBCMT:w_loc.obj
 0001:0009fb91       ___crtGetLocaleInfoA       100a0b91 f   LIBCMT:a_loc.obj
 0001:0009fcaf       __mbschr                   100a0caf f   LIBCMT:mbschr.obj
 0001:0009fd46       __strdup                   100a0d46 f   LIBCMT:strdup.obj
 0001:0009fd80       _InterlockedDecrement@4    100a0d80 f   kernel32:KERNEL32.dll
 0001:0009fd86       _InitializeCriticalSection@4 100a0d86 f   kernel32:KERNEL32.dll
 0001:0009fd8c       _DeleteCriticalSection@4   100a0d8c f   kernel32:KERNEL32.dll
 0001:0009fd92       _EnterCriticalSection@4    100a0d92 f   kernel32:KERNEL32.dll
 0001:0009fd98       _LeaveCriticalSection@4    100a0d98 f   kernel32:KERNEL32.dll
 0001:0009fd9e       _InterlockedIncrement@4    100a0d9e f   kernel32:KERNEL32.dll
 0001:0009fda4       _InterlockedExchange@8     100a0da4 f   kernel32:KERNEL32.dll
 0001:0009fdaa       _RtlUnwind@16              100a0daa f   kernel32:KERNEL32.dll
 0001:0009fdb0       _GetTimeZoneInformation@4  100a0db0 f   kernel32:KERNEL32.dll
 0001:0009fdb6       _GetLocalTime@4            100a0db6 f   kernel32:KERNEL32.dll
 0001:0009fdbc       _GetLastError@0            100a0dbc f   kernel32:KERNEL32.dll
 0001:0009fdc2       _FindFirstFileA@8          100a0dc2 f   kernel32:KERNEL32.dll
 0001:0009fdc8       _FindNextFileA@8           100a0dc8 f   kernel32:KERNEL32.dll
 0001:0009fdce       _FindClose@4               100a0dce f   kernel32:KERNEL32.dll
 0001:0009fdd4       _FileTimeToLocalFileTime@8 100a0dd4 f   kernel32:KERNEL32.dll
 0001:0009fdda       _GetCommandLineA@0         100a0dda f   kernel32:KERNEL32.dll
 0001:0009fde0       _GetVersion@0              100a0de0 f   kernel32:KERNEL32.dll
 0001:0009fde6       _RaiseException@16         100a0de6 f   kernel32:KERNEL32.dll
 0001:0009fdec       _HeapFree@12               100a0dec f   kernel32:KERNEL32.dll
 0001:0009fdf2       _GetProcAddress@8          100a0df2 f   kernel32:KERNEL32.dll
 0001:0009fdf8       _GetModuleHandleA@4        100a0df8 f   kernel32:KERNEL32.dll
 0001:0009fdfe       _GetCurrentThreadId@0      100a0dfe f   kernel32:KERNEL32.dll
 0001:0009fe04       _TlsSetValue@8             100a0e04 f   kernel32:KERNEL32.dll
 0001:0009fe0a       _TlsAlloc@0                100a0e0a f   kernel32:KERNEL32.dll
 0001:0009fe10       _TlsFree@4                 100a0e10 f   kernel32:KERNEL32.dll
 0001:0009fe16       _SetLastError@4            100a0e16 f   kernel32:KERNEL32.dll
 0001:0009fe1c       _TlsGetValue@4             100a0e1c f   kernel32:KERNEL32.dll
 0001:0009fe22       _GetCurrentThread@0        100a0e22 f   kernel32:KERNEL32.dll
 0001:0009fe28       _ExitProcess@4             100a0e28 f   kernel32:KERNEL32.dll
 0001:0009fe2e       _TerminateProcess@8        100a0e2e f   kernel32:KERNEL32.dll
 0001:0009fe34       _GetCurrentProcess@0       100a0e34 f   kernel32:KERNEL32.dll
 0001:0009fe3a       _HeapReAlloc@16            100a0e3a f   kernel32:KERNEL32.dll
 0001:0009fe40       _HeapAlloc@12              100a0e40 f   kernel32:KERNEL32.dll
 0001:0009fe46       _HeapSize@12               100a0e46 f   kernel32:KERNEL32.dll
 0001:0009fe4c       _WideCharToMultiByte@32    100a0e4c f   kernel32:KERNEL32.dll
 0001:0009fe52       _FatalAppExitA@8           100a0e52 f   kernel32:KERNEL32.dll
 0001:0009fe58       _MultiByteToWideChar@24    100a0e58 f   kernel32:KERNEL32.dll
 0001:0009fe5e       _LCMapStringA@24           100a0e5e f   kernel32:KERNEL32.dll
 0001:0009fe64       _LCMapStringW@24           100a0e64 f   kernel32:KERNEL32.dll
 0001:0009fe6a       _SetHandleCount@4          100a0e6a f   kernel32:KERNEL32.dll
 0001:0009fe70       _GetStdHandle@4            100a0e70 f   kernel32:KERNEL32.dll
 0001:0009fe76       _GetFileType@4             100a0e76 f   kernel32:KERNEL32.dll
 0001:0009fe7c       _GetStartupInfoA@4         100a0e7c f   kernel32:KERNEL32.dll
 0001:0009fe82       _GetModuleFileNameA@12     100a0e82 f   kernel32:KERNEL32.dll
 0001:0009fe88       _FreeEnvironmentStringsA@4 100a0e88 f   kernel32:KERNEL32.dll
 0001:0009fe8e       _FreeEnvironmentStringsW@4 100a0e8e f   kernel32:KERNEL32.dll
 0001:0009fe94       _GetEnvironmentStrings@0   100a0e94 f   kernel32:KERNEL32.dll
 0001:0009fe9a       _GetEnvironmentStringsW@0  100a0e9a f   kernel32:KERNEL32.dll
 0001:0009fea0       _HeapDestroy@4             100a0ea0 f   kernel32:KERNEL32.dll
 0001:0009fea6       _HeapCreate@12             100a0ea6 f   kernel32:KERNEL32.dll
 0001:0009feac       _VirtualFree@12            100a0eac f   kernel32:KERNEL32.dll
 0001:0009feb2       _WriteFile@20              100a0eb2 f   kernel32:KERNEL32.dll
 0001:0009feb8       _SetUnhandledExceptionFilter@4 100a0eb8 f   kernel32:KERNEL32.dll
 0001:0009febe       _VirtualAlloc@16           100a0ebe f   kernel32:KERNEL32.dll
 0001:0009fec4       _IsBadWritePtr@8           100a0ec4 f   kernel32:KERNEL32.dll
 0001:0009feca       _SetFilePointer@16         100a0eca f   kernel32:KERNEL32.dll
 0001:0009fed0       _IsBadReadPtr@8            100a0ed0 f   kernel32:KERNEL32.dll
 0001:0009fed6       _IsBadCodePtr@4            100a0ed6 f   kernel32:KERNEL32.dll
 0001:0009fedc       _UnhandledExceptionFilter@4 100a0edc f   kernel32:KERNEL32.dll
 0001:0009fee2       _GetStringTypeA@20         100a0ee2 f   kernel32:KERNEL32.dll
 0001:0009fee8       _GetStringTypeW@16         100a0ee8 f   kernel32:KERNEL32.dll
 0001:0009feee       _GetCPInfo@8               100a0eee f   kernel32:KERNEL32.dll
 0001:0009fef4       _IsValidLocale@8           100a0ef4 f   kernel32:KERNEL32.dll
 0001:0009fefa       _IsValidCodePage@4         100a0efa f   kernel32:KERNEL32.dll
 0001:0009ff00       _GetLocaleInfoA@16         100a0f00 f   kernel32:KERNEL32.dll
 0001:0009ff06       _EnumSystemLocalesA@8      100a0f06 f   kernel32:KERNEL32.dll
 0001:0009ff0c       _GetUserDefaultLCID@0      100a0f0c f   kernel32:KERNEL32.dll
 0001:0009ff12       _GetVersionExA@4           100a0f12 f   kernel32:KERNEL32.dll
 0001:0009ff18       _GetACP@0                  100a0f18 f   kernel32:KERNEL32.dll
 0001:0009ff1e       _GetOEMCP@0                100a0f1e f   kernel32:KERNEL32.dll
 0001:0009ff24       _LoadLibraryA@4            100a0f24 f   kernel32:KERNEL32.dll
 0001:0009ff2a       _SetStdHandle@8            100a0f2a f   kernel32:KERNEL32.dll
 0001:0009ff30       _SetConsoleCtrlHandler@8   100a0f30 f   kernel32:KERNEL32.dll
 0001:0009ff36       _FlushFileBuffers@4        100a0f36 f   kernel32:KERNEL32.dll
 0001:0009ff3c       _CloseHandle@4             100a0f3c f   kernel32:KERNEL32.dll
 0001:0009ff42       _CompareStringA@24         100a0f42 f   kernel32:KERNEL32.dll
 0001:0009ff48       _CompareStringW@24         100a0f48 f   kernel32:KERNEL32.dll
 0001:0009ff4e       _SetEnvironmentVariableA@8 100a0f4e f   kernel32:KERNEL32.dll
 0001:0009ff54       _GetLocaleInfoW@16         100a0f54 f   kernel32:KERNEL32.dll
 0001:0009ff5a       _MessageBoxA@16            100a0f5a f   user32:USER32.dll
 0001:0009ff60       __strlwr                   100a0f60 f   LIBCMT:strlwr.obj
 0001:0009ff60       _strlwr                    100a0f60 f   LIBCMT:strlwr.obj
 0001:000a0094       __getcwd                   100a1094 f   LIBCMT:getcwd.obj
 0001:000a0094       _getcwd                    100a1094 f   LIBCMT:getcwd.obj
 0001:000a00bb       __getdcwd                  100a10bb f   LIBCMT:getcwd.obj
 0001:000a00e4       __getdcwd_lk               100a10e4 f   LIBCMT:getcwd.obj
 0001:000a01b9       __validdrive               100a11b9 f   LIBCMT:getcwd.obj
 0001:000a01f0       _chdir                     100a11f0 f   LIBCMT:chdir.obj
 0001:000a01f0       __chdir                    100a11f0 f   LIBCMT:chdir.obj
 0001:000a0276       __mbctoupper               100a1276 f   LIBCMT:mbtoupr.obj
 0001:000a02f2       _GetCurrentDirectoryA@8    100a12f2 f   kernel32:KERNEL32.dll
 0001:000a02f8       _GetFullPathNameA@16       100a12f8 f   kernel32:KERNEL32.dll
 0001:000a02fe       _GetDriveTypeA@4           100a12fe f   kernel32:KERNEL32.dll
 0001:000a0304       _SetCurrentDirectoryA@4    100a1304 f   kernel32:KERNEL32.dll
 0002:00000000       __imp_?GetFloat3@KIniFile@@QAEXPBD0PAM@Z 100a4000     engine:Engine.dll
 0002:00000004       __imp_?g_GetFullPath@@YAXPAD0@Z 100a4004     engine:Engine.dll
 0002:00000008       __imp_?GetNextKey@KIniFile@@QAEHPBD0PAD@Z 100a4008     engine:Engine.dll
 0002:0000000c       __imp_?GetString@KTabFile@@UAEHPAD000K@Z 100a400c     engine:Engine.dll
 0002:00000010       __imp_?WriteInteger2@KIniFile@@QAEXPBD0HH@Z 100a4010     engine:Engine.dll
 0002:00000014       __imp_?IsSectionExist@KIniFile@@QAEHPBD@Z 100a4014     engine:Engine.dll
 0002:00000018       __imp_?g_FileExists@@YAHPAD@Z 100a4018     engine:Engine.dll
 0002:0000001c       __imp__TEncodeText         100a401c     engine:Engine.dll
 0002:00000020       __imp__TGetColor           100a4020     engine:Engine.dll
 0002:00000024       __imp_?GetCount@KLinkArray@@QAEHXZ 100a4024     engine:Engine.dll
 0002:00000028       __imp_?GetInteger@KTabFile@@UAEHPAD0HPAH@Z 100a4028     engine:Engine.dll
 0002:0000002c       __imp_?g_StrCat@@YAXPADPBD@Z 100a402c     engine:Engine.dll
 0002:00000030       __imp_?g_GetRootPath@@YAXPAD@Z 100a4030     engine:Engine.dll
 0002:00000034       __imp_??1KScriptList@@QAE@XZ 100a4034     engine:Engine.dll
 0002:00000038       __imp_??0KScriptList@@QAE@XZ 100a4038     engine:Engine.dll
 0002:0000003c       __imp_?g_GetFilePath@@YAXPAD@Z 100a403c     engine:Engine.dll
 0002:00000040       __imp_?GetInteger2@KIniFile@@QAEXPBD0PAH1@Z 100a4040     engine:Engine.dll
 0002:00000044       __imp_??0KTimer@@QAE@XZ    100a4044     engine:Engine.dll
 0002:00000048       __imp_?g_SetFilePath@@YAXPAD@Z 100a4048     engine:Engine.dll
 0002:0000004c       __imp_?GetRect@KIniFile@@QAEXPBD0PAUtagRECT@@@Z 100a404c     engine:Engine.dll
 0002:00000050       __imp_?g_FindDebugWindow@@YAPAUHWND__@@PAD0@Z 100a4050     engine:Engine.dll
 0002:00000054       __imp_?FindColumn@KTabFile@@UAEHPAD@Z 100a4054     engine:Engine.dll
 0002:00000058       __imp_?Seek@KPakFile@@QAEKHI@Z 100a4058     engine:Engine.dll
 0002:0000005c       __imp_??0KPakFile@@QAE@XZ  100a405c     engine:Engine.dll
 0002:00000060       __imp_?Open@KPakFile@@QAEHPBD@Z 100a4060     engine:Engine.dll
 0002:00000064       __imp_??1KPakFile@@QAE@XZ  100a4064     engine:Engine.dll
 0002:00000068       __imp_?g_FileName2Id@@YAKPAD@Z 100a4068     engine:Engine.dll
 0002:0000006c       __imp_?GetString@KTabFile@@UAEHHPAD00KH@Z 100a406c     engine:Engine.dll
 0002:00000070       __imp_?GetInteger@KTabFile@@UAEHHPADHPAHH@Z 100a4070     engine:Engine.dll
 0002:00000074       __imp_??1KTabFile@@UAE@XZ  100a4074     engine:Engine.dll
 0002:00000078       __imp_?g_DebugLog@@YAXPADZZ 100a4078     engine:Engine.dll
 0002:0000007c       __imp_?Load@KTabFile@@UAEHPAD@Z 100a407c     engine:Engine.dll
 0002:00000080       __imp_??0KTabFile@@QAE@XZ  100a4080     engine:Engine.dll
 0002:00000084       __imp_?g_Random@@YAII@Z    100a4084     engine:Engine.dll
 0002:00000088       __imp_??1KLinkArray@@QAE@XZ 100a4088     engine:Engine.dll
 0002:0000008c       __imp_??0KLinkArray@@QAE@XZ 100a408c     engine:Engine.dll
 0002:00000090       __imp_?Insert@KLinkArray@@QAEXH@Z 100a4090     engine:Engine.dll
 0002:00000094       __imp_?Init@KLinkArray@@QAEXH@Z 100a4094     engine:Engine.dll
 0002:00000098       __imp_?GetNext@KLinkArray@@QBEHH@Z 100a4098     engine:Engine.dll
 0002:0000009c       __imp_?Remove@KLinkArray@@QAEXH@Z 100a409c     engine:Engine.dll
 0002:000000a0       __imp_?GetHeight@KTabFile@@UAEHXZ 100a40a0     engine:Engine.dll
 0002:000000a4       __imp_?SafeCallEnd@KLuaScript@@QAEXH@Z 100a40a4     engine:Engine.dll
 0002:000000a8       __imp_?SafeCallBegin@KLuaScript@@QAEXPAH@Z 100a40a8     engine:Engine.dll
 0002:000000ac       __imp_?KSG_StringSkipSymbol@@YA_NPAPBDH@Z 100a40ac     engine:Engine.dll
 0002:000000b0       __imp_?KSG_StringGetInt@@YAHPAPBDH@Z 100a40b0     engine:Engine.dll
 0002:000000b4       __imp_?GetString@KIniFile@@QAEHPBD00PADK@Z 100a40b4     engine:Engine.dll
 0002:000000b8       __imp_??1KIniFile@@QAE@XZ  100a40b8     engine:Engine.dll
 0002:000000bc       __imp_?Load@KIniFile@@QAEHPBD@Z 100a40bc     engine:Engine.dll
 0002:000000c0       __imp_??0KIniFile@@QAE@XZ  100a40c0     engine:Engine.dll
 0002:000000c4       __imp_?GetInteger@KIniFile@@QAEHPBD0HPAH@Z 100a40c4     engine:Engine.dll
 0002:000000c8       __imp_?Save@KIniFile@@QAEHPBD@Z 100a40c8     engine:Engine.dll
 0002:000000cc       __imp_?WriteInteger@KIniFile@@QAEXPBD0H@Z 100a40cc     engine:Engine.dll
 0002:000000d0       __imp_?WriteString@KIniFile@@QAEXPBD00@Z 100a40d0     engine:Engine.dll
 0002:000000d4       __imp_?GetInteger@KTabFile@@UAEHHHHPAH@Z 100a40d4     engine:Engine.dll
 0002:000000d8       __imp_?KSG_GetCurSec@@YAHXZ 100a40d8     engine:Engine.dll
 0002:000000dc       __imp_?Clear@KIniFile@@QAEXXZ 100a40dc     engine:Engine.dll
 0002:000000e0       __imp_?g_StrCmp@@YAHPBD0@Z 100a40e0     engine:Engine.dll
 0002:000000e4       __imp_?g_StrLower@@YAXPAD@Z 100a40e4     engine:Engine.dll
 0002:000000e8       __imp_?g_StrCpyLen@@YAXPADPBDH@Z 100a40e8     engine:Engine.dll
 0002:000000ec       __imp_?SetGlobalName@KLuaScript@@QAEXPAD@Z 100a40ec     engine:Engine.dll
 0002:000000f0       __imp_?SetScriptName@KLuaScript@@UAEXPAD@Z 100a40f0     engine:Engine.dll
 0002:000000f4       __imp_?RegisterFunction@KLuaScript@@UAEHPADPAX@Z 100a40f4     engine:Engine.dll
 0002:000000f8       __imp_?CallFunction@KLuaScript@@UAAHPADH0ZZ 100a40f8     engine:Engine.dll
 0002:000000fc       __imp_?Execute@KLuaScript@@UAEHXZ 100a40fc     engine:Engine.dll
 0002:00000100       __imp_?Compile@KLuaScript@@UAEHPAD@Z 100a4100     engine:Engine.dll
 0002:00000104       __imp_?Load@KLuaScript@@UAEHPAD@Z 100a4104     engine:Engine.dll
 0002:00000108       __imp_?Exit@KLuaScript@@UAEXXZ 100a4108     engine:Engine.dll
 0002:0000010c       __imp_?Init@KLuaScript@@UAEHXZ 100a410c     engine:Engine.dll
 0002:00000110       __imp_?ExecuteCode@KLuaScript@@QAEHXZ 100a4110     engine:Engine.dll
 0002:00000114       __imp_?LoadBuffer@KLuaScript@@QAEHPAEK@Z 100a4114     engine:Engine.dll
 0002:00000118       __imp_?RegisterFunctions@KLuaScript@@QAEHQAUTLua_Funcs@@H@Z 100a4118     engine:Engine.dll
 0002:0000011c       __imp_??0KLuaScript@@QAE@XZ 100a411c     engine:Engine.dll
 0002:00000120       __imp_??1KLuaScript@@UAE@XZ 100a4120     engine:Engine.dll
 0002:00000124       __imp_?Clear@KTabFile@@UAEXXZ 100a4124     engine:Engine.dll
 0002:00000128       __imp_?FindRow@KTabFile@@UAEHPAD@Z 100a4128     engine:Engine.dll
 0002:0000012c       __imp__TReplaceText        100a412c     engine:Engine.dll
 0002:00000130       __imp_?KSG_StringGetValue@@YAHHHH@Z 100a4130     engine:Engine.dll
 0002:00000134       __imp_?KSG_StringSetValue@@YAHHHHH@Z 100a4134     engine:Engine.dll
 0002:00000138       __imp_?GetString@KTabFile@@UAEHHHPAD0K@Z 100a4138     engine:Engine.dll
 0002:0000013c       __imp_?g_StrCpy@@YAXPADPBD@Z 100a413c     engine:Engine.dll
 0002:00000140       __imp_?GetPrev@KLinkArray@@QBEHH@Z 100a4140     engine:Engine.dll
 0002:00000144       __imp_?GetInteger3@KIniFile@@QAEXPBD0PAH11@Z 100a4144     engine:Engine.dll
 0002:00000148       __imp_?g_UnitePathAndName@@YAXPAD00@Z 100a4148     engine:Engine.dll
 0002:0000014c       __imp_?g_SetRootPath@@YAXPAD@Z 100a414c     engine:Engine.dll
 0002:00000150       __imp_?GetWidth@KTabFile@@UAEHXZ 100a4150     engine:Engine.dll
 0002:00000154       __imp_?g_GetRandomSeed@@YAIXZ 100a4154     engine:Engine.dll
 0002:00000158       __imp_?g_RandomSeed@@YAXI@Z 100a4158     engine:Engine.dll
 0002:0000015c       __imp_??0KPolygon@@QAE@XZ  100a415c     engine:Engine.dll
 0002:00000160       __imp_?Clear@KPolygon@@QAEXXZ 100a4160     engine:Engine.dll
 0002:00000164       __imp_?IsPointInPolygon@KPolygon@@QAEHUtagPOINT@@@Z 100a4164     engine:Engine.dll
 0002:00000168       __imp_?GetCenterPos@KPolygon@@QAEXPAUtagPOINT@@@Z 100a4168     engine:Engine.dll
 0002:0000016c       __imp__TGetLimitLenString  100a416c     engine:Engine.dll
 0002:00000170       __imp_?Read@KPakFile@@QAEKPAXI@Z 100a4170     engine:Engine.dll
 0002:00000174       __imp_?Close@KPakFile@@QAEXXZ 100a4174     engine:Engine.dll
 0002:00000178       __imp_?Size@KPakFile@@QAEKXZ 100a4178     engine:Engine.dll
 0002:0000017c       \177Engine_NULL_THUNK_DATA 100a417c     engine:Engine.dll
 0002:00000180       __imp__EnumSystemLocalesA@8 100a4180     kernel32:KERNEL32.dll
 0002:00000184       __imp__GetUserDefaultLCID@0 100a4184     kernel32:KERNEL32.dll
 0002:00000188       __imp__GetVersionExA@4     100a4188     kernel32:KERNEL32.dll
 0002:0000018c       __imp__GetACP@0            100a418c     kernel32:KERNEL32.dll
 0002:00000190       __imp__GetOEMCP@0          100a4190     kernel32:KERNEL32.dll
 0002:00000194       __imp__LoadLibraryA@4      100a4194     kernel32:KERNEL32.dll
 0002:00000198       __imp__SetStdHandle@8      100a4198     kernel32:KERNEL32.dll
 0002:0000019c       __imp__GetTickCount@0      100a419c     kernel32:KERNEL32.dll
 0002:000001a0       __imp__SetConsoleCtrlHandler@8 100a41a0     kernel32:KERNEL32.dll
 0002:000001a4       __imp__FlushFileBuffers@4  100a41a4     kernel32:KERNEL32.dll
 0002:000001a8       __imp__CloseHandle@4       100a41a8     kernel32:KERNEL32.dll
 0002:000001ac       __imp__CompareStringA@24   100a41ac     kernel32:KERNEL32.dll
 0002:000001b0       __imp__CompareStringW@24   100a41b0     kernel32:KERNEL32.dll
 0002:000001b4       __imp__SetEnvironmentVariableA@8 100a41b4     kernel32:KERNEL32.dll
 0002:000001b8       __imp__GetLocaleInfoW@16   100a41b8     kernel32:KERNEL32.dll
 0002:000001bc       __imp__GetCurrentDirectoryA@8 100a41bc     kernel32:KERNEL32.dll
 0002:000001c0       __imp__GetFullPathNameA@16 100a41c0     kernel32:KERNEL32.dll
 0002:000001c4       __imp__GetDriveTypeA@4     100a41c4     kernel32:KERNEL32.dll
 0002:000001c8       __imp__GetSystemTime@4     100a41c8     kernel32:KERNEL32.dll
 0002:000001cc       __imp__GetComputerNameA@8  100a41cc     kernel32:KERNEL32.dll
 0002:000001d0       __imp__Sleep@4             100a41d0     kernel32:KERNEL32.dll
 0002:000001d4       __imp__SystemTimeToFileTime@8 100a41d4     kernel32:KERNEL32.dll
 0002:000001d8       __imp__LocalFileTimeToFileTime@8 100a41d8     kernel32:KERNEL32.dll
 0002:000001dc       __imp__FileTimeToSystemTime@8 100a41dc     kernel32:KERNEL32.dll
 0002:000001e0       __imp__GetLocaleInfoA@16   100a41e0     kernel32:KERNEL32.dll
 0002:000001e4       __imp__InterlockedDecrement@4 100a41e4     kernel32:KERNEL32.dll
 0002:000001e8       __imp__InitializeCriticalSection@4 100a41e8     kernel32:KERNEL32.dll
 0002:000001ec       __imp__DeleteCriticalSection@4 100a41ec     kernel32:KERNEL32.dll
 0002:000001f0       __imp__EnterCriticalSection@4 100a41f0     kernel32:KERNEL32.dll
 0002:000001f4       __imp__LeaveCriticalSection@4 100a41f4     kernel32:KERNEL32.dll
 0002:000001f8       __imp__InterlockedIncrement@4 100a41f8     kernel32:KERNEL32.dll
 0002:000001fc       __imp__InterlockedExchange@8 100a41fc     kernel32:KERNEL32.dll
 0002:00000200       __imp__RtlUnwind@16        100a4200     kernel32:KERNEL32.dll
 0002:00000204       __imp__GetTimeZoneInformation@4 100a4204     kernel32:KERNEL32.dll
 0002:00000208       __imp__GetLocalTime@4      100a4208     kernel32:KERNEL32.dll
 0002:0000020c       __imp__GetLastError@0      100a420c     kernel32:KERNEL32.dll
 0002:00000210       __imp__FindFirstFileA@8    100a4210     kernel32:KERNEL32.dll
 0002:00000214       __imp__FindNextFileA@8     100a4214     kernel32:KERNEL32.dll
 0002:00000218       __imp__FindClose@4         100a4218     kernel32:KERNEL32.dll
 0002:0000021c       __imp__FileTimeToLocalFileTime@8 100a421c     kernel32:KERNEL32.dll
 0002:00000220       __imp__GetCommandLineA@0   100a4220     kernel32:KERNEL32.dll
 0002:00000224       __imp__GetVersion@0        100a4224     kernel32:KERNEL32.dll
 0002:00000228       __imp__RaiseException@16   100a4228     kernel32:KERNEL32.dll
 0002:0000022c       __imp__HeapFree@12         100a422c     kernel32:KERNEL32.dll
 0002:00000230       __imp__GetProcAddress@8    100a4230     kernel32:KERNEL32.dll
 0002:00000234       __imp__GetModuleHandleA@4  100a4234     kernel32:KERNEL32.dll
 0002:00000238       __imp__GetCurrentThreadId@0 100a4238     kernel32:KERNEL32.dll
 0002:0000023c       __imp__TlsSetValue@8       100a423c     kernel32:KERNEL32.dll
 0002:00000240       __imp__TlsAlloc@0          100a4240     kernel32:KERNEL32.dll
 0002:00000244       __imp__TlsFree@4           100a4244     kernel32:KERNEL32.dll
 0002:00000248       __imp__SetLastError@4      100a4248     kernel32:KERNEL32.dll
 0002:0000024c       __imp__TlsGetValue@4       100a424c     kernel32:KERNEL32.dll
 0002:00000250       __imp__GetCurrentThread@0  100a4250     kernel32:KERNEL32.dll
 0002:00000254       __imp__ExitProcess@4       100a4254     kernel32:KERNEL32.dll
 0002:00000258       __imp__TerminateProcess@8  100a4258     kernel32:KERNEL32.dll
 0002:0000025c       __imp__GetCurrentProcess@0 100a425c     kernel32:KERNEL32.dll
 0002:00000260       __imp__HeapReAlloc@16      100a4260     kernel32:KERNEL32.dll
 0002:00000264       __imp__HeapAlloc@12        100a4264     kernel32:KERNEL32.dll
 0002:00000268       __imp__HeapSize@12         100a4268     kernel32:KERNEL32.dll
 0002:0000026c       __imp__WideCharToMultiByte@32 100a426c     kernel32:KERNEL32.dll
 0002:00000270       __imp__FatalAppExitA@8     100a4270     kernel32:KERNEL32.dll
 0002:00000274       __imp__MultiByteToWideChar@24 100a4274     kernel32:KERNEL32.dll
 0002:00000278       __imp__LCMapStringA@24     100a4278     kernel32:KERNEL32.dll
 0002:0000027c       __imp__LCMapStringW@24     100a427c     kernel32:KERNEL32.dll
 0002:00000280       __imp__SetHandleCount@4    100a4280     kernel32:KERNEL32.dll
 0002:00000284       __imp__GetStdHandle@4      100a4284     kernel32:KERNEL32.dll
 0002:00000288       __imp__GetFileType@4       100a4288     kernel32:KERNEL32.dll
 0002:0000028c       __imp__GetStartupInfoA@4   100a428c     kernel32:KERNEL32.dll
 0002:00000290       __imp__GetModuleFileNameA@12 100a4290     kernel32:KERNEL32.dll
 0002:00000294       __imp__FreeEnvironmentStringsA@4 100a4294     kernel32:KERNEL32.dll
 0002:00000298       __imp__FreeEnvironmentStringsW@4 100a4298     kernel32:KERNEL32.dll
 0002:0000029c       __imp__GetEnvironmentStrings@0 100a429c     kernel32:KERNEL32.dll
 0002:000002a0       __imp__GetEnvironmentStringsW@0 100a42a0     kernel32:KERNEL32.dll
 0002:000002a4       __imp__HeapDestroy@4       100a42a4     kernel32:KERNEL32.dll
 0002:000002a8       __imp__HeapCreate@12       100a42a8     kernel32:KERNEL32.dll
 0002:000002ac       __imp__VirtualFree@12      100a42ac     kernel32:KERNEL32.dll
 0002:000002b0       __imp__WriteFile@20        100a42b0     kernel32:KERNEL32.dll
 0002:000002b4       __imp__SetUnhandledExceptionFilter@4 100a42b4     kernel32:KERNEL32.dll
 0002:000002b8       __imp__VirtualAlloc@16     100a42b8     kernel32:KERNEL32.dll
 0002:000002bc       __imp__IsBadWritePtr@8     100a42bc     kernel32:KERNEL32.dll
 0002:000002c0       __imp__SetFilePointer@16   100a42c0     kernel32:KERNEL32.dll
 0002:000002c4       __imp__IsBadReadPtr@8      100a42c4     kernel32:KERNEL32.dll
 0002:000002c8       __imp__IsBadCodePtr@4      100a42c8     kernel32:KERNEL32.dll
 0002:000002cc       __imp__UnhandledExceptionFilter@4 100a42cc     kernel32:KERNEL32.dll
 0002:000002d0       __imp__GetStringTypeA@20   100a42d0     kernel32:KERNEL32.dll
 0002:000002d4       __imp__GetStringTypeW@16   100a42d4     kernel32:KERNEL32.dll
 0002:000002d8       __imp__GetCPInfo@8         100a42d8     kernel32:KERNEL32.dll
 0002:000002dc       __imp__IsValidLocale@8     100a42dc     kernel32:KERNEL32.dll
 0002:000002e0       __imp__IsValidCodePage@4   100a42e0     kernel32:KERNEL32.dll
 0002:000002e4       __imp__SetCurrentDirectoryA@4 100a42e4     kernel32:KERNEL32.dll
 0002:000002e8       \177KERNEL32_NULL_THUNK_DATA 100a42e8     kernel32:KERNEL32.dll
 0002:000002ec       __imp__lua_tostring        100a42ec     lualibdll:LuaLibDll.dll
 0002:000002f0       __imp__lua_pushstring      100a42f0     lualibdll:LuaLibDll.dll
 0002:000002f4       __imp__lua_pushnil         100a42f4     lualibdll:LuaLibDll.dll
 0002:000002f8       __imp__lua_dofile          100a42f8     lualibdll:LuaLibDll.dll
 0002:000002fc       __imp__lua_rawget          100a42fc     lualibdll:LuaLibDll.dll
 0002:00000300       __imp__lua_getglobal       100a4300     lualibdll:LuaLibDll.dll
 0002:00000304       __imp__lua_type            100a4304     lualibdll:LuaLibDll.dll
 0002:00000308       __imp__lua_pushnumber      100a4308     lualibdll:LuaLibDll.dll
 0002:0000030c       __imp__lua_gettop          100a430c     lualibdll:LuaLibDll.dll
 0002:00000310       __imp__lua_typename        100a4310     lualibdll:LuaLibDll.dll
 0002:00000314       __imp__lua_isnumber        100a4314     lualibdll:LuaLibDll.dll
 0002:00000318       __imp__lua_tonumber        100a4318     lualibdll:LuaLibDll.dll
 0002:0000031c       __imp__lua_isstring        100a431c     lualibdll:LuaLibDll.dll
 0002:00000320       \177LuaLibDll_NULL_THUNK_DATA 100a4320     lualibdll:LuaLibDll.dll
 0002:00000324       __imp__ShellExecuteA@24    100a4324     shell32:SHELL32.dll
 0002:00000328       \177SHELL32_NULL_THUNK_DATA 100a4328     shell32:SHELL32.dll
 0002:0000032c       __imp__MessageBoxA@16      100a432c     user32:USER32.dll
 0002:00000330       \177USER32_NULL_THUNK_DATA 100a4330     user32:USER32.dll
 0002:00000334       __imp__inet_addr@4         100a4334     Ws2_32:WS2_32.dll
 0002:00000338       \177WS2_32_NULL_THUNK_DATA 100a4338     Ws2_32:WS2_32.dll
 0002:0000035c       ??_7KThiefSkill@@6B@       100a435c     KThiefSkill.obj
 0002:000003b4       ??_7ISkill@@6B@            100a43b4     KThiefSkill.obj
 0002:00000410       __real@8@4002a000000000000000 100a4410     KThiefSkill.obj
 0002:00000418       __real@8@3ffbccccccccccccd000 100a4418     KThiefSkill.obj
 0002:00000828       ??_7KMissle@@6B@           100a4828     KMissle.obj
 0002:0000082c       ??_7KIndexNode@@6B@        100a482c     KMissle.obj
 0002:00000830       ??_7KNode@@6B@             100a4830     KMissle.obj
 0002:00000834       ??_7KWorldMsgNode@@6B@     100a4834     KMissle.obj
 0002:00000c40       ??_7KSkill@@6B@            100a4c40     KSkills.obj
 0002:000010a0       __real@4@00000000000000000000 100a50a0     KNpc.obj
 0002:000010a4       __real@4@4004c800000000000000 100a50a4     KNpc.obj
 0002:000010a8       __real@4@3fff8000000000000000 100a50a8     KNpc.obj
 0002:000010ac       ??_7KStateNode@@6B@        100a50ac     KNpc.obj
 0002:000018c0       __real@4@4005c800000000000000 100a58c0     KNpcAttribModify.obj
 0002:000024e0       ??_SKLuaScript@@6B@        100a64e0     KPlayer.obj
 0002:00002910       _IID_IDocHostUIHandlerDispatch 100a6910     KPlayerChat.obj
 0002:00002920       _IID_IInternalConnection   100a6920     KPlayerChat.obj
 0002:00002930       _IID_IAxWinAmbientDispatch 100a6930     KPlayerChat.obj
 0002:00002940       _IID_IAxWinHostWindow      100a6940     KPlayerChat.obj
 0002:00002950       _IID_IRegistrar            100a6950     KPlayerChat.obj
 0002:00002960       _CLSID_Registrar           100a6960     KPlayerChat.obj
 0002:00002970       _LIBID_ATLLib              100a6970     KPlayerChat.obj
 0002:00002980       ?npos@?$basic_string@DU?$char_traits@D@std@@V?$allocator@D@2@@std@@2IB 100a6980     KPlayerChat.obj
 0002:00002984       ?_C@?1??_Nullstr@?$basic_string@DU?$char_traits@D@std@@V?$allocator@D@2@@std@@CAPBDXZ@4DB 100a6984     KPlayerChat.obj
 0002:00002988       ??_7KBasicPropertyTable@@6B@ 100a6988     KBasPropTbl.obj
 0002:00002990       ??_7KBPT_Event@@6B@        100a6990     KBasPropTbl.obj
 0002:00002998       ??_7KBPT_MagicScript@@6B@  100a6998     KBasPropTbl.obj
 0002:000029a0       ??_7KBPT_TownPortal@@6B@   100a69a0     KBasPropTbl.obj
 0002:000029a8       ??_7KBPT_Quest@@6B@        100a69a8     KBasPropTbl.obj
 0002:000029b0       ??_7KBPT_Medicine@@6B@     100a69b0     KBasPropTbl.obj
 0002:000029b8       ??_7KBPT_Equipment@@6B@    100a69b8     KBasPropTbl.obj
 0002:000029c0       ??_7KBPT_Equipment_Gold@@6B@ 100a69c0     KBasPropTbl.obj
 0002:000029cc       ??_7KBPT_Equipment_Platina@@6B@ 100a69cc     KBasPropTbl.obj
 0002:000029d8       ??_7KBPT_MagicAttrib_TF@@6B@ 100a69d8     KBasPropTbl.obj
 0002:00003c70       ??_7?$KMissionArray@VKMission@@$09@@6B@ 100a7c70     KSubWorld.obj
 0002:00003c74       ??_7?$KMissionArray@VKMission@@$01@@6B@ 100a7c74     KSubWorld.obj
 0002:00003c78       __real@4@40048000000000000000 100a7c78     KSubWorld.obj
 0002:00003c7c       ??_7?$KLinkArrayTemplate@VKMission@@$09@@6B@ 100a7c7c     KSubWorld.obj
 0002:00003c80       ??_7?$KTimerFunArray@VKTimerTaskFun@@$03$1?g_MissionTimerCallBackFun@@YAHPAXPADK@Z@@6B@ 100a7c80     KSubWorld.obj
 0002:00003c84       ??_7?$_KMissionPlayerArray@UTMissionPlayerInfo@@$0ELA@@@6B@ 100a7c84     KSubWorld.obj
 0002:00003c88       ??_7?$_KMissionNpcArray@UTMissionNpcInfo@@$0LLIA@@@6B@ 100a7c88     KSubWorld.obj
 0002:00003c8c       ??_7?$KLinkArrayTemplate@VKTimerTaskFun@@$03@@6B@ 100a7c8c     KSubWorld.obj
 0002:00003c90       ??_7?$KLinkArrayTemplate@UTMissionPlayerInfo@@$0ELA@@@6B@ 100a7c90     KSubWorld.obj
 0002:00003c94       ??_7?$KLinkArrayTemplate@UTMissionNpcInfo@@$0LLIA@@@6B@ 100a7c94     KSubWorld.obj
 0002:00003c98       ??_7?$KLinkArrayTemplate@VKMission@@$01@@6B@ 100a7c98     KSubWorld.obj
 0002:00004cc0       __real@8@00000000000000000000 100a8cc0     ScriptFuns.obj
 0002:00004cc8       ??_7KScriptValueSet@@6B@   100a8cc8     KScriptValueSet.obj
 0002:00004ccc       ??_7TStringValueNode@@6B@  100a8ccc     KScriptValueSet.obj
 0002:00004cd0       ??_7TIntegerValueNode@@6B@ 100a8cd0     KScriptValueSet.obj
 0002:00004cd4       ??_7CoreServerShell@@6B@   100a8cd4     CoreServerShell.obj
 0002:00004d80       ?MAGIC_ATTRIB_STRING@@3QAY0GE@$$CBDA 100a8d80     KMagicDesc.obj
 0002:0000c440       ??_7KTimerTaskFun@@6B@     100b0440     KTaskFuns.obj
 0002:0000c448       ??_7KTaskFun@@6B@          100b0448     KTaskFuns.obj
 0002:0000c450       ??_7CException@Win32@OnlineGameLib@@6B@ 100b0450     common:Buffer.obj
 0002:0000c45c       ??_7Allocator@CBuffer@Win32@OnlineGameLib@@6B@ 100b045c     common:Buffer.obj
 0002:0000c46c       ??_7CPackager@Win32@OnlineGameLib@@6B@ 100b046c     common:Buffer.obj
 0002:0000c474       ??_7length_error@std@@6B@  100b0474     libcpmt:string.obj
 0002:0000c480       ??_C@_0BA@HHMB@string?5too?5long?$AA@ 100b0480     libcpmt:string.obj
 0002:0000c494       ??_7logic_error@std@@6B@   100b0494     libcpmt:string.obj
 0002:0000c4a4       ??_7out_of_range@std@@6B@  100b04a4     libcpmt:string.obj
 0002:0000c4b0       ??_C@_0BI@EEBE@invalid?5string?5position?$AA@ 100b04b0     libcpmt:string.obj
 0002:0000c4f4       ??_C@_07CJME@H?3mm?3ss?$AA@ 100b04f4     LIBCMT:strftime.obj
 0002:0000c4fc       ??_C@_0BE@MHI@dddd?0?5MMMM?5dd?0?5yyyy?$AA@ 100b04fc     LIBCMT:strftime.obj
 0002:0000c510       ??_C@_06HCAD@M?1d?1yy?$AA@ 100b0510     LIBCMT:strftime.obj
 0002:0000c518       ??_C@_02DBLP@PM?$AA@       100b0518     LIBCMT:strftime.obj
 0002:0000c51c       ??_C@_02ENLM@AM?$AA@       100b051c     LIBCMT:strftime.obj
 0002:0000c520       ??_C@_08LIDF@December?$AA@ 100b0520     LIBCMT:strftime.obj
 0002:0000c52c       ??_C@_08NJLI@November?$AA@ 100b052c     LIBCMT:strftime.obj
 0002:0000c538       ??_C@_07IAMM@October?$AA@  100b0538     LIBCMT:strftime.obj
 0002:0000c540       ??_C@_09MKGD@September?$AA@ 100b0540     LIBCMT:strftime.obj
 0002:0000c54c       ??_C@_06PADP@August?$AA@   100b054c     LIBCMT:strftime.obj
 0002:0000c554       ??_C@_04PIJO@July?$AA@     100b0554     LIBCMT:strftime.obj
 0002:0000c55c       ??_C@_04ICFP@June?$AA@     100b055c     LIBCMT:strftime.obj
 0002:0000c564       ??_C@_05JFGC@April?$AA@    100b0564     LIBCMT:strftime.obj
 0002:0000c56c       ??_C@_05FGPD@March?$AA@    100b056c     LIBCMT:strftime.obj
 0002:0000c574       ??_C@_08PGBA@February?$AA@ 100b0574     LIBCMT:strftime.obj
 0002:0000c580       ??_C@_07BPKJ@January?$AA@  100b0580     LIBCMT:strftime.obj
 0002:0000c588       ??_C@_03PGJO@Dec?$AA@      100b0588     LIBCMT:strftime.obj
 0002:0000c58c       ??_C@_03PDLM@Nov?$AA@      100b058c     LIBCMT:strftime.obj
 0002:0000c590       ??_C@_03BLHK@Oct?$AA@      100b0590     LIBCMT:strftime.obj
 0002:0000c594       ??_C@_03DPFM@Sep?$AA@      100b0594     LIBCMT:strftime.obj
 0002:0000c598       ??_C@_03CMCH@Aug?$AA@      100b0598     LIBCMT:strftime.obj
 0002:0000c59c       ??_C@_03OBKI@Jul?$AA@      100b059c     LIBCMT:strftime.obj
 0002:0000c5a0       ??_C@_03LEIG@Jun?$AA@      100b05a0     LIBCMT:strftime.obj
 0002:0000c5a4       ??_C@_03MGHB@May?$AA@      100b05a4     LIBCMT:strftime.obj
 0002:0000c5a8       ??_C@_03MJJM@Apr?$AA@      100b05a8     LIBCMT:strftime.obj
 0002:0000c5ac       ??_C@_03GNHA@Mar?$AA@      100b05ac     LIBCMT:strftime.obj
 0002:0000c5b0       ??_C@_03PICE@Feb?$AA@      100b05b0     LIBCMT:strftime.obj
 0002:0000c5b4       ??_C@_03IEIF@Jan?$AA@      100b05b4     LIBCMT:strftime.obj
 0002:0000c5b8       ??_C@_08FAKH@Saturday?$AA@ 100b05b8     LIBCMT:strftime.obj
 0002:0000c5c4       ??_C@_06ONCK@Friday?$AA@   100b05c4     LIBCMT:strftime.obj
 0002:0000c5cc       ??_C@_08CCFO@Thursday?$AA@ 100b05cc     LIBCMT:strftime.obj
 0002:0000c5d8       ??_C@_09PBIN@Wednesday?$AA@ 100b05d8     LIBCMT:strftime.obj
 0002:0000c5e4       ??_C@_07BMBC@Tuesday?$AA@  100b05e4     LIBCMT:strftime.obj
 0002:0000c5ec       ??_C@_06CHLK@Monday?$AA@   100b05ec     LIBCMT:strftime.obj
 0002:0000c5f4       ??_C@_06OOEM@Sunday?$AA@   100b05f4     LIBCMT:strftime.obj
 0002:0000c5fc       ??_C@_03MPKK@Sat?$AA@      100b05fc     LIBCMT:strftime.obj
 0002:0000c600       ??_C@_03FINJ@Fri?$AA@      100b0600     LIBCMT:strftime.obj
 0002:0000c604       ??_C@_03HIKC@Thu?$AA@      100b0604     LIBCMT:strftime.obj
 0002:0000c608       ??_C@_03HECK@Wed?$AA@      100b0608     LIBCMT:strftime.obj
 0002:0000c60c       ??_C@_03ECCP@Tue?$AA@      100b060c     LIBCMT:strftime.obj
 0002:0000c610       ??_C@_03PIEP@Mon?$AA@      100b0610     LIBCMT:strftime.obj
 0002:0000c614       ??_C@_03FHEP@Sun?$AA@      100b0614     LIBCMT:strftime.obj
 0002:0000c618       ??_C@_03MKGK@a?1p?$AA@     100b0618     LIBCMT:strftime.obj
 0002:0000c61c       ??_C@_05BDJK@am?1pm?$AA@   100b061c     LIBCMT:strftime.obj
 0002:0000c628       ??_7type_info@@6B@         100b0628     LIBCMT:typinfo.obj
 0002:0000c654       ??_7exception@@6B@         100b0654     LIBCMT:stdexcpt.obj
 0002:0000c65c       ??_C@_0BC@OIDF@Unknown?5exception?$AA@ 100b065c     LIBCMT:stdexcpt.obj
 0002:0000c670       ___lookuptable             100b0670     LIBCMT:output.obj
 0002:0000c6cc       ??_C@_1O@POHA@?$AA?$CI?$AAn?$AAu?$AAl?$AAl?$AA?$CJ?$AA?$AA@ 100b06cc     LIBCMT:output.obj
 0002:0000c6dc       ??_C@_06ONKE@?$CInull?$CJ?$AA@ 100b06dc     LIBCMT:output.obj
 0002:0000c6e8       __real@8@3fff8000000000000000 100b06e8     LIBCMT:testfdiv.obj
 0002:0000c6f0       __real@8@4015800bf60000000000 100b06f0     LIBCMT:testfdiv.obj
 0002:0000c6f8       __real@8@4014bffffc0000000000 100b06f8     LIBCMT:testfdiv.obj
 0002:0000c700       ??_C@_0BK@JEGK@IsProcessorFeaturePresent?$AA@ 100b0700     LIBCMT:testfdiv.obj
 0002:0000c71c       ??_C@_08OBID@KERNEL32?$AA@ 100b071c     LIBCMT:testfdiv.obj
 0002:0000c728       ??_C@_05OFLO@e?$CL000?$AA@ 100b0728     LIBCMT:cvt.obj
 0002:0000c7b8       __DEFAULT_CW_in_mem        100b07b8     LIBCMT:common.obj
 0002:0000c7ba       __pi_by_2_to_61            100b07ba     LIBCMT:common.obj
 0002:0000c7f4       ___dnames                  100b07f4     LIBCMT:timeset.obj
 0002:0000c80c       ___mnames                  100b080c     LIBCMT:timeset.obj
 0002:0000c834       ??_C@_02JHIA@TZ?$AA@       100b0834     LIBCMT:tzset.obj
 0002:0000c838       ??_C@_07PCLE@LC_TIME?$AA@  100b0838     LIBCMT:setlocal.obj
 0002:0000c840       ??_C@_0L@NKG@LC_NUMERIC?$AA@ 100b0840     LIBCMT:setlocal.obj
 0002:0000c84c       ??_C@_0M@CBIH@LC_MONETARY?$AA@ 100b084c     LIBCMT:setlocal.obj
 0002:0000c858       ??_C@_08LFGE@LC_CTYPE?$AA@ 100b0858     LIBCMT:setlocal.obj
 0002:0000c864       ??_C@_0L@CFLC@LC_COLLATE?$AA@ 100b0864     LIBCMT:setlocal.obj
 0002:0000c870       ??_C@_06GCPK@LC_ALL?$AA@   100b0870     LIBCMT:setlocal.obj
 0002:0000c878       ??_C@_01FAJB@?$DL?$AA@     100b0878     LIBCMT:setlocal.obj
 0002:0000c87c       ??_C@_02BGDO@?$DN?$DL?$AA@ 100b087c     LIBCMT:setlocal.obj
 0002:0000c880       ??_C@_01KPOD@?$DN?$AA@     100b0880     LIBCMT:setlocal.obj
 0002:0000c884       ??_C@_03DBOJ@_?4?0?$AA@    100b0884     LIBCMT:setlocal.obj
 0002:0000c888       ??_C@_01PJCK@?4?$AA@       100b0888     LIBCMT:setlocal.obj
 0002:0000c88c       ??_C@_01NON@_?$AA@         100b088c     LIBCMT:setlocal.obj
 0002:0000c890       ??_C@_01A@?$AA?$AA@        100b0890     LIBCMT:a_map.obj
 0002:0000c894       ??_C@_13A@?$AA?$AA?$AA?$AA@ 100b0894     LIBCMT:a_map.obj
 0002:0000c8b0       ??_C@_0P@GGKG@runtime?5error?5?$AA@ 100b08b0     LIBCMT:crt0msg.obj
 0002:0000c8c0       ??_C@_02PIMC@?$AN?6?$AA@   100b08c0     LIBCMT:crt0msg.obj
 0002:0000c8c4       ??_C@_0O@DELO@TLOSS?5error?$AN?6?$AA@ 100b08c4     LIBCMT:crt0msg.obj
 0002:0000c8d4       ??_C@_0N@OMLL@SING?5error?$AN?6?$AA@ 100b08d4     LIBCMT:crt0msg.obj
 0002:0000c8e4       ??_C@_0P@OJAK@DOMAIN?5error?$AN?6?$AA@ 100b08e4     LIBCMT:crt0msg.obj
 0002:0000c8f4       ??_C@_0CF@EANP@R6028?$AN?6?9?5unable?5to?5initialize?5he@ 100b08f4     LIBCMT:crt0msg.obj
 0002:0000c91c       ??_C@_0DF@ECGN@R6027?$AN?6?9?5not?5enough?5space?5for?5lo@ 100b091c     LIBCMT:crt0msg.obj
 0002:0000c954       ??_C@_0DF@FKAC@R6026?$AN?6?9?5not?5enough?5space?5for?5st@ 100b0954     LIBCMT:crt0msg.obj
 0002:0000c98c       ??_C@_0CG@DPMN@R6025?$AN?6?9?5pure?5virtual?5function?5c@ 100b098c     LIBCMT:crt0msg.obj
 0002:0000c9b4       ??_C@_0DF@CKIP@R6024?$AN?6?9?5not?5enough?5space?5for?5_o@ 100b09b4     LIBCMT:crt0msg.obj
 0002:0000c9ec       ??_C@_0CJ@GGOE@R6019?$AN?6?9?5unable?5to?5open?5console?5@ 100b09ec     LIBCMT:crt0msg.obj
 0002:0000ca18       ??_C@_0CB@LBOB@R6018?$AN?6?9?5unexpected?5heap?5error?$AN?6@ 100b0a18     LIBCMT:crt0msg.obj
 0002:0000ca3c       ??_C@_0CN@FPEG@R6017?$AN?6?9?5unexpected?5multithread?5@ 100b0a3c     LIBCMT:crt0msg.obj
 0002:0000ca6c       ??_C@_0CM@OBIC@R6016?$AN?6?9?5not?5enough?5space?5for?5th@ 100b0a6c     LIBCMT:crt0msg.obj
 0002:0000ca98       ??_C@_0CB@HPAL@?$AN?6abnormal?5program?5termination?$AN?6@ 100b0a98     LIBCMT:crt0msg.obj
 0002:0000cabc       ??_C@_0CM@JOOB@R6009?$AN?6?9?5not?5enough?5space?5for?5en@ 100b0abc     LIBCMT:crt0msg.obj
 0002:0000cae8       ??_C@_0CK@OIBL@R6008?$AN?6?9?5not?5enough?5space?5for?5ar@ 100b0ae8     LIBCMT:crt0msg.obj
 0002:0000cb14       ??_C@_0CF@LKPB@R6002?$AN?6?9?5floating?5point?5not?5load@ 100b0b14     LIBCMT:crt0msg.obj
 0002:0000cb3c       ??_C@_0CF@JPDF@Microsoft?5Visual?5C?$CL?$CL?5Runtime?5Lib@ 100b0b3c     LIBCMT:crt0msg.obj
 0002:0000cb64       ??_C@_02JJJH@?6?6?$AA@     100b0b64     LIBCMT:crt0msg.obj
 0002:0000cb68       ??_C@_0BK@DEOK@Runtime?5Error?$CB?6?6Program?3?5?$AA@ 100b0b68     LIBCMT:crt0msg.obj
 0002:0000cb84       ??_C@_03NAME@?4?4?4?$AA@   100b0b84     LIBCMT:crt0msg.obj
 0002:0000cb88       ??_C@_0BH@NNCD@?$DMprogram?5name?5unknown?$DO?$AA@ 100b0b88     LIBCMT:crt0msg.obj
 0002:0000cbac       ??_C@_08OBJD@Paraguay?$AA@ 100b0bac     LIBCMT:getqloc.obj
 0002:0000cbb8       ??_C@_07GLKH@Uruguay?$AA@  100b0bb8     LIBCMT:getqloc.obj
 0002:0000cbc0       ??_C@_05FPFC@Chile?$AA@    100b0bc0     LIBCMT:getqloc.obj
 0002:0000cbc8       ??_C@_07IIGF@Ecuador?$AA@  100b0bc8     LIBCMT:getqloc.obj
 0002:0000cbd0       ??_C@_09PKAL@Argentina?$AA@ 100b0bd0     LIBCMT:getqloc.obj
 0002:0000cbdc       ??_C@_04LKAH@Peru?$AA@     100b0bdc     LIBCMT:getqloc.obj
 0002:0000cbe4       ??_C@_08NEEM@Colombia?$AA@ 100b0be4     LIBCMT:getqloc.obj
 0002:0000cbf0       ??_C@_09ODEB@Venezuela?$AA@ 100b0bf0     LIBCMT:getqloc.obj
 0002:0000cbfc       ??_C@_0BD@CLEL@Dominican?5Republic?$AA@ 100b0bfc     LIBCMT:getqloc.obj
 0002:0000cc10       ??_C@_0N@MDGL@South?5Africa?$AA@ 100b0c10     LIBCMT:getqloc.obj
 0002:0000cc20       ??_C@_06NKBG@Panama?$AA@   100b0c20     LIBCMT:getqloc.obj
 0002:0000cc28       ??_C@_0L@BMHO@Luxembourg?$AA@ 100b0c28     LIBCMT:getqloc.obj
 0002:0000cc34       ??_C@_0L@IMDK@Costa?5Rica?$AA@ 100b0c34     LIBCMT:getqloc.obj
 0002:0000cc40       ??_C@_0M@BLJF@Switzerland?$AA@ 100b0c40     LIBCMT:getqloc.obj
 0002:0000cc4c       ??_C@_09KBOL@Guatemala?$AA@ 100b0c4c     LIBCMT:getqloc.obj
 0002:0000cc58       ??_C@_06JNAK@Canada?$AA@   100b0c58     LIBCMT:getqloc.obj
 0002:0000cc60       ??_C@_0BG@OLLP@Spanish?5?9?5Modern?5Sort?$AA@ 100b0c60     LIBCMT:getqloc.obj
 0002:0000cc78       ??_C@_09IDKE@Australia?$AA@ 100b0c78     LIBCMT:getqloc.obj
 0002:0000cc84       ??_C@_07JJJJ@English?$AA@  100b0c84     LIBCMT:getqloc.obj
 0002:0000cc8c       ??_C@_07NMDO@Austria?$AA@  100b0c8c     LIBCMT:getqloc.obj
 0002:0000cc94       ??_C@_06DEFE@German?$AA@   100b0c94     LIBCMT:getqloc.obj
 0002:0000cc9c       ??_C@_07JAIH@Belgium?$AA@  100b0c9c     LIBCMT:getqloc.obj
 0002:0000cca4       ??_C@_06BNLJ@Mexico?$AA@   100b0ca4     LIBCMT:getqloc.obj
 0002:0000ccac       ??_C@_07JHAG@Spanish?$AA@  100b0cac     LIBCMT:getqloc.obj
 0002:0000ccb4       ??_C@_06DADE@Basque?$AA@   100b0cb4     LIBCMT:getqloc.obj
 0002:0000ccbc       ??_C@_06ENFP@Sweden?$AA@   100b0cbc     LIBCMT:getqloc.obj
 0002:0000ccc4       ??_C@_07JPMH@Swedish?$AA@  100b0cc4     LIBCMT:getqloc.obj
 0002:0000cccc       ??_C@_07IEKF@Iceland?$AA@  100b0ccc     LIBCMT:getqloc.obj
 0002:0000ccd4       ??_C@_09KNEA@Icelandic?$AA@ 100b0cd4     LIBCMT:getqloc.obj
 0002:0000cce0       ??_C@_06IJOD@France?$AA@   100b0ce0     LIBCMT:getqloc.obj
 0002:0000cce8       ??_C@_06EINI@French?$AA@   100b0ce8     LIBCMT:getqloc.obj
 0002:0000ccf0       ??_C@_07FOOE@Finland?$AA@  100b0cf0     LIBCMT:getqloc.obj
 0002:0000ccf8       ??_C@_07OJOM@Finnish?$AA@  100b0cf8     LIBCMT:getqloc.obj
 0002:0000cd00       ??_C@_05FFAC@Spain?$AA@    100b0d00     LIBCMT:getqloc.obj
 0002:0000cd08       ??_C@_0BL@BIHM@Spanish?5?9?5Traditional?5Sort?$AA@ 100b0d08     LIBCMT:getqloc.obj
 0002:0000cd24       ??_C@_0O@GLHB@united?9states?$AA@ 100b0d24     LIBCMT:getqloc.obj
 0002:0000cd34       ??_C@_0P@IIKK@united?9kingdom?$AA@ 100b0d34     LIBCMT:getqloc.obj
 0002:0000cd44       ??_C@_0BC@FHBO@trinidad?5?$CG?5tobago?$AA@ 100b0d44     LIBCMT:getqloc.obj
 0002:0000cd58       ??_C@_0M@BDFM@south?9korea?$AA@ 100b0d58     LIBCMT:getqloc.obj
 0002:0000cd64       ??_C@_0N@CKFA@south?9africa?$AA@ 100b0d64     LIBCMT:getqloc.obj
 0002:0000cd74       ??_C@_0M@HNHN@south?5korea?$AA@ 100b0d74     LIBCMT:getqloc.obj
 0002:0000cd80       ??_C@_0N@MKDO@south?5africa?$AA@ 100b0d80     LIBCMT:getqloc.obj
 0002:0000cd90       ??_C@_06KFFJ@slovak?$AA@   100b0d90     LIBCMT:getqloc.obj
 0002:0000cd98       ??_C@_0M@NMAC@puerto?9rico?$AA@ 100b0d98     LIBCMT:getqloc.obj
 0002:0000cda4       ??_C@_08EJOH@pr?9china?$AA@ 100b0da4     LIBCMT:getqloc.obj
 0002:0000cdb0       ??_C@_08CHMG@pr?5china?$AA@ 100b0db0     LIBCMT:getqloc.obj
 0002:0000cdbc       ??_C@_02OCJK@nz?$AA@       100b0dbc     LIBCMT:getqloc.obj
 0002:0000cdc0       ??_C@_0M@MMKA@new?9zealand?$AA@ 100b0dc0     LIBCMT:getqloc.obj
 0002:0000cdcc       ??_C@_09MGEH@hong?9kong?$AA@ 100b0dcc     LIBCMT:getqloc.obj
 0002:0000cdd8       ??_C@_07CCAK@holland?$AA@  100b0dd8     LIBCMT:getqloc.obj
 0002:0000cde0       ??_C@_0O@MEPL@great?5britain?$AA@ 100b0de0     LIBCMT:getqloc.obj
 0002:0000cdf0       ??_C@_07LGIB@england?$AA@  100b0df0     LIBCMT:getqloc.obj
 0002:0000cdf8       ??_C@_05BMOA@czech?$AA@    100b0df8     LIBCMT:getqloc.obj
 0002:0000ce00       ??_C@_05NMPB@china?$AA@    100b0e00     LIBCMT:getqloc.obj
 0002:0000ce08       ??_C@_07GN@britain?$AA@    100b0e08     LIBCMT:getqloc.obj
 0002:0000ce10       ??_C@_07DLAK@america?$AA@  100b0e10     LIBCMT:getqloc.obj
 0002:0000ce18       ??_C@_03IPEP@usa?$AA@      100b0e18     LIBCMT:getqloc.obj
 0002:0000ce1c       ??_C@_02PILH@us?$AA@       100b0e1c     LIBCMT:getqloc.obj
 0002:0000ce20       ??_C@_02FHP@uk?$AA@        100b0e20     LIBCMT:getqloc.obj
 0002:0000ce24       ??_C@_05DEAI@swiss?$AA@    100b0e24     LIBCMT:getqloc.obj
 0002:0000ce2c       ??_C@_0BA@LIAF@swedish?9finland?$AA@ 100b0e2c     LIBCMT:getqloc.obj
 0002:0000ce3c       ??_C@_0BC@FMEG@spanish?9venezuela?$AA@ 100b0e3c     LIBCMT:getqloc.obj
 0002:0000ce50       ??_C@_0BA@BNMG@spanish?9uruguay?$AA@ 100b0e50     LIBCMT:getqloc.obj
 0002:0000ce60       ??_C@_0BE@BKDJ@spanish?9puerto?5rico?$AA@ 100b0e60     LIBCMT:getqloc.obj
 0002:0000ce74       ??_C@_0N@JIBL@spanish?9peru?$AA@ 100b0e74     LIBCMT:getqloc.obj
 0002:0000ce84       ??_C@_0BB@OGOF@spanish?9paraguay?$AA@ 100b0e84     LIBCMT:getqloc.obj
 0002:0000ce98       ??_C@_0P@LLFA@spanish?9panama?$AA@ 100b0e98     LIBCMT:getqloc.obj
 0002:0000cea8       ??_C@_0BC@BBJM@spanish?9nicaragua?$AA@ 100b0ea8     LIBCMT:getqloc.obj
 0002:0000cebc       ??_C@_0P@NJBN@spanish?9modern?$AA@ 100b0ebc     LIBCMT:getqloc.obj
 0002:0000cecc       ??_C@_0BA@NHDN@spanish?9mexican?$AA@ 100b0ecc     LIBCMT:getqloc.obj
 0002:0000cedc       ??_C@_0BB@JHOJ@spanish?9honduras?$AA@ 100b0edc     LIBCMT:getqloc.obj
 0002:0000cef0       ??_C@_0BC@BOOM@spanish?9guatemala?$AA@ 100b0ef0     LIBCMT:getqloc.obj
 0002:0000cf04       ??_C@_0BE@EELI@spanish?9el?5salvador?$AA@ 100b0f04     LIBCMT:getqloc.obj
 0002:0000cf18       ??_C@_0BA@POAE@spanish?9ecuador?$AA@ 100b0f18     LIBCMT:getqloc.obj
 0002:0000cf28       ??_C@_0BL@LDKN@spanish?9dominican?5republic?$AA@ 100b0f28     LIBCMT:getqloc.obj
 0002:0000cf44       ??_C@_0BD@HPMH@spanish?9costa?5rica?$AA@ 100b0f44     LIBCMT:getqloc.obj
 0002:0000cf58       ??_C@_0BB@NDDK@spanish?9colombia?$AA@ 100b0f58     LIBCMT:getqloc.obj
 0002:0000cf6c       ??_C@_0O@BJHA@spanish?9chile?$AA@ 100b0f6c     LIBCMT:getqloc.obj
 0002:0000cf7c       ??_C@_0BA@OBNG@spanish?9bolivia?$AA@ 100b0f7c     LIBCMT:getqloc.obj
 0002:0000cf8c       ??_C@_0BC@EFAM@spanish?9argentina?$AA@ 100b0f8c     LIBCMT:getqloc.obj
 0002:0000cfa0       ??_C@_0BF@KMMM@portuguese?9brazilian?$AA@ 100b0fa0     LIBCMT:getqloc.obj
 0002:0000cfb8       ??_C@_0BC@BAAE@norwegian?9nynorsk?$AA@ 100b0fb8     LIBCMT:getqloc.obj
 0002:0000cfcc       ??_C@_0BB@PBHK@norwegian?9bokmal?$AA@ 100b0fcc     LIBCMT:getqloc.obj
 0002:0000cfe0       ??_C@_09EHKL@norwegian?$AA@ 100b0fe0     LIBCMT:getqloc.obj
 0002:0000cfec       ??_C@_0O@BEAN@italian?9swiss?$AA@ 100b0fec     LIBCMT:getqloc.obj
 0002:0000cffc       ??_C@_0O@OIFK@irish?9english?$AA@ 100b0ffc     LIBCMT:getqloc.obj
 0002:0000d00c       ??_C@_0N@NBPL@german?9swiss?$AA@ 100b100c     LIBCMT:getqloc.obj
 0002:0000d01c       ??_C@_0BC@ICFJ@german?9luxembourg?$AA@ 100b101c     LIBCMT:getqloc.obj
 0002:0000d030       ??_C@_0BE@GGPC@german?9lichtenstein?$AA@ 100b1030     LIBCMT:getqloc.obj
 0002:0000d044       ??_C@_0BA@MKDC@german?9austrian?$AA@ 100b1044     LIBCMT:getqloc.obj
 0002:0000d054       ??_C@_0N@ODNB@french?9swiss?$AA@ 100b1054     LIBCMT:getqloc.obj
 0002:0000d064       ??_C@_0BC@MGCM@french?9luxembourg?$AA@ 100b1064     LIBCMT:getqloc.obj
 0002:0000d078       ??_C@_0BA@NABK@french?9canadian?$AA@ 100b1078     LIBCMT:getqloc.obj
 0002:0000d088       ??_C@_0P@CJNO@french?9belgian?$AA@ 100b1088     LIBCMT:getqloc.obj
 0002:0000d098       ??_C@_0M@LJOL@english?9usa?$AA@ 100b1098     LIBCMT:getqloc.obj
 0002:0000d0a4       ??_C@_0L@FMNC@english?9us?$AA@ 100b10a4     LIBCMT:getqloc.obj
 0002:0000d0b0       ??_C@_0L@KBBK@english?9uk?$AA@ 100b10b0     LIBCMT:getqloc.obj
 0002:0000d0bc       ??_C@_0BK@NDDE@english?9trinidad?5y?5tobago?$AA@ 100b10bc     LIBCMT:getqloc.obj
 0002:0000d0d8       ??_C@_0BF@LKML@english?9south?5africa?$AA@ 100b10d8     LIBCMT:getqloc.obj
 0002:0000d0f0       ??_C@_0L@EGPP@english?9nz?$AA@ 100b10f0     LIBCMT:getqloc.obj
 0002:0000d0fc       ??_C@_0BA@HLH@english?9jamaica?$AA@ 100b10fc     LIBCMT:getqloc.obj
 0002:0000d10c       ??_C@_0M@PMJI@english?9ire?$AA@ 100b110c     LIBCMT:getqloc.obj
 0002:0000d118       ??_C@_0BC@HINE@english?9caribbean?$AA@ 100b1118     LIBCMT:getqloc.obj
 0002:0000d12c       ??_C@_0M@DCFH@english?9can?$AA@ 100b112c     LIBCMT:getqloc.obj
 0002:0000d138       ??_C@_0P@DGHK@english?9belize?$AA@ 100b1138     LIBCMT:getqloc.obj
 0002:0000d148       ??_C@_0M@FLHK@english?9aus?$AA@ 100b1148     LIBCMT:getqloc.obj
 0002:0000d154       ??_C@_0BB@HNCK@english?9american?$AA@ 100b1154     LIBCMT:getqloc.obj
 0002:0000d168       ??_C@_0O@PAMI@dutch?9belgian?$AA@ 100b1168     LIBCMT:getqloc.obj
 0002:0000d178       ??_C@_0BE@FPEJ@chinese?9traditional?$AA@ 100b1178     LIBCMT:getqloc.obj
 0002:0000d18c       ??_C@_0BC@CHFL@chinese?9singapore?$AA@ 100b118c     LIBCMT:getqloc.obj
 0002:0000d1a0       ??_C@_0BD@DCMH@chinese?9simplified?$AA@ 100b11a0     LIBCMT:getqloc.obj
 0002:0000d1b4       ??_C@_0BB@JMOE@chinese?9hongkong?$AA@ 100b11b4     LIBCMT:getqloc.obj
 0002:0000d1c8       ??_C@_07NGFN@chinese?$AA@  100b11c8     LIBCMT:getqloc.obj
 0002:0000d1d0       ??_C@_03PCOI@chi?$AA@      100b11d0     LIBCMT:getqloc.obj
 0002:0000d1d4       ??_C@_03FIHP@chh?$AA@      100b11d4     LIBCMT:getqloc.obj
 0002:0000d1d8       ??_C@_08HFLO@canadian?$AA@ 100b11d8     LIBCMT:getqloc.obj
 0002:0000d1e4       ??_C@_07INIJ@belgian?$AA@  100b11e4     LIBCMT:getqloc.obj
 0002:0000d1ec       ??_C@_0L@LCCA@australian?$AA@ 100b11ec     LIBCMT:getqloc.obj
 0002:0000d1f8       ??_C@_0BB@BJIO@american?9english?$AA@ 100b11f8     LIBCMT:getqloc.obj
 0002:0000d20c       ??_C@_0BB@DAGO@american?5english?$AA@ 100b120c     LIBCMT:getqloc.obj
 0002:0000d220       ??_C@_08HENB@american?$AA@ 100b1220     LIBCMT:getqloc.obj
 0002:0000d22c       ??_C@_03DGJE@OCP?$AA@      100b122c     LIBCMT:getqloc.obj
 0002:0000d230       ??_C@_03EKFG@ACP?$AA@      100b1230     LIBCMT:getqloc.obj
 0002:0000d234       ??_C@_0BD@NJFP@GetLastActivePopup?$AA@ 100b1234     LIBCMT:crtmbox.obj
 0002:0000d248       ??_C@_0BA@GILI@GetActiveWindow?$AA@ 100b1248     LIBCMT:crtmbox.obj
 0002:0000d258       ??_C@_0M@PKCK@MessageBoxA?$AA@ 100b1258     LIBCMT:crtmbox.obj
 0002:0000d264       ??_C@_0L@HKL@user32?4dll?$AA@ 100b1264     LIBCMT:crtmbox.obj
 0002:0000d270       ??_C@_06PAPI@1?$CDQNAN?$AA@ 100b1270     LIBCMT:x10fout.obj
 0002:0000d278       ??_C@_05BGNL@1?$CDINF?$AA@ 100b1278     LIBCMT:x10fout.obj
 0002:0000d280       ??_C@_05EDPF@1?$CDIND?$AA@ 100b1280     LIBCMT:x10fout.obj
 0002:0000d288       ??_C@_06LKFM@1?$CDSNAN?$AA@ 100b1288     LIBCMT:x10fout.obj
 0002:0000d290       ??_C@_03GAFO@_yn?$AA@      100b1290     LIBCMT:fpexcept.obj
 0002:0000d294       ??_C@_03GNLD@_y1?$AA@      100b1294     LIBCMT:fpexcept.obj
 0002:0000d298       ??_C@_03MHCE@_y0?$AA@      100b1298     LIBCMT:fpexcept.obj
 0002:0000d29c       ??_C@_05PAK@frexp?$AA@     100b129c     LIBCMT:fpexcept.obj
 0002:0000d2a4       ??_C@_04JKCH@fmod?$AA@     100b12a4     LIBCMT:fpexcept.obj
 0002:0000d2ac       ??_C@_06GGHF@_hypot?$AA@   100b12ac     LIBCMT:fpexcept.obj
 0002:0000d2b4       ??_C@_05JNMC@_cabs?$AA@    100b12b4     LIBCMT:fpexcept.obj
 0002:0000d2bc       ??_C@_05MEKH@ldexp?$AA@    100b12bc     LIBCMT:fpexcept.obj
 0002:0000d2c4       ??_C@_04KAOJ@modf?$AA@     100b12c4     LIBCMT:fpexcept.obj
 0002:0000d2cc       ??_C@_04EHAJ@fabs?$AA@     100b12cc     LIBCMT:fpexcept.obj
 0002:0000d2d4       ??_C@_05MFBN@floor?$AA@    100b12d4     LIBCMT:fpexcept.obj
 0002:0000d2dc       ??_C@_04JJMP@ceil?$AA@     100b12dc     LIBCMT:fpexcept.obj
 0002:0000d2e4       ??_C@_03JLPI@tan?$AA@      100b12e4     LIBCMT:fpexcept.obj
 0002:0000d2e8       ??_C@_03DLFL@cos?$AA@      100b12e8     LIBCMT:fpexcept.obj
 0002:0000d2ec       ??_C@_03JAMN@sin?$AA@      100b12ec     LIBCMT:fpexcept.obj
 0002:0000d2f0       ??_C@_04LMBE@sqrt?$AA@     100b12f0     LIBCMT:fpexcept.obj
 0002:0000d2f8       ??_C@_05BFPO@atan2?$AA@    100b12f8     LIBCMT:fpexcept.obj
 0002:0000d300       ??_C@_04EAGN@atan?$AA@     100b1300     LIBCMT:fpexcept.obj
 0002:0000d308       ??_C@_04OAMO@acos?$AA@     100b1308     LIBCMT:fpexcept.obj
 0002:0000d310       ??_C@_04ELFI@asin?$AA@     100b1310     LIBCMT:fpexcept.obj
 0002:0000d318       ??_C@_04LFAD@tanh?$AA@     100b1318     LIBCMT:fpexcept.obj
 0002:0000d320       ??_C@_04PFKD@cosh?$AA@     100b1320     LIBCMT:fpexcept.obj
 0002:0000d328       ??_C@_04NPAI@sinh?$AA@     100b1328     LIBCMT:fpexcept.obj
 0002:0000d330       ??_C@_05IJHH@log10?$AA@    100b1330     LIBCMT:fpexcept.obj
 0002:0000d338       ??_C@_03BGKD@log?$AA@      100b1338     LIBCMT:fpexcept.obj
 0002:0000d33c       ??_C@_03EGFG@pow?$AA@      100b133c     LIBCMT:fpexcept.obj
 0002:0000d340       ??_C@_03CDGJ@exp?$AA@      100b1340     LIBCMT:fpexcept.obj
 0002:0000d398       ??_R1A@?0A@A@exception@@8  100b1398     libcpmt:string.obj
 0002:0000d3b0       ??_R1A@?0A@A@logic_error@std@@8 100b13b0     libcpmt:string.obj
 0002:0000d3c8       ??_R1A@?0A@A@length_error@std@@8 100b13c8     libcpmt:string.obj
 0002:0000d3e0       ??_R2length_error@std@@8   100b13e0     libcpmt:string.obj
 0002:0000d3f0       ??_R3length_error@std@@8   100b13f0     libcpmt:string.obj
 0002:0000d400       ??_R4length_error@std@@6B@ 100b1400     libcpmt:string.obj
 0002:0000d418       ??_R2logic_error@std@@8    100b1418     libcpmt:string.obj
 0002:0000d428       ??_R3logic_error@std@@8    100b1428     libcpmt:string.obj
 0002:0000d438       ??_R4logic_error@std@@6B@  100b1438     libcpmt:string.obj
 0002:0000d450       ??_R1A@?0A@A@out_of_range@std@@8 100b1450     libcpmt:string.obj
 0002:0000d468       ??_R2out_of_range@std@@8   100b1468     libcpmt:string.obj
 0002:0000d478       ??_R3out_of_range@std@@8   100b1478     libcpmt:string.obj
 0002:0000d488       ??_R4out_of_range@std@@6B@ 100b1488     libcpmt:string.obj
 0002:0000d4a0       ??_R1A@?0A@A@type_info@@8  100b14a0     LIBCMT:typinfo.obj
 0002:0000d4b8       ??_R2type_info@@8          100b14b8     LIBCMT:typinfo.obj
 0002:0000d4c0       ??_R3type_info@@8          100b14c0     LIBCMT:typinfo.obj
 0002:0000d4d0       ??_R4type_info@@6B@        100b14d0     LIBCMT:typinfo.obj
 0002:0000d4e4       ??_R2exception@@8          100b14e4     LIBCMT:stdexcpt.obj
 0002:0000d4f0       ??_R3exception@@8          100b14f0     LIBCMT:stdexcpt.obj
 0002:0000d500       ??_R4exception@@6B@        100b1500     LIBCMT:stdexcpt.obj
 0002:00010448       __CT??_R0?AVCException@Win32@OnlineGameLib@@@8??0CException@Win32@OnlineGameLib@@QAE@ABV012@@Z36 100b4448     common:Buffer.obj
 0002:00010468       __CTA1?AVCException@Win32@OnlineGameLib@@ 100b4468     common:Buffer.obj
 0002:00010470       __TI1?AVCException@Win32@OnlineGameLib@@ 100b4470     common:Buffer.obj
 0002:00010830       __CT??_R0?AVexception@@@8??0exception@@QAE@ABV0@@Z12 100b4830     libcpmt:string.obj
 0002:00010850       __CT??_R0?AVlogic_error@std@@@8??0logic_error@std@@QAE@ABV01@@Z28 100b4850     libcpmt:string.obj
 0002:00010870       __CT??_R0?AVlength_error@std@@@8??0length_error@std@@QAE@ABV01@@Z28 100b4870     libcpmt:string.obj
 0002:00010890       __CTA3?AVlength_error@std@@ 100b4890     libcpmt:string.obj
 0002:000108a0       __TI3?AVlength_error@std@@ 100b48a0     libcpmt:string.obj
 0002:00010900       __CTA2?AVlogic_error@std@@ 100b4900     libcpmt:string.obj
 0002:00010910       __TI2?AVlogic_error@std@@  100b4910     libcpmt:string.obj
 0002:00010998       __CT??_R0?AVout_of_range@std@@@8??0out_of_range@std@@QAE@ABV01@@Z28 100b4998     libcpmt:string.obj
 0002:000109b8       __CTA3?AVout_of_range@std@@ 100b49b8     libcpmt:string.obj
 0002:000109c8       __TI3?AVout_of_range@std@@ 100b49c8     libcpmt:string.obj
 0002:00010a28       __IMPORT_DESCRIPTOR_KERNEL32 100b4a28     kernel32:KERNEL32.dll
 0002:00010a3c       __IMPORT_DESCRIPTOR_SHELL32 100b4a3c     shell32:SHELL32.dll
 0002:00010a50       __IMPORT_DESCRIPTOR_LuaLibDll 100b4a50     lualibdll:LuaLibDll.dll
 0002:00010a64       __IMPORT_DESCRIPTOR_WS2_32 100b4a64     Ws2_32:WS2_32.dll
 0002:00010a78       __IMPORT_DESCRIPTOR_Engine 100b4a78     engine:Engine.dll
 0002:00010a8c       __IMPORT_DESCRIPTOR_USER32 100b4a8c     user32:USER32.dll
 0002:00010aa0       __NULL_IMPORT_DESCRIPTOR   100b4aa0     kernel32:KERNEL32.dll
 0003:00000000       ___xc_a                    100b8000     LIBCMT:crt0init.obj
 0003:00000118       ___xc_z                    100b8118     LIBCMT:crt0init.obj
 0003:0000011c       ___xi_a                    100b811c     LIBCMT:crt0init.obj
 0003:00000130       ___xi_z                    100b8130     LIBCMT:crt0init.obj
 0003:00000134       ___xp_a                    100b8134     LIBCMT:crt0init.obj
 0003:0000013c       ___xp_z                    100b813c     LIBCMT:crt0init.obj
 0003:00000140       ___xt_a                    100b8140     LIBCMT:crt0init.obj
 0003:00000148       ___xt_z                    100b8148     LIBCMT:crt0init.obj
 0003:00000400       ?g_CollisionMatrix@@3PAUTCollisionMatrix@@A 100b8400     KMissle.obj
 0003:00001154       ??_C@_0DK@HBDG@Param2PCoordinate?5error?5nParam1?5@ 100b9154     KSkills.obj
 0003:000023d8       ?GUID_ATLVer30@ATL@@3U_GUID@@A 100ba3d8     KPlayerChat.obj
 0003:00002c10       ?TABFILE_EQUIPMENT@@3PAPADA 100bac10     KBasPropTbl.obj
 0003:00002fcc       ?g_nEquipPower@@3PAHA      100bafcc     KItemList.obj
 0003:00003010       ?ms_ActiveEquip@KItemList@@0PAY01HA 100bb010     KItemList.obj
 0003:00003098       ?ms_ActivedEquip@KItemList@@0PAY01HA 100bb098     KItemList.obj
 0003:000034cc       ?g_szObjKind@@3PAY0CA@DA   100bb4cc     KObjSet.obj
 0003:0000364c       ?g_dwObjKindNum@@3PAKA     100bb64c     KObjSet.obj
 0003:000036d4       ?g_ExpRate@@3HA            100bb6d4     KCore.obj
 0003:000036d8       ?g_MoneyRate@@3HA          100bb6d8     KCore.obj
 0003:000036dc       ?g_SkillExpRate@@3HA       100bb6dc     KCore.obj
 0003:000036e0       ?g_Skill120ExpRate@@3HA    100bb6e0     KCore.obj
 0003:0000416c       ?g_nSinBuffer@@3PAHA       100bc16c     KMath.obj
 0003:0000426c       ?g_nCosBuffer@@3PAHA       100bc26c     KMath.obj
 0003:0000436c       ?g_InternalDirSinCosCodeBuffer@@3PAEA 100bc36c     KMath.obj
 0003:00004390       ?g_InternalIsAccrueConquerCodeBuffer@@3PAEA 100bc390     KMath.obj
 0003:000043bc       ?g_nSin@@3PAHA             100bc3bc     KMath.obj
 0003:000043c0       ?g_nCos@@3PAHA             100bc3c0     KMath.obj
 0003:000043c4       ?g_InternalDirSinCosCode@@3PAEA 100bc3c4     KMath.obj
 0003:000043c8       ?g_InternalIsAccrueConquerCode@@3PAEA 100bc3c8     KMath.obj
 0003:000043cc       ?g_nProtocolSize@@3PAHA    100bc3cc     KProtocol.obj
 0003:000047f8       ?GameScriptFuns@@3PAUTLua_Funcs@@A 100bc7f8     ScriptFuns.obj
 0003:00005680       ?WorldScriptFuns@@3PAUTLua_Funcs@@A 100bd680     ScriptFuns.obj
 0003:00007200       ??_C@_07JBDM@C?$KLng?5b?h?$AA@ 100bf200     ScriptFuns.obj
 0003:00007688       ?g_WayPointPriceUnit@@3HA  100bf688     KTaskFuns.obj
 0003:0000768c       ?g_StationPriceUnit@@3HA   100bf68c     KTaskFuns.obj
 0003:00007690       ?g_DockPriceUnit@@3HA      100bf690     KTaskFuns.obj
 0003:00007818       ??_R0?AVCException@Win32@OnlineGameLib@@@8 100bf818     common:Buffer.obj
 0003:00007848       ??_C@_0BD@IKDH@SAFE_DELETE?5error?6?$AA@ 100bf848     common:Buffer.obj
 0003:00007880       ??_R0?AVexception@@@8      100bf880     libcpmt:string.obj
 0003:00007898       ??_R0?AVlogic_error@std@@@8 100bf898     libcpmt:string.obj
 0003:000078b8       ??_R0?AVlength_error@std@@@8 100bf8b8     libcpmt:string.obj
 0003:000078d8       ??_R0?AVout_of_range@std@@@8 100bf8d8     libcpmt:string.obj
 0003:00007900       __fltused                  100bf900     LIBCMT:fpinit.obj
 0003:00007904       __ldused                   100bf904     LIBCMT:fpinit.obj
 0003:00007908       __FPinit                   100bf908     LIBCMT:fpinit.obj
 0003:0000790c       __FPmtinit                 100bf90c     LIBCMT:fpinit.obj
 0003:00007910       __FPmtterm                 100bf910     LIBCMT:fpinit.obj
 0003:00007914       __NLG_Destination          100bf914     LIBCMT:exsup.obj
 0003:00007940       ___lc_time_curr            100bf940     LIBCMT:strftime.obj
 0003:00007948       ___lc_time_c               100bf948     LIBCMT:strftime.obj
 0003:000079f4       __aexit_rtn                100bf9f4     LIBCMT:dllcrt0.obj
 0003:000079f8       ??_R0?AVtype_info@@@8      100bf9f8     LIBCMT:typinfo.obj
 0003:00007a10       ?__pMyUnhandledExceptionFilter@@3PAXA 100bfa10     LIBCMT:throw.obj
 0003:00007a14       ___nullstring              100bfa14     LIBCMT:output.obj
 0003:00007a18       ___wnullstring             100bfa18     LIBCMT:output.obj
 0003:00007a1c       __cfltcvt_tab              100bfa1c     LIBCMT:cmiscdat.obj
 0003:00007a40       ___tlsindex                100bfa40     LIBCMT:tidtable.obj
 0003:00007a44       ?__pInconsistency@@3P6AXXZA 100bfa44     LIBCMT:hooks.obj
 0003:00007a48       __iob                      100bfa48     LIBCMT:_file.obj
 0003:00007cd0       __indefinite               100bfcd0     LIBCMT:87disp.obj
 0003:00007cda       __piby2                    100bfcda     LIBCMT:87disp.obj
 0003:00007d00       __pctype                   100bfd00     LIBCMT:ctype.obj
 0003:00007d04       __pwctype                  100bfd04     LIBCMT:ctype.obj
 0003:00007d08       __ctype                    100bfd08     LIBCMT:ctype.obj
 0003:00007f0c       ___mb_cur_max              100bff0c     LIBCMT:nlsdata1.obj
 0003:00007f10       ___decimal_point           100bff10     LIBCMT:nlsdata1.obj
 0003:00007f14       ___decimal_point_length    100bff14     LIBCMT:nlsdata1.obj
 0003:00007f20       __timezone                 100bff20     LIBCMT:timeset.obj
 0003:00007f24       __daylight                 100bff24     LIBCMT:timeset.obj
 0003:00007f28       __dstbias                  100bff28     LIBCMT:timeset.obj
 0003:00007fac       __tzname                   100bffac     LIBCMT:timeset.obj
 0003:00007fd4       __locktable                100bffd4     LIBCMT:mlock.obj
 0003:000081a0       ___lc_category             100c01a0     LIBCMT:setlocal.obj
 0003:00008358       ___badioinfo               100c0358     LIBCMT:ioinit.obj
 0003:0000837c       __amblksiz                 100c037c     LIBCMT:heapinit.obj
 0003:00008410       ___sbh_threshold           100c0410     LIBCMT:sbheap.obj
 0003:00008450       __XcptActTab               100c0450     LIBCMT:winxfltr.obj
 0003:000084c8       __First_FPE_Indx           100c04c8     LIBCMT:winxfltr.obj
 0003:000084cc       __Num_FPE                  100c04cc     LIBCMT:winxfltr.obj
 0003:000084d0       __XcptActTabSize           100c04d0     LIBCMT:winxfltr.obj
 0003:000084d4       __XcptActTabCount          100c04d4     LIBCMT:winxfltr.obj
 0003:000084d8       __lpdays                   100c04d8     LIBCMT:days.obj
 0003:0000850c       __days                     100c050c     LIBCMT:days.obj
 0003:00008540       ___rgLocInfo               100c0540     LIBCMT:getqloc.obj
 0003:000089e4       ___rglangidNotDefault      100c09e4     LIBCMT:getqloc.obj
 0003:000089f8       ___rg_country              100c09f8     LIBCMT:getqloc.obj
 0003:00008ab0       ___rg_language             100c0ab0     LIBCMT:getqloc.obj
 0003:00008e88       __matherr_flag             100c0e88     LIBCMT:matherr.obj
 0003:00008ea8       ___lconv_static_decimal    100c0ea8     LIBCMT:lconv.obj
 0003:00008eb0       ___lconv_c                 100c0eb0     LIBCMT:lconv.obj
 0003:00008ee0       ___lconv                   100c0ee0     LIBCMT:lconv.obj
 0003:00008ef0       __d_inf                    100c0ef0     LIBCMT:util.obj
 0003:00008ef8       __d_ind                    100c0ef8     LIBCMT:util.obj
 0003:00008f00       __d_max                    100c0f00     LIBCMT:util.obj
 0003:00008f08       __d_min                    100c0f08     LIBCMT:util.obj
 0003:00008f10       __d_mzero                  100c0f10     LIBCMT:util.obj
 0003:00008f18       __pow10pos                 100c0f18     LIBCMT:constpow.obj
 0003:00009078       __pow10neg                 100c1078     LIBCMT:constpow.obj
 0003:000091e0       ?Missle@@3PAVKMissle@@A    100c11e0     KMissle.obj
 0003:007e4d60       ?g_MisslesLib@@3PAVKMissle@@A 1089cd60     KMissle.obj
 0003:00812198       ?g_nRandMissleTab@@3PAHA   108ca198     KMissle.obj
 0003:00812330       ?MissleSet@@3VKMissleSet@@A 108ca330     KMissleSet.obj
 0003:00812348       ?g_SkillManager@@3VKSkillManager@@A 108ca348     KSkillManager.obj
 0003:0095e3c8       ?g_ulSkillCount@@3KA       10a163c8     KSkillManager.obj
 0003:0095e3e0       ?g_Faction@@3VKFaction@@A  10a163e0     KFaction.obj
 0003:0095e9f0       ?GameData@@3VKGameData@@A  10a169f0     KGameData.obj
 0003:00977a08       ?g_pNpcTemplate@@3PAPAVKNpcTemplate@@A 10a2fa08     KNpc.obj
 0003:00979c68       ?Npc@@3PAVKNpc@@A          10a31c68     KNpc.obj
 0003:10a5f670       ?NpcAI@@3VKNpcAI@@A        20b17670     KNpcAI.obj
 0003:10a5f678       ?g_NpcAttribModify@@3VKNpcAttribModify@@A 20b17678     KNpcAttribModify.obj
 0003:10a5fb38       ?NpcSet@@3VKNpcSet@@A      20b17b38     KNpcSet.obj
 0003:10a60720       ?Player@@3PAVKPlayer@@A    20b18720     KPlayer.obj
 0003:17c0eca8       ?ATL_CREATE_OBJECT@CComApartment@ATL@@2IA 27cc6ca8     KPlayerChat.obj
 0003:17c0ecb0       ?m_libid@CComModule@ATL@@2U_GUID@@A 27cc6cb0     KPlayerChat.obj
 0003:17c0ecc0       ?_pModule@ATL@@3PAVCComModule@1@A 27cc6cc0     KPlayerChat.obj
 0003:17c0ecc8       ?g_ChatRoomSet@@3VKChatRoomSet@@A 27cc6cc8     KPlayerChatRoom.obj
 0003:17c0ecd0       ?g_ChatRoom@@3PAVKChatRoom@@A 27cc6cd0     KPlayerChatRoom.obj
 0003:17c14f40       ?g_DBMsgList@@3VKList@@A   27cccf40     KPlayerDBFuns.obj
 0003:17c14f60       ?PlayerSet@@3VKPlayerSet@@A 27cccf60     KPlayerSet.obj
 0003:17c177d0       ?g_DockPriceTabFile@@3VKTabFile@@A 27ccf7d0     KPlayerTask.obj
 0003:17c177f0       ?g_WayPointPriceTabFile@@3VKTabFile@@A 27ccf7f0     KPlayerTask.obj
 0003:17c17810       ?g_StationPriceTabFile@@3VKTabFile@@A 27ccf810     KPlayerTask.obj
 0003:17c17830       ?g_DockTabFile@@3VKTabFile@@A 27ccf830     KPlayerTask.obj
 0003:17c17850       ?g_StationTabFile@@3VKTabFile@@A 27ccf850     KPlayerTask.obj
 0003:17c17870       ?g_WayPointTabFile@@3VKTabFile@@A 27ccf870     KPlayerTask.obj
 0003:17c1788c       ?g_TaskGlobalValue@@3PAHA  27ccf88c     KPlayerTask.obj
 0003:17c1c6ac       ?g_pStationPriceTab@@3PAHA 27cd46ac     KPlayerTask.obj
 0003:17c1c6b0       ?g_pWayPointPriceTab@@3PAHA 27cd46b0     KPlayerTask.obj
 0003:17c1c6b4       ?g_pDockPriceTab@@3PAHA    27cd46b4     KPlayerTask.obj
 0003:17c1c6c0       ?g_TeamSet@@3VKTeamSet@@A  27cd46c0     KPlayerTeam.obj
 0003:17c1c6c8       ?g_Team@@3PAVKTeam@@A      27cd46c8     KPlayerTeam.obj
 0003:17c2ba88       ?TongData@@3VKTongData@@A  27ce3a88     KTongData.obj
 0003:17c2fe70       ?BuySell@@3VKBuySell@@A    27ce7e70     KBuySell.obj
 0003:17c2fe88       ?Item@@3PAVKItem@@A        27ce7e88     KItem.obj
 0003:1f641e88       ?g_ItemChangeRes@@3VKItemChangeRes@@A 2f6f9e88     KItemChangeRes.obj
 0003:1f641f68       ?ItemGen@@3VKItemGenerator@@A 2f6f9f68     KItemGenerator.obj
 0003:1f648008       ?ItemSet@@3VKItemSet@@A    2f700008     KItemSet.obj
 0003:1f648708       ?Object@@3PAVKObj@@A       2f700708     KObj.obj
 0003:1fc28588       ?ObjSet@@3VKObjSet@@A      2fce0588     KObjSet.obj
 0003:1fc285e0       ?g_WorldScript@@3VKLuaScript@@A 2fce05e0     KCore.obj
 0003:1fc28658       ?g_MapTraffic@@3VKIniFile@@A 2fce0658     KCore.obj
 0003:1fc286b0       ?g_GameSetting@@3VKIniFile@@A 2fce06b0     KCore.obj
 0003:1fc28708       ?g_MaskChangeRes@@3VKTabFile@@A 2fce0708     KCore.obj
 0003:1fc28724       ?g_nHandSkill@@3HA         2fce0724     KCore.obj
 0003:1fc28728       ?g_nRangeWeaponSkill@@3PAHA 2fce0728     KCore.obj
 0003:1fc288b8       ?g_nMeleeWeaponSkill@@3PAHA 2fce08b8     KCore.obj
 0003:1fc28a48       ?g_NpcSetting@@3VKTabFile@@A 2fce0a48     KCore.obj
 0003:1fc28a68       ?g_SkillLevelSetting@@3VKTabFile@@A 2fce0a68     KCore.obj
 0003:1fc28a88       ?g_MisslesSetting@@3VKTabFile@@A 2fce0a88     KCore.obj
 0003:1fc28aa8       ?g_OrdinSkillsSetting@@3VKTabFile@@A 2fce0aa8     KCore.obj
 0003:1fc28ac4       ?g_pTongClient@@3PAUIClient@@A 2fce0ac4     KCore.obj
 0003:1fc28ac8       ?g_pServer@@3PAUIServer@@A 2fce0ac8     KCore.obj
 0003:1fc28acc       ?g_pStartScript@@3PAVKLuaScript@@A 2fce0acc     KCore.obj
 0003:1fc28ad0       ?g_GlobalMissionArray@@3V?$KMissionArray@VKMission@@$09@@A 2fce0ad0     KSubWorld.obj
 0003:2046a308       ?SubWorld@@3PAVKSubWorld@@A 30522308     KSubWorld.obj
 0003:2a98ec18       ?nActiveRegionCount@@3HA   3aa46c18     KSubWorldSet.obj
 0003:2a98ec20       ?g_SubWorldSet@@3VKSubWorldSet@@A 3aa46c20     KSubWorldSet.obj
 0003:2a98ec64       ?g_nConquerSeries@@3PAHA   3aa46c64     KMath.obj
 0003:2a98ec78       ?g_nAccrueSeries@@3PAHA    3aa46c78     KMath.obj
 0003:2a98ec90       ?g_NewProtocolProcess@@3VKNewProtocolProcess@@A 3aa46c90     KNewProtocolProcess.obj
 0003:2a98ecf8       ?_Nil@?$_Tree@GU?$pair@$$CBGP6AXPAUIClient@@KKHPAEH@Z@std@@U_Kfn@?$map@GP6AXPAUIClient@@KKHPAEH@ZU?$less@G@std@@V?$allocator@P6AXPAUIClient@@KKHPAEH@Z@3@@2@U?$less@G@2@V?$allocator@P6AXPAUIClient@@KKHPAEH@Z@2@@std@@1PAU_Node@12@A 3aa46cf8     KNewProtocolProcess.obj
 0003:2a98ecfc       ?_Nilrefs@?$_Tree@GU?$pair@$$CBGP6AXPAUIClient@@KKHPAEH@Z@std@@U_Kfn@?$map@GP6AXPAUIClient@@KKHPAEH@ZU?$less@G@std@@V?$allocator@P6AXPAUIClient@@KKHPAEH@Z@3@@2@U?$less@G@2@V?$allocator@P6AXPAUIClient@@KKHPAEH@Z@2@@std@@1IA 3aa46cfc     KNewProtocolProcess.obj
 0003:2a98ed00       ?g_ProtocolProcess@@3VKProtocolProcess@@A 3aa46d00     KProtocolProcess.obj
 0003:2a98f0f8       ?g_MagicScriptTab@@3VKTabFile@@A 3aa470f8     ScriptFuns.obj
 0003:2a98f118       ?g_TownPortalTab@@3VKTabFile@@A 3aa47118     ScriptFuns.obj
 0003:2a98f138       ?g_QuestItemTab@@3VKTabFile@@A 3aa47138     ScriptFuns.obj
 0003:2a98f158       ?g_EventItemTab@@3VKTabFile@@A 3aa47158     ScriptFuns.obj
 0003:2a98f178       ?g_StoryScriptList@@3VKScriptList@@A 3aa47178     ScriptFuns.obj
 0003:2a98f1c4       ??_C@_00A@?$AA@            3aa471c4     ScriptFuns.obj
 0003:2a98f1c8       ?g_ScriptValueSet@@3VKScriptValueSet@@A 3aa471c8     KScriptValueSet.obj
 0003:2a98f210       ?g_szCurScriptDir@@3PADA   3aa47210     KSortScript.obj
 0003:2a98f314       ?nCurrentScriptNum@@3IA    3aa47314     KSortScript.obj
 0003:2a98f318       ?g_ScriptBinTree@@3V?$BinSTree@VKSortScriptNode@@@@A 3aa47318     KSortScript.obj
 0003:2a98f328       ?g_ScriptSet@@3PAVKLuaScript@@A 3aa47328     KSortScript.obj
 0003:2aaaa680       ?g_MagicDesc@@3VKMagicDesc@@A 3ab62680     KMagicDesc.obj
 0003:2aaaa7e0       ?g_TimerTask@@3VKTimerTaskFun@@A 3ab627e0     KTaskFuns.obj
 0003:2aaaa800       ?Ladder@@3VKLadder@@A      3ab62800     KLadder.obj
 0003:2aaacbb8       ?_Nil@?$_Tree@EU?$pair@$$CBEPAVCBuffer@Win32@OnlineGameLib@@@std@@U_Kfn@?$map@EPAVCBuffer@Win32@OnlineGameLib@@U?$less@E@std@@V?$allocator@PAVCBuffer@Win32@OnlineGameLib@@@5@@2@U?$less@E@2@V?$allocator@PAVCBuffer@Win32@OnlineGameLib@@@2@@std@@1PAU_Node@12@A 3ab64bb8     common:Buffer.obj
 0003:2aaacbbc       ?_Nilrefs@?$_Tree@EU?$pair@$$CBEPAVCBuffer@Win32@OnlineGameLib@@@std@@U_Kfn@?$map@EPAVCBuffer@Win32@OnlineGameLib@@U?$less@E@std@@V?$allocator@PAVCBuffer@Win32@OnlineGameLib@@@5@@2@U?$less@E@2@V?$allocator@PAVCBuffer@Win32@OnlineGameLib@@@2@@std@@1IA 3ab64bbc     common:Buffer.obj
 0003:2aaacbdc       ___fastflag                3ab64bdc     LIBCMT:fpinit.obj
 0003:2aaacbe0       __adjust_fdiv              3ab64be0     LIBCMT:fpinit.obj
 0003:2aaacc04       __aenvptr                  3ab64c04     LIBCMT:dllcrt0.obj
 0003:2aaacc08       __wenvptr                  3ab64c08     LIBCMT:dllcrt0.obj
 0003:2aaacc0c       ___error_mode              3ab64c0c     LIBCMT:dllcrt0.obj
 0003:2aaacc10       ___app_type                3ab64c10     LIBCMT:dllcrt0.obj
 0003:2aaacc14       __umaskval                 3ab64c14     LIBCMT:crt0dat.obj
 0003:2aaacc18       __osver                    3ab64c18     LIBCMT:crt0dat.obj
 0003:2aaacc1c       __winver                   3ab64c1c     LIBCMT:crt0dat.obj
 0003:2aaacc20       __winmajor                 3ab64c20     LIBCMT:crt0dat.obj
 0003:2aaacc24       __winminor                 3ab64c24     LIBCMT:crt0dat.obj
 0003:2aaacc28       ___argc                    3ab64c28     LIBCMT:crt0dat.obj
 0003:2aaacc2c       ___argv                    3ab64c2c     LIBCMT:crt0dat.obj
 0003:2aaacc30       ___wargv                   3ab64c30     LIBCMT:crt0dat.obj
 0003:2aaacc34       __environ                  3ab64c34     LIBCMT:crt0dat.obj
 0003:2aaacc38       ___initenv                 3ab64c38     LIBCMT:crt0dat.obj
 0003:2aaacc3c       __wenviron                 3ab64c3c     LIBCMT:crt0dat.obj
 0003:2aaacc40       ___winitenv                3ab64c40     LIBCMT:crt0dat.obj
 0003:2aaacc44       __pgmptr                   3ab64c44     LIBCMT:crt0dat.obj
 0003:2aaacc48       __wpgmptr                  3ab64c48     LIBCMT:crt0dat.obj
 0003:2aaacc4c       __exitflag                 3ab64c4c     LIBCMT:crt0dat.obj
 0003:2aaacc50       __C_Termination_Done       3ab64c50     LIBCMT:crt0dat.obj
 0003:2aaacc54       __C_Exit_Done              3ab64c54     LIBCMT:crt0dat.obj
 0003:2aaacc58       __cflush                   3ab64c58     LIBCMT:_file.obj
 0003:2aaacc5c       __stdbuf                   3ab64c5c     LIBCMT:_sftbuf.obj
 0003:2aaacdd8       ___lc_handle               3ab64dd8     LIBCMT:nlsdata2.obj
 0003:2aaacdf0       ___lc_codepage             3ab64df0     LIBCMT:nlsdata2.obj
 0003:2aaacdf4       ___lc_collate_cp           3ab64df4     LIBCMT:nlsdata2.obj
 0003:2aaacf00       __adbgmsg                  3ab64f00     LIBCMT:crt0msg.obj
 0003:2aaacf08       ?_pnhHeap@@3P6AHI@ZA       3ab64f08     LIBCMT:handler.obj
 0003:2aaacf0c       __newmode                  3ab64f0c     LIBCMT:_newmode.obj
 0003:2aaacf14       ___lc_time_intl            3ab64f14     LIBCMT:inittime.obj
 0003:2aaacf30       ___lc_id                   3ab64f30     LIBCMT:nlsdata3.obj
 0003:2aaacfa4       ___lconv_static_null       3ab64fa4     LIBCMT:lconv.obj
 0003:2aaacfb8       ___@@_PchSym_@00@UhdliwDUhixRgrmsRprvnUAAOhixRgrmsRprvnUhdliwlmormvUhlfixvhUxlivUhvieviivovzhvUhgwzucOlyq@ 3ab64fb8     <common>
 0003:2aaacfbc       ??_B?1???id@?$ctype@G@std@@$D@@9@51 3ab64fbc     <common>
 0003:2aaacfbd       ??_B?1???id@?$collate@D@std@@$D@@9@51 3ab64fbd     <common>
 0003:2aaacfc0       ___mbcodepage              3ab64fc0     <common>
 0003:2aaacfd0       ___mbulinfo                3ab64fd0     <common>
 0003:2aaacfdc       ___ismbcodepage            3ab64fdc     <common>
 0003:2aaacfe0       __mbcasemap                3ab64fe0     <common>
 0003:2aaad0e0       __mbctype                  3ab650e0     <common>
 0003:2aaad1e4       ___mblcid                  3ab651e4     <common>
 0003:2aaad1e8       ___sbh_sizeHeaderList      3ab651e8     <common>
 0003:2aaad1ec       ___sbh_indGroupDefer       3ab651ec     <common>
 0003:2aaad1f0       ___sbh_pHeaderScan         3ab651f0     <common>
 0003:2aaad1f4       ___sbh_pHeaderDefer        3ab651f4     <common>
 0003:2aaad1f8       ___sbh_cntHeaderList       3ab651f8     <common>
 0003:2aaad1fc       ___sbh_pHeaderList         3ab651fc     <common>
 0003:2aaad200       __crtheap                  3ab65200     <common>
 0003:2aaad220       ___pioinfo                 3ab65220     <common>
 0003:2aaad320       __nhandle                  3ab65320     <common>
 0003:2aaad324       ___setlc_active            3ab65324     <common>
 0003:2aaad328       ___unguarded_readlc_active 3ab65328     <common>
 0003:2aaad32c       ___piob                    3ab6532c     <common>
 0003:2aaad340       __bufin                    3ab65340     <common>
 0003:2aaae340       __nstream                  3ab66340     <common>
 0003:2aaae344       ___env_initialized         3ab66344     <common>
 0003:2aaae348       ___mbctype_initialized     3ab66348     <common>
 0003:2aaae34c       ___onexitend               3ab6634c     <common>
 0003:2aaae350       ___onexitbegin             3ab66350     <common>
 0003:2aaae354       __acmdln                   3ab66354     <common>
 0003:2aaae358       __pRawDllMain              3ab66358     <common>
 0003:2aaae35c       ___alternate_form          3ab6635c     <common>
 0003:2aaae360       ___no_lead_zeros           3ab66360     <common>

 entry point at        0001:00094cb3

 Static symbols

 0001:0008d8f0       _$E5                       1008e8f0 f   KLadder.obj
 0001:0008d8ff       _$E2                       1008e8ff f   KLadder.obj
 0001:0008d90e       _$E4                       1008e90e f   KLadder.obj
 0001:0008d920       _$E3                       1008e920 f   KLadder.obj
 0001:0008d877       _$E5                       1008e877 f   KTaskFuns.obj
 0001:0008d881       _$E4                       1008e881 f   KTaskFuns.obj
 0001:0008b440       _$E5                       1008c440 f   KMagicDesc.obj
 0001:0008b44f       _$E2                       1008c44f f   KMagicDesc.obj
 0001:0008b45e       _$E4                       1008c45e f   KMagicDesc.obj
 0001:0008b470       _$E3                       1008c470 f   KMagicDesc.obj
 0001:00088430       _$E23                      10089430 f   CoreServerShell.obj
 0001:0008843a       _$E22                      1008943a f   CoreServerShell.obj
 0001:0008b3ed       _$E30                      1008c3ed f   CoreServerShell.obj
 0001:0008b3fc       _$E29                      1008c3fc f   CoreServerShell.obj
 0001:00087870       _$E5                       10088870 f   KSortScript.obj
 0001:0008787f       _$E2                       1008887f f   KSortScript.obj
 0001:000878a2       _$E4                       100888a2 f   KSortScript.obj
 0001:000878b4       _$E3                       100888b4 f   KSortScript.obj
 0001:000878d0       _$E10                      100888d0 f   KSortScript.obj
 0001:000878df       _$E7                       100888df f   KSortScript.obj
 0001:000878ee       _$E9                       100888ee f   KSortScript.obj
 0001:00087900       _$E8                       10088900 f   KSortScript.obj
 0001:0008797d       ?LoadAllScript@@YAKPAD@Z   1008897d f   KSortScript.obj
 0001:00087c7c       ?LoadScriptToSortList@@YAHPAD@Z 10088c7c f   KSortScript.obj
 0001:00087d75       ?LoadScriptToSortListA@@YAHPAD@Z 10088d75 f   KSortScript.obj
 0001:00087010       _$E5                       10088010 f   KScriptValueSet.obj
 0001:0008701f       _$E2                       1008801f f   KScriptValueSet.obj
 0001:0008702e       _$E4                       1008802e f   KScriptValueSet.obj
 0001:00087040       _$E3                       10088040 f   KScriptValueSet.obj
 0001:0006dab0       _$E25                      1006eab0 f   ScriptFuns.obj
 0001:0006dabf       _$E22                      1006eabf f   ScriptFuns.obj
 0001:0006dacf       _$E24                      1006eacf f   ScriptFuns.obj
 0001:0006dae1       _$E23                      1006eae1 f   ScriptFuns.obj
 0001:00072288       _$E30                      10073288 f   ScriptFuns.obj
 0001:00072297       _$E27                      10073297 f   ScriptFuns.obj
 0001:000722a7       _$E29                      100732a7 f   ScriptFuns.obj
 0001:000722b9       _$E28                      100732b9 f   ScriptFuns.obj
 0001:000722c9       _$E35                      100732c9 f   ScriptFuns.obj
 0001:000722d8       _$E32                      100732d8 f   ScriptFuns.obj
 0001:000722e8       _$E34                      100732e8 f   ScriptFuns.obj
 0001:000722fa       _$E33                      100732fa f   ScriptFuns.obj
 0001:0007230a       _$E40                      1007330a f   ScriptFuns.obj
 0001:00072319       _$E37                      10073319 f   ScriptFuns.obj
 0001:00072329       _$E39                      10073329 f   ScriptFuns.obj
 0001:0007233b       _$E38                      1007333b f   ScriptFuns.obj
 0001:0007234b       _$E45                      1007334b f   ScriptFuns.obj
 0001:0007235a       _$E42                      1007335a f   ScriptFuns.obj
 0001:0007236a       _$E44                      1007336a f   ScriptFuns.obj
 0001:0007237c       _$E43                      1007337c f   ScriptFuns.obj
 0001:00085b99       _$E52                      10086b99 f   ScriptFuns.obj
 0001:00085ba8       _$E51                      10086ba8 f   ScriptFuns.obj
 0001:0006b700       _$E7                       1006c700 f   KProtocolProcess.obj
 0001:0006b70f       _$E4                       1006c70f f   KProtocolProcess.obj
 0001:0006b71e       _$E6                       1006c71e f   KProtocolProcess.obj
 0001:0006b730       _$E5                       1006c730 f   KProtocolProcess.obj
 0001:00068a20       _$E25                      10069a20 f   KNewProtocolProcess.obj
 0001:00068a2f       _$E22                      10069a2f f   KNewProtocolProcess.obj
 0001:00068a3e       _$E24                      10069a3e f   KNewProtocolProcess.obj
 0001:00068a50       _$E23                      10069a50 f   KNewProtocolProcess.obj
 0001:0006918d       _$E32                      1006a18d f   KNewProtocolProcess.obj
 0001:0006919c       _$E31                      1006a19c f   KNewProtocolProcess.obj
 0001:000689f6       _$E27                      100699f6 f   KGMProcess.obj
 0001:00068a05       _$E26                      10069a05 f   KGMProcess.obj
 0001:000657b0       _$E7                       100667b0 f   KSubWorldSet.obj
 0001:000657bf       _$E4                       100667bf f   KSubWorldSet.obj
 0001:000657ce       _$E6                       100667ce f   KSubWorldSet.obj
 0001:000657e0       _$E5                       100667e0 f   KSubWorldSet.obj
 0001:00061ae0       _$E7                       10062ae0 f   KSubWorld.obj
 0001:00061aef       _$E4                       10062aef f   KSubWorld.obj
 0001:00061b0f       _$E6                       10062b0f f   KSubWorld.obj
 0001:00061b21       _$E5                       10062b21 f   KSubWorld.obj
 0001:00061b3c       _$E12                      10062b3c f   KSubWorld.obj
 0001:00061b4b       _$E9                       10062b4b f   KSubWorld.obj
 0001:00061b5a       _$E11                      10062b5a f   KSubWorld.obj
 0001:00061b6c       _$E10                      10062b6c f   KSubWorld.obj
 0001:00060e60       _$E17                      10061e60 f   KCore.obj
 0001:00060e6f       _$E14                      10061e6f f   KCore.obj
 0001:00060e8a       _$E16                      10061e8a f   KCore.obj
 0001:00060e9c       _$E15                      10061e9c f   KCore.obj
 0001:00060eb7       _$E22                      10061eb7 f   KCore.obj
 0001:00060ec6       _$E19                      10061ec6 f   KCore.obj
 0001:00060ed6       _$E21                      10061ed6 f   KCore.obj
 0001:00060ee8       _$E20                      10061ee8 f   KCore.obj
 0001:00060ef8       _$E27                      10061ef8 f   KCore.obj
 0001:00060f07       _$E24                      10061f07 f   KCore.obj
 0001:00060f17       _$E26                      10061f17 f   KCore.obj
 0001:00060f29       _$E25                      10061f29 f   KCore.obj
 0001:00060f39       _$E32                      10061f39 f   KCore.obj
 0001:00060f48       _$E29                      10061f48 f   KCore.obj
 0001:00060f58       _$E31                      10061f58 f   KCore.obj
 0001:00060f6a       _$E30                      10061f6a f   KCore.obj
 0001:00060f7a       _$E37                      10061f7a f   KCore.obj
 0001:00060f89       _$E34                      10061f89 f   KCore.obj
 0001:00060f99       _$E36                      10061f99 f   KCore.obj
 0001:00060fab       _$E35                      10061fab f   KCore.obj
 0001:00060fbb       _$E42                      10061fbb f   KCore.obj
 0001:00060fca       _$E39                      10061fca f   KCore.obj
 0001:00060fda       _$E41                      10061fda f   KCore.obj
 0001:00060fec       _$E40                      10061fec f   KCore.obj
 0001:00060ffc       _$E47                      10061ffc f   KCore.obj
 0001:0006100b       _$E44                      1006200b f   KCore.obj
 0001:0006101b       _$E46                      1006201b f   KCore.obj
 0001:0006102d       _$E45                      1006202d f   KCore.obj
 0001:00061ab3       _$E54                      10062ab3 f   KCore.obj
 0001:00061ac2       _$E53                      10062ac2 f   KCore.obj
 0001:0005f930       _$E5                       10060930 f   KObjSet.obj
 0001:0005f93f       _$E2                       1006093f f   KObjSet.obj
 0001:0005f94e       _$E4                       1006094e f   KObjSet.obj
 0001:0005f960       _$E3                       10060960 f   KObjSet.obj
 0001:0005e2d0       _$E5                       1005f2d0 f   KObj.obj
 0001:0005e2da       _$E4                       1005f2da f   KObj.obj
 0001:0005d7b0       _$E5                       1005e7b0 f   KItemSet.obj
 0001:0005d7bf       _$E2                       1005e7bf f   KItemSet.obj
 0001:0005d7ce       _$E4                       1005e7ce f   KItemSet.obj
 0001:0005d7e0       _$E3                       1005e7e0 f   KItemSet.obj
 0001:00050cc0       _$E5                       10051cc0 f   KItemGenerator.obj
 0001:00050ccf       _$E2                       10051ccf f   KItemGenerator.obj
 0001:00050cde       _$E4                       10051cde f   KItemGenerator.obj
 0001:00050cf0       _$E3                       10051cf0 f   KItemGenerator.obj
 0001:000506c0       _$E5                       100516c0 f   KItemChangeRes.obj
 0001:000506cf       _$E2                       100516cf f   KItemChangeRes.obj
 0001:000506de       _$E4                       100516de f   KItemChangeRes.obj
 0001:000506f0       _$E3                       100516f0 f   KItemChangeRes.obj
 0001:0004e5f0       _$E17                      1004f5f0 f   KItem.obj
 0001:0004e5ff       _$E14                      1004f5ff f   KItem.obj
 0001:0004e622       _$E16                      1004f622 f   KItem.obj
 0001:0004e634       _$E15                      1004f634 f   KItem.obj
 0001:00050655       _$E24                      10051655 f   KItem.obj
 0001:00050664       _$E23                      10051664 f   KItem.obj
 0001:0004b590       _$E7                       1004c590 f   KBuySell.obj
 0001:0004b59f       _$E4                       1004c59f f   KBuySell.obj
 0001:0004b5ae       _$E6                       1004c5ae f   KBuySell.obj
 0001:0004b5c0       _$E5                       1004c5c0 f   KBuySell.obj
 0001:00046eb0       _$E17                      10047eb0 f   KTongData.obj
 0001:00046eba       _$E16                      10047eba f   KTongData.obj
 0001:000473bd       _$E24                      100483bd f   KTongData.obj
 0001:000473cc       _$E23                      100483cc f   KTongData.obj
 0001:00042360       _$E5                       10043360 f   KPlayerTeam.obj
 0001:0004236a       _$E4                       1004336a f   KPlayerTeam.obj
 0001:00041ea0       _$E7                       10042ea0 f   KPlayerTask.obj
 0001:00041eaf       _$E4                       10042eaf f   KPlayerTask.obj
 0001:00041ebf       _$E6                       10042ebf f   KPlayerTask.obj
 0001:00041ed1       _$E5                       10042ed1 f   KPlayerTask.obj
 0001:00041ee1       _$E12                      10042ee1 f   KPlayerTask.obj
 0001:00041ef0       _$E9                       10042ef0 f   KPlayerTask.obj
 0001:00041f00       _$E11                      10042f00 f   KPlayerTask.obj
 0001:00041f12       _$E10                      10042f12 f   KPlayerTask.obj
 0001:00041f22       _$E17                      10042f22 f   KPlayerTask.obj
 0001:00041f31       _$E14                      10042f31 f   KPlayerTask.obj
 0001:00041f41       _$E16                      10042f41 f   KPlayerTask.obj
 0001:00041f53       _$E15                      10042f53 f   KPlayerTask.obj
 0001:00041f63       _$E22                      10042f63 f   KPlayerTask.obj
 0001:00041f72       _$E19                      10042f72 f   KPlayerTask.obj
 0001:00041f82       _$E21                      10042f82 f   KPlayerTask.obj
 0001:00041f94       _$E20                      10042f94 f   KPlayerTask.obj
 0001:00041fa4       _$E27                      10042fa4 f   KPlayerTask.obj
 0001:00041fb3       _$E24                      10042fb3 f   KPlayerTask.obj
 0001:00041fc3       _$E26                      10042fc3 f   KPlayerTask.obj
 0001:00041fd5       _$E25                      10042fd5 f   KPlayerTask.obj
 0001:00041fe5       _$E32                      10042fe5 f   KPlayerTask.obj
 0001:00041ff4       _$E29                      10042ff4 f   KPlayerTask.obj
 0001:00042004       _$E31                      10043004 f   KPlayerTask.obj
 0001:00042016       _$E30                      10043016 f   KPlayerTask.obj
 0001:0003f9e0       _$E19                      100409e0 f   KPlayerSet.obj
 0001:0003f9ef       _$E16                      100409ef f   KPlayerSet.obj
 0001:0003f9fe       _$E18                      100409fe f   KPlayerSet.obj
 0001:0003fa10       _$E17                      10040a10 f   KPlayerSet.obj
 0001:00041da2       _$E26                      10042da2 f   KPlayerSet.obj
 0001:00041db1       _$E25                      10042db1 f   KPlayerSet.obj
 0001:0003a260       _$E19                      1003b260 f   KPlayerDBFuns.obj
 0001:0003a26f       _$E16                      1003b26f f   KPlayerDBFuns.obj
 0001:0003a27e       _$E18                      1003b27e f   KPlayerDBFuns.obj
 0001:0003a290       _$E17                      1003b290 f   KPlayerDBFuns.obj
 0001:0003c983       _$E26                      1003d983 f   KPlayerDBFuns.obj
 0001:0003c992       _$E25                      1003d992 f   KPlayerDBFuns.obj
 0001:00037050       _$E5                       10038050 f   KPlayerChatRoom.obj
 0001:0003705a       _$E4                       1003805a f   KPlayerChatRoom.obj
 0001:000365b8       _$E27                      100375b8 f   KPlayerChat.obj
 0001:000365c7       _$E26                      100375c7 f   KPlayerChat.obj
 0001:00025080       _$E19                      10026080 f   KPlayer.obj
 0001:0002508f       _$E16                      1002608f f   KPlayer.obj
 0001:000250b2       _$E18                      100260b2 f   KPlayer.obj
 0001:000250c4       _$E17                      100260c4 f   KPlayer.obj
 0001:0003562c       _$E26                      1003662c f   KPlayer.obj
 0001:0003563b       _$E25                      1003663b f   KPlayer.obj
 0001:000229b0       _$E7                       100239b0 f   KNpcSet.obj
 0001:000229bf       _$E4                       100239bf f   KNpcSet.obj
 0001:000229ce       _$E6                       100239ce f   KNpcSet.obj
 0001:000229e0       _$E5                       100239e0 f   KNpcSet.obj
 0001:0001f7a0       _$E7                       100207a0 f   KNpcAttribModify.obj
 0001:0001f7af       _$E4                       100207af f   KNpcAttribModify.obj
 0001:0001f7be       _$E6                       100207be f   KNpcAttribModify.obj
 0001:0001f7d0       _$E5                       100207d0 f   KNpcAttribModify.obj
 0001:0001d350       _$E5                       1001e350 f   KNpcAI.obj
 0001:0001d35a       _$E4                       1001e35a f   KNpcAI.obj
 0001:0000e460       _$E19                      1000f460 f   KNpc.obj
 0001:0000e46f       _$E16                      1000f46f f   KNpc.obj
 0001:0000e492       _$E18                      1000f492 f   KNpc.obj
 0001:0000e4a4       _$E17                      1000f4a4 f   KNpc.obj
 0001:0001cba0       _$E26                      1001dba0 f   KNpc.obj
 0001:0001cbaf       _$E25                      1001dbaf f   KNpc.obj
 0001:0000db30       _$E17                      1000eb30 f   KGameData.obj
 0001:0000db3a       _$E16                      1000eb3a f   KGameData.obj
 0001:0000e3ef       _$E24                      1000f3ef f   KGameData.obj
 0001:0000e3fe       _$E23                      1000f3fe f   KGameData.obj
 0001:00005c50       _$E7                       10006c50 f   KSkillManager.obj
 0001:00005c5f       _$E4                       10006c5f f   KSkillManager.obj
 0001:00005c6e       _$E6                       10006c6e f   KSkillManager.obj
 0001:00005c80       _$E5                       10006c80 f   KSkillManager.obj
 0001:00005acb       _$E21                      10006acb f   KSkillList.obj
 0001:00005ada       _$E20                      10006ada f   KSkillList.obj
 0001:00004370       _$E5                       10005370 f   KMissleSet.obj
 0001:0000437f       _$E2                       1000537f f   KMissleSet.obj
 0001:0000438e       _$E4                       1000538e f   KMissleSet.obj
 0001:000043a0       _$E3                       100053a0 f   KMissleSet.obj
 0001:00000fb0       _$E7                       10001fb0 f   KMissle.obj
 0001:00000fbf       _$E4                       10001fbf f   KMissle.obj
 0001:00000fe2       _$E6                       10001fe2 f   KMissle.obj
 0001:00000ff4       _$E5                       10001ff4 f   KMissle.obj
 0001:00001012       _$E12                      10002012 f   KMissle.obj
 0001:00001021       _$E9                       10002021 f   KMissle.obj
 0001:00001044       _$E11                      10002044 f   KMissle.obj
 0001:00001056       _$E10                      10002056 f   KMissle.obj
 0001:00092108       _$E19                      10093108 f   common:Exception.obj
 0001:00092117       _$E18                      10093117 f   common:Exception.obj
 0001:0008f37b       _$E23                      1009037b f   common:Buffer.obj
 0001:0008f38a       _$E22                      1009038a f   common:Buffer.obj
 0001:00092509       ?_CleanUp@std@@YAXXZ       10093509 f   libcpmt:xlock.obj
 0001:00092448       _$E24                      10093448 f   libcpmt:string.obj
 0001:00092472       _$E20                      10093472 f   libcpmt:string.obj
 0001:0009247e       _$E23                      1009347e f   libcpmt:string.obj
 0001:0009f9bf       _findenv                   100a09bf f   LIBCMT:setenv.obj
 0001:0009fa17       _copy_environ              100a0a17 f   LIBCMT:setenv.obj
 0001:0009f80d       _strncnt                   100a080d f   LIBCMT:a_cmp.obj
 0001:0009edbf       _xtoa                      1009fdbf f   LIBCMT:xtoa.obj
 0001:0009ee91       _x64toa@20                 1009fe91 f   LIBCMT:xtoa.obj
 0001:0009e8f7       __get_fname                1009f8f7 f   LIBCMT:fpexcept.obj
 0001:0009d508       _ctrlevent_capture@4       1009e508 f   LIBCMT:winsig.obj
 0001:0009d6ec       _siglookup                 1009e6ec f   LIBCMT:winsig.obj
 0001:0009cd1e       _getSystemCP               1009dd1e f   LIBCMT:mbctype.obj
 0001:0009cd68       _CPtoLCID                  1009dd68 f   LIBCMT:mbctype.obj
 0001:0009cd9b       _setSBCS                   1009dd9b f   LIBCMT:mbctype.obj
 0001:0009cdc4       _setSBUpLow                1009ddc4 f   LIBCMT:mbctype.obj
 0001:0009c447       _TranslateName             1009d447 f   LIBCMT:getqloc.obj
 0001:0009c49f       _GetLcidFromLangCountry    1009d49f f   LIBCMT:getqloc.obj
 0001:0009c526       _LangCountryEnumProc@4     1009d526 f   LIBCMT:getqloc.obj
 0001:0009c72a       _GetLcidFromLanguage       1009d72a f   LIBCMT:getqloc.obj
 0001:0009c780       _LanguageEnumProc@4        1009d780 f   LIBCMT:getqloc.obj
 0001:0009c83d       _GetLcidFromCountry        1009d83d f   LIBCMT:getqloc.obj
 0001:0009c874       _CountryEnumProc@4         1009d874 f   LIBCMT:getqloc.obj
 0001:0009c8fa       _GetLcidFromDefault        1009d8fa f   LIBCMT:getqloc.obj
 0001:0009c914       _ProcessCodePage           1009d914 f   LIBCMT:getqloc.obj
 0001:0009c97a       _TestDefaultCountry        1009d97a f   LIBCMT:getqloc.obj
 0001:0009c999       _TestDefaultLanguage       1009d999 f   LIBCMT:getqloc.obj
 0001:0009c9fb       _IsThisWindowsNT           1009d9fb f   LIBCMT:getqloc.obj
 0001:0009ca31       _crtGetLocaleInfoA@16      1009da31 f   LIBCMT:getqloc.obj
 0001:0009cb17       _LcidFromHexString         1009db17 f   LIBCMT:getqloc.obj
 0001:0009cb50       _GetPrimaryLen             1009db50 f   LIBCMT:getqloc.obj
 0001:0009be1f       __get_lc_lconv             1009ce1f f   LIBCMT:initmon.obj
 0001:0009bf41       _fix_grouping              1009cf41 f   LIBCMT:initmon.obj
 0001:0009bf78       __free_lc_lconv            1009cf78 f   LIBCMT:initmon.obj
 0001:0009bd1d       _fix_grouping              1009cd1d f   LIBCMT:initnum.obj
 0001:0009b66a       __get_lc_time              1009c66a f   LIBCMT:inittime.obj
 0001:0009b9b8       __free_lc_time             1009c9b8 f   LIBCMT:inittime.obj
 0001:0009b27e       _flsall                    1009c27e f   LIBCMT:fflush.obj
 0001:0009b0a5       _xcptlookup                1009c0a5 f   LIBCMT:winxfltr.obj
 0001:0009a5d2       __abstract_cw              1009b5d2 f   LIBCMT:ieee87.obj
 0001:0009a664       __hw_cw                    1009b664 f   LIBCMT:ieee87.obj
 0001:0009a6ed       __abstract_sw              1009b6ed f   LIBCMT:ieee87.obj
 0001:00098b36       _parse_cmdline             10099b36 f   LIBCMT:stdargv.obj
 0001:000987a9       _strncnt                   100997a9 f   LIBCMT:a_map.obj
 0001:00097ff9       __setlocale_set_cat        10098ff9 f   LIBCMT:setlocal.obj
 0001:00098114       __setlocale_get_all        10099114 f   LIBCMT:setlocal.obj
 0001:00097c68       _store_dt                  10098c68 f   LIBCMT:asctime.obj
 0001:00097500       __tzset_lk                 10098500 f   LIBCMT:tzset.obj
 0001:000977a8       __isindst_lk               100987a8 f   LIBCMT:tzset.obj
 0001:00097954       _cvtdate                   10098954 f   LIBCMT:tzset.obj
 0001:00096a75       _doexit                    10097a75 f   LIBCMT:crt0dat.obj
 0001:00096b2c       __initterm                 10097b2c f   LIBCMT:crt0dat.obj
 0001:00095e27       ?FindHandler@@YAXPAUEHExceptionRecord@@PAUEHRegistrationNode@@PAU_CONTEXT@@PAXPBU_s_FuncInfo@@EH1@Z 10096e27 f   LIBCMT:frame.obj
 0001:00095fda       ?FindHandlerForForeignException@@YAXPAUEHExceptionRecord@@PAUEHRegistrationNode@@PAU_CONTEXT@@PAXPBU_s_FuncInfo@@HH1@Z 10096fda f   LIBCMT:frame.obj
 0001:00096084       ?TypeMatch@@YAHPBU_s_HandlerType@@PBU_s_CatchableType@@PBU_s_ThrowInfo@@@Z 10097084 f   LIBCMT:frame.obj
 0001:0009617f       ?FrameUnwindFilter@@YAHPAU_EXCEPTION_POINTERS@@@Z 1009717f f   LIBCMT:frame.obj
 0001:00096195       ?CatchIt@@YAXPAUEHExceptionRecord@@PAUEHRegistrationNode@@PAU_CONTEXT@@PAXPBU_s_FuncInfo@@PBU_s_HandlerType@@PBU_s_CatchableType@@PBU_s_TryBlockMapEntry@@H1E@Z 10097195 f   LIBCMT:frame.obj
 0001:00096210       ?CallCatchBlock@@YAPAXPAUEHExceptionRecord@@PAUEHRegistrationNode@@PAU_CONTEXT@@PBU_s_FuncInfo@@PAXHK@Z 10097210 f   LIBCMT:frame.obj
 0001:0009632b       ?ExFilterRethrow@@YAHPAU_EXCEPTION_POINTERS@@@Z 1009732b f   LIBCMT:frame.obj
 0001:00096355       ?BuildCatchObject@@YAXPAUEHExceptionRecord@@PAUEHRegistrationNode@@PBU_s_HandlerType@@PBU_s_CatchableType@@@Z 10097355 f   LIBCMT:frame.obj
 0001:00096580       ?AdjustPointer@@YAPAXPAXABUPMD@@@Z 10097580 f   LIBCMT:frame.obj
 0001:00095ac5       __cftoe2                   10096ac5 f   LIBCMT:cvt.obj
 0001:00095bdc       __cftof2                   10096bdc f   LIBCMT:cvt.obj
 0001:00095d67       __shift                    10096d67 f   LIBCMT:cvt.obj
 0001:00095824       _write_char                10096824 f   LIBCMT:output.obj
 0001:00095859       _write_multi_char          10096859 f   LIBCMT:output.obj
 0001:0009588a       _write_string              1009688a f   LIBCMT:output.obj
 0001:000958c2       _get_int_arg               100968c2 f   LIBCMT:output.obj
 0001:000958cf       _get_int64_arg             100968cf f   LIBCMT:output.obj
 0001:000958df       _get_short_arg             100968df f   LIBCMT:output.obj
 0001:000940f0       __expandtime               100950f0 f   LIBCMT:strftime.obj
 0001:000944df       __store_str                100954df f   LIBCMT:strftime.obj
 0001:00094506       __store_num                10095506 f   LIBCMT:strftime.obj
 0001:00094575       __store_number             10095575 f   LIBCMT:strftime.obj
 0001:000945be       __store_winword            100955be f   LIBCMT:strftime.obj
 0001:00093790       LeadUp1                    10094790 f   LIBCMT:memmove.obj
 0001:000937bc       LeadUp2                    100947bc f   LIBCMT:memmove.obj
 0001:000937e0       LeadUp3                    100947e0 f   LIBCMT:memmove.obj
 0001:0009385f       UnwindUp0                  1009485f f   LIBCMT:memmove.obj
 0001:0009384c       UnwindUp1                  1009484c f   LIBCMT:memmove.obj
 0001:00093844       UnwindUp2                  10094844 f   LIBCMT:memmove.obj
 0001:0009383c       UnwindUp3                  1009483c f   LIBCMT:memmove.obj
 0001:00093834       UnwindUp4                  10094834 f   LIBCMT:memmove.obj
 0001:0009382c       UnwindUp5                  1009482c f   LIBCMT:memmove.obj
 0001:00093824       UnwindUp6                  10094824 f   LIBCMT:memmove.obj
 0001:0009381c       UnwindUp7                  1009481c f   LIBCMT:memmove.obj
 0001:00093878       TrailUp0                   10094878 f   LIBCMT:memmove.obj
 0001:00093880       TrailUp1                   10094880 f   LIBCMT:memmove.obj
 0001:0009388c       TrailUp2                   1009488c f   LIBCMT:memmove.obj
 0001:000938a0       TrailUp3                   100948a0 f   LIBCMT:memmove.obj
 0001:00093918       LeadDown1                  10094918 f   LIBCMT:memmove.obj
 0001:00093938       LeadDown2                  10094938 f   LIBCMT:memmove.obj
 0001:00093960       LeadDown3                  10094960 f   LIBCMT:memmove.obj
 0001:000939b4       UnwindDown7                100949b4 f   LIBCMT:memmove.obj
 0001:000939bc       UnwindDown6                100949bc f   LIBCMT:memmove.obj
 0001:000939c4       UnwindDown5                100949c4 f   LIBCMT:memmove.obj
 0001:000939cc       UnwindDown4                100949cc f   LIBCMT:memmove.obj
 0001:000939d4       UnwindDown3                100949d4 f   LIBCMT:memmove.obj
 0001:000939dc       UnwindDown2                100949dc f   LIBCMT:memmove.obj
 0001:000939e4       UnwindDown1                100949e4 f   LIBCMT:memmove.obj
 0001:000939f7       UnwindDown0                100949f7 f   LIBCMT:memmove.obj
 0001:00093a10       TrailDown0                 10094a10 f   LIBCMT:memmove.obj
 0001:00093a18       TrailDown1                 10094a18 f   LIBCMT:memmove.obj
 0001:00093a28       TrailDown2                 10094a28 f   LIBCMT:memmove.obj
 0001:00093a3c       TrailDown3                 10094a3c f   LIBCMT:memmove.obj
 0001:00093150       LeadUp1                    10094150 f   LIBCMT:memcpy.obj
 0001:0009317c       LeadUp2                    1009417c f   LIBCMT:memcpy.obj
 0001:000931a0       LeadUp3                    100941a0 f   LIBCMT:memcpy.obj
 0001:0009321f       UnwindUp0                  1009421f f   LIBCMT:memcpy.obj
 0001:0009320c       UnwindUp1                  1009420c f   LIBCMT:memcpy.obj
 0001:00093204       UnwindUp2                  10094204 f   LIBCMT:memcpy.obj
 0001:000931fc       UnwindUp3                  100941fc f   LIBCMT:memcpy.obj
 0001:000931f4       UnwindUp4                  100941f4 f   LIBCMT:memcpy.obj
 0001:000931ec       UnwindUp5                  100941ec f   LIBCMT:memcpy.obj
 0001:000931e4       UnwindUp6                  100941e4 f   LIBCMT:memcpy.obj
 0001:000931dc       UnwindUp7                  100941dc f   LIBCMT:memcpy.obj
 0001:00093238       TrailUp0                   10094238 f   LIBCMT:memcpy.obj
 0001:00093240       TrailUp1                   10094240 f   LIBCMT:memcpy.obj
 0001:0009324c       TrailUp2                   1009424c f   LIBCMT:memcpy.obj
 0001:00093260       TrailUp3                   10094260 f   LIBCMT:memcpy.obj
 0001:000932d8       LeadDown1                  100942d8 f   LIBCMT:memcpy.obj
 0001:000932f8       LeadDown2                  100942f8 f   LIBCMT:memcpy.obj
 0001:00093320       LeadDown3                  10094320 f   LIBCMT:memcpy.obj
 0001:00093374       UnwindDown7                10094374 f   LIBCMT:memcpy.obj
 0001:0009337c       UnwindDown6                1009437c f   LIBCMT:memcpy.obj
 0001:00093384       UnwindDown5                10094384 f   LIBCMT:memcpy.obj
 0001:0009338c       UnwindDown4                1009438c f   LIBCMT:memcpy.obj
 0001:00093394       UnwindDown3                10094394 f   LIBCMT:memcpy.obj
 0001:0009339c       UnwindDown2                1009439c f   LIBCMT:memcpy.obj
 0001:000933a4       UnwindDown1                100943a4 f   LIBCMT:memcpy.obj
 0001:000933b7       UnwindDown0                100943b7 f   LIBCMT:memcpy.obj
 0001:000933d0       TrailDown0                 100943d0 f   LIBCMT:memcpy.obj
 0001:000933d8       TrailDown1                 100943d8 f   LIBCMT:memcpy.obj
 0001:000933e8       TrailDown2                 100943e8 f   LIBCMT:memcpy.obj
 0001:000933fc       TrailDown3                 100943fc f   LIBCMT:memcpy.obj
 0001:00092dd0       ?ArrayUnwindFilter@@YAHPAU_EXCEPTION_POINTERS@@@Z 10093dd0 f   LIBCMT:ehvecdtr.obj
 0001:000929d0       _gu_return                 100939d0 f   LIBCMT:exsup.obj
 0001:000929d8       __unwind_handler           100939d8 f   LIBCMT:exsup.obj
 0001:000927eb       ?CatchGuardHandler@@YA?AW4_EXCEPTION_DISPOSITION@@PAUEHExceptionRecord@@PAUCatchGuardRN@@PAX2@Z 100937eb f   LIBCMT:trnsctrl.obj
 0001:000928c6       ?TranslatorGuardHandler@@YA?AW4_EXCEPTION_DISPOSITION@@PAUEHExceptionRecord@@PAUTranslatorGuardRN@@PAX2@Z 100938c6 f   LIBCMT:trnsctrl.obj
