 Engine

 Timestamp is 653bbb53 (Fri Oct 27 20:29:55 2023)

 Preferred load address is 10000000

 Start         Length     Name                   Class
 0001:00000000 0004b254H .text                   CODE
 0001:0004b260 00001143H .text$x                 CODE
 0002:00000000 000002dcH .idata$5                DATA
 0002:000002e0 00003fb4H .rdata                  DATA
 0002:00004298 000019d0H .xdata$x                DATA
 0002:00005c68 000000dcH .idata$2                DATA
 0002:00005d44 00000014H .idata$3                DATA
 0002:00005d58 000002dcH .idata$4                DATA
 0002:00006034 00000b5cH .idata$6                DATA
 0002:00006b90 0000c6f5H .edata                  DATA
 0003:00000000 00000004H .CRT$XCA                DATA
 0003:00000004 00000010H .CRT$XCU                DATA
 0003:00000014 00000004H .CRT$XCZ                DATA
 0003:00000018 00000004H .CRT$XIA                DATA
 0003:0000001c 00000004H .CRT$XIZ                DATA
 0003:00000020 000081d0H .data                   DATA
 0003:000081f0 00009230H .bss                    DATA

  Address         Publics by Value              Rva+Base     Lib:Object

 0001:00000000       ??0KSG_LogFile@@QAE@ABV0@@Z 10001000 f i KAutoMutex.obj
 0001:00000030       ??4KSG_LogFile@@QAEAAV0@ABV0@@Z 10001030 f i KAutoMutex.obj
 0001:00000050       ??_GKSG_LogFile@@UAEPAXI@Z 10001050 f i KAutoMutex.obj
 0001:00000080       ??_EKSG_LogFile@@UAEPAXI@Z 10001080 f i KAutoMutex.obj
 0001:000000f0       ?GetScreenMode@KDirectDraw@@QAEKXZ 100010f0 f i KAutoMutex.obj
 0001:00000110       ?GetScreenWidth@KDirectDraw@@QAEKXZ 10001110 f i KAutoMutex.obj
 0001:00000130       ?GetScreenHeight@KDirectDraw@@QAEKXZ 10001130 f i KAutoMutex.obj
 0001:00000150       ?GetScreenPitch@KDirectDraw@@QAEKXZ 10001150 f i KAutoMutex.obj
 0001:00000170       ?GetRGBBitCount@KDirectDraw@@QAEKXZ 10001170 f i KAutoMutex.obj
 0001:00000190       ?GetRGBBitMask16@KDirectDraw@@QAEKXZ 10001190 f i KAutoMutex.obj
 0001:000001b0       ?GetRGBBitMask32@KDirectDraw@@QAEKXZ 100011b0 f i KAutoMutex.obj
 0001:000001d0       ??4KDirectDraw@@QAEAAV0@ABV0@@Z 100011d0 f i KAutoMutex.obj
 0001:00000200       ?LockPrimaryBuffer@KDirectDraw@@QAEPAXXZ 10001200 f i KAutoMutex.obj
 0001:00000260       ?UnLockPrimaryBuffer@KDirectDraw@@QAEXXZ 10001260 f i KAutoMutex.obj
 0001:00000290       ?LockBackBuffer@KDirectDraw@@QAEPAXXZ 10001290 f i KAutoMutex.obj
 0001:000002f0       ?UnLockBackBuffer@KDirectDraw@@QAEXXZ 100012f0 f i KAutoMutex.obj
 0001:00000320       ?UpdateScreen@KDirectDraw@@QAEXPAUtagRECT@@@Z 10001320 f i KAutoMutex.obj
 0001:00000360       ?GetDirectSound@KDirectSound@@QAEPAUIDirectSound@@XZ 10001360 f i KAutoMutex.obj
 0001:00000370       ??4KDirectSound@@QAEAAV0@ABV0@@Z 10001370 f i KAutoMutex.obj
 0001:00000390       ??4KDirectInput@@QAEAAV0@ABV0@@Z 10001390 f i KAutoMutex.obj
 0001:000003c0       ??4KFile@@QAEAAV0@ABV0@@Z  100013c0 f i KAutoMutex.obj
 0001:000003f0       ?GetFilePath@KFileDialog@@QAEPADXZ 100013f0 f i KAutoMutex.obj
 0001:00000410       ?GetFileName@KFileDialog@@QAEPADXZ 10001410 f i KAutoMutex.obj
 0001:00000430       ?GetFileTitleA@KFileDialog@@QAEPADXZ 10001430 f i KAutoMutex.obj
 0001:00000450       ??4KFileDialog@@QAEAAV0@ABV0@@Z 10001450 f i KAutoMutex.obj
 0001:00000480       ??4KTimer@@QAEAAV0@ABV0@@Z 10001480 f i KAutoMutex.obj
 0001:000004b0       ?GetMemPtr@KMemClass@@QAEPAXXZ 100014b0 f i KAutoMutex.obj
 0001:000004c0       ?GetMemLen@KMemClass@@QAEKXZ 100014c0 f i KAutoMutex.obj
 0001:000004e0       ??4KMemClass@@QAEAAV0@ABV0@@Z 100014e0 f i KAutoMutex.obj
 0001:00000500       ?GetWidth@KSprite@@QAEHXZ  10001500 f i KAutoMutex.obj
 0001:00000520       ?GetHeight@KSprite@@QAEHXZ 10001520 f i KAutoMutex.obj
 0001:00000540       ?GetCenterX@KSprite@@QAEHXZ 10001540 f i KAutoMutex.obj
 0001:00000560       ?GetCenterY@KSprite@@QAEHXZ 10001560 f i KAutoMutex.obj
 0001:00000580       ?GetFrames@KSprite@@QAEHXZ 10001580 f i KAutoMutex.obj
 0001:000005a0       ?GetDirections@KSprite@@QAEHXZ 100015a0 f i KAutoMutex.obj
 0001:000005c0       ?GetInterval@KSprite@@QAEHXZ 100015c0 f i KAutoMutex.obj
 0001:000005e0       ?GetPalette@KSprite@@QAEPAXXZ 100015e0 f i KAutoMutex.obj
 0001:00000600       ?Get24Palette@KSprite@@QAEPAXXZ 10001600 f i KAutoMutex.obj
 0001:00000620       ??4KSprite@@QAEAAV0@ABV0@@Z 10001620 f i KAutoMutex.obj
 0001:00000650       ??1KSprite@@QAE@XZ         10001650 f i KAutoMutex.obj
 0001:000006a0       ??4KPakFile@@QAEAAV0@ABV0@@Z 100016a0 f i KAutoMutex.obj
 0001:000006d0       ??4KMemStack@@QAEAAV0@ABV0@@Z 100016d0 f i KAutoMutex.obj
 0001:00000700       ??4KIniFile@@QAEAAV0@ABV0@@Z 10001700 f i KAutoMutex.obj
 0001:00000730       ?Changed@KCanvas@@QAEXH@Z  10001730 f i KAutoMutex.obj
 0001:00000750       ?GetWidth@KCanvas@@QAEHXZ  10001750 f i KAutoMutex.obj
 0001:00000770       ?GetHeight@KCanvas@@QAEHXZ 10001770 f i KAutoMutex.obj
 0001:00000790       ?SetClipRect@KCanvas@@QAEXPAUtagRECT@@@Z 10001790 f i KAutoMutex.obj
 0001:000007c0       ?GetClipRect@KCanvas@@QAEXPAUtagRECT@@@Z 100017c0 f i KAutoMutex.obj
 0001:000007f0       ??4KCanvas@@QAEAAV0@ABV0@@Z 100017f0 f i KAutoMutex.obj
 0001:00000820       ?GetBitmap@KBitmap@@QAEPAXXZ 10001820 f i KAutoMutex.obj
 0001:00000840       ?GetPal32@KBitmap@@QAEPAUKPAL32@@XZ 10001840 f i KAutoMutex.obj
 0001:00000860       ?GetPal16@KBitmap@@QAEPAGXZ 10001860 f i KAutoMutex.obj
 0001:00000880       ?GetWidth@KBitmap@@QAEHXZ  10001880 f i KAutoMutex.obj
 0001:000008a0       ?GetHeight@KBitmap@@QAEHXZ 100018a0 f i KAutoMutex.obj
 0001:000008c0       ?GetColors@KBitmap@@QAEHXZ 100018c0 f i KAutoMutex.obj
 0001:000008e0       ??4KBitmap@@QAEAAV0@ABV0@@Z 100018e0 f i KAutoMutex.obj
 0001:00000910       ??1KBitmap@@QAE@XZ         10001910 f i KAutoMutex.obj
 0001:00000930       ?GetWidth@KFont@@QAEHXZ    10001930 f i KAutoMutex.obj
 0001:00000950       ?GetHeight@KFont@@QAEHXZ   10001950 f i KAutoMutex.obj
 0001:00000970       ?SetTextStyle@KFont@@QAEXH@Z 10001970 f i KAutoMutex.obj
 0001:00000990       ??4KFont@@QAEAAV0@ABV0@@Z  10001990 f i KAutoMutex.obj
 0001:000009c0       ?HandleInput@KWin32App@@MAEHIIJ@Z 100019c0 f i KAutoMutex.obj
 0001:000009d0       ??0KWin32App@@QAE@ABV0@@Z  100019d0 f i KAutoMutex.obj
 0001:00000a80       ??4KWin32App@@QAEAAV0@ABV0@@Z 10001a80 f i KAutoMutex.obj
 0001:00000b70       ??4KMutex@@QAEAAV0@ABV0@@Z 10001b70 f i KAutoMutex.obj
 0001:00000ba0       ??4KAutoMutex@@QAEAAV0@ABV0@@Z 10001ba0 f i KAutoMutex.obj
 0001:00000bc0       ??0KAutoMutex@@QAE@PAVKMutex@@@Z 10001bc0 f   KAutoMutex.obj
 0001:00000bea       ??1KAutoMutex@@QAE@XZ      10001bea f   KAutoMutex.obj
 0001:00000c10       ??4KAviFile@@QAEAAV0@ABV0@@Z 10001c10 f i KAviFile.obj
 0001:00000c40       ??0KAviFile@@QAE@XZ        10001c40 f   KAviFile.obj
 0001:00000c9b       ??1KAviFile@@QAE@XZ        10001c9b f   KAviFile.obj
 0001:00000ce9       ?Open@KAviFile@@QAEHPAD@Z  10001ce9 f   KAviFile.obj
 0001:00000da7       ?FillHeader@KAviFile@@QAEHXZ 10001da7 f   KAviFile.obj
 0001:00001491       ?GetAudioIndex@KAviFile@@QAEHXZ 10002491 f   KAviFile.obj
 0001:00001684       ?GetVideoIndex@KAviFile@@QAEHXZ 10002684 f   KAviFile.obj
 0001:0000185f       ?VideoStreams@KAviFile@@QAEHXZ 1000285f f   KAviFile.obj
 0001:00001870       ?AudioStreams@KAviFile@@QAEHXZ 10002870 f   KAviFile.obj
 0001:00001881       ?GetBitmapInfoHeader@KAviFile@@QAEXPAUtagBITMAPINFOHEADER@@@Z 10002881 f   KAviFile.obj
 0001:0000189f       ?GetWaveFormat@KAviFile@@QAEXPAUtWAVEFORMATEX@@@Z 1000289f f   KAviFile.obj
 0001:000018d3       ?GetCompressMethod@KAviFile@@QAEXPAD@Z 100028d3 f   KAviFile.obj
 0001:000018f5       ?NextFrame@KAviFile@@QAEHPAE@Z 100028f5 f   KAviFile.obj
 0001:00001997       ?ReadAudio@KAviFile@@QAEHPAEH@Z 10002997 f   KAviFile.obj
 0001:00001aae       ?FrameRate@KAviFile@@QAEHXZ 10002aae f   KAviFile.obj
 0001:00001ae5       ?CurrentFrame@KAviFile@@QAEHXZ 10002ae5 f   KAviFile.obj
 0001:00001af6       ?TotalFrames@KAviFile@@QAEHXZ 10002af6 f   KAviFile.obj
 0001:00001b07       ?VideoSeek@KAviFile@@QAEHH@Z 10002b07 f   KAviFile.obj
 0001:00001b7a       ?AudioSeek@KAviFile@@QAEHH@Z 10002b7a f   KAviFile.obj
 0001:00001ca3       ?IsKeyframe@KAviFile@@QAEHH@Z 10002ca3 f   KAviFile.obj
 0001:00001ce0       ?NextKeyFrame@KAviFile@@QAEHXZ 10002ce0 f   KAviFile.obj
 0001:00001d31       ?PreviousKeyFrame@KAviFile@@QAEHXZ 10002d31 f   KAviFile.obj
 0001:00001d8c       ?Rewind@KAviFile@@QAEHXZ   10002d8c f   KAviFile.obj
 0001:00001dba       ?Close@KAviFile@@QAEXXZ    10002dba f   KAviFile.obj
 0001:00001e20       ??0KBitmap@@QAE@XZ         10002e20 f   KBitmap.obj
 0001:00001e5d       ?Init@KBitmap@@QAEHHHH@Z   10002e5d f   KBitmap.obj
 0001:00001eb8       ?Draw@KBitmap@@QAEXHH@Z    10002eb8 f   KBitmap.obj
 0001:00001f0c       ?Clear@KBitmap@@QAEXE@Z    10002f0c f   KBitmap.obj
 0001:00001f25       ?MakePalette@KBitmap@@QAEXXZ 10002f25 f   KBitmap.obj
 0001:00001f53       ?PutPixel@KBitmap@@QAEXHHE@Z 10002f53 f   KBitmap.obj
 0001:00001f86       ?GetPixel@KBitmap@@QAEEHH@Z 10002f86 f   KBitmap.obj
 0001:00001fb6       ?Load@KBitmap@@QAEHPAD@Z   10002fb6 f   KBitmap.obj
 0001:000020cf       ?Save@KBitmap@@QAEHPAD@Z   100030cf f   KBitmap.obj
 0001:000021d0       ?GetBitmap@KBitmap16@@QAEPAXXZ 100031d0 f i KBitmap16.obj
 0001:000021f0       ?GetWidth@KBitmap16@@QAEHXZ 100031f0 f i KBitmap16.obj
 0001:00002210       ?GetHeight@KBitmap16@@QAEHXZ 10003210 f i KBitmap16.obj
 0001:00002230       ??4KBitmap16@@QAEAAV0@ABV0@@Z 10003230 f i KBitmap16.obj
 0001:00002260       ??1KBitmap16@@QAE@XZ       10003260 f i KBitmap16.obj
 0001:00002280       ??0KBitmap16@@QAE@XZ       10003280 f   KBitmap16.obj
 0001:000022aa       ?Init@KBitmap16@@QAEHHH@Z  100032aa f   KBitmap16.obj
 0001:000022e7       ?Free@KBitmap16@@QAEXXZ    100032e7 f   KBitmap16.obj
 0001:000022fa       ?Clear@KBitmap16@@QAEXXZ   100032fa f   KBitmap16.obj
 0001:0000230d       ?Draw@KBitmap16@@QAEXHH@Z  1000330d f   KBitmap16.obj
 0001:00002327       ?DrawLum@KBitmap16@@QAEXHHH@Z 10003327 f   KBitmap16.obj
 0001:00002341       ?PutPixel@KBitmap16@@QAEXHHG@Z 10003341 f   KBitmap16.obj
 0001:0000239f       ?GetPixel@KBitmap16@@QAEGHH@Z 1000339f f   KBitmap16.obj
 0001:000023ff       ?GetPointer@KBitmap16@@QAEPAGHH@Z 100033ff f   KBitmap16.obj
 0001:0000242c       ?Load@KBitmap16@@QAEHPAD@Z 1000342c f   KBitmap16.obj
 0001:0000257d       ?Save@KBitmap16@@QAEHPAD@Z 1000357d f   KBitmap16.obj
 0001:00002650       _g_CreateAlphaFromRGB      10003650 f   KBitmapConvert.obj
 0001:000026c0       ?GetSprite@KBmp2Spr@@QAEPAXXZ 100036c0 f i KBmp2Spr.obj
 0001:000026e0       ?GetLength@KBmp2Spr@@QAEJXZ 100036e0 f i KBmp2Spr.obj
 0001:00002700       ??4KBmp2Spr@@QAEAAV0@ABV0@@Z 10003700 f i KBmp2Spr.obj
 0001:00002730       ??1KBmp2Spr@@QAE@XZ        10003730 f i KBmp2Spr.obj
 0001:00002750       ??0KBmp2Spr@@QAE@XZ        10003750 f   KBmp2Spr.obj
 0001:0000279a       ?Convert@KBmp2Spr@@QAEHPAVKBitmap@@H@Z 1000379a f   KBmp2Spr.obj
 0001:00002871       ?ConvertRect@KBmp2Spr@@IAEJPAUtagRECT@@PAE@Z 10003871 f   KBmp2Spr.obj
 0001:00002944       ?ConvertLine@KBmp2Spr@@IAEJHHHPAE@Z 10003944 f   KBmp2Spr.obj
 0001:00002a53       ?GetTransCount@KBmp2Spr@@IAEJHHH@Z 10003a53 f   KBmp2Spr.obj
 0001:00002ad3       ?GetPixelCount@KBmp2Spr@@IAEJHHH@Z 10003ad3 f   KBmp2Spr.obj
 0001:00002b4f       ?GetMiniRect@KBmp2Spr@@IAEXPAUtagRECT@@@Z 10003b4f f   KBmp2Spr.obj
 0001:00002df0       ??4KBmpFile@@QAEAAV0@ABV0@@Z 10003df0 f i KBmpFile.obj
 0001:00002e20       ?Load@KBmpFile@@QAEHPADPAVKBitmap@@@Z 10003e20 f   KBmpFile.obj
 0001:0000313d       ?Save@KBmpFile@@QAEHPADPAVKBitmap@@@Z 1000413d f   KBmpFile.obj
 0001:0000338f       ?Decode@KBmpFile@@AAEXPAX0@Z 1000438f f   KBmpFile.obj
 0001:0000340e       ?Encode@KBmpFile@@AAEXPAX0@Z 1000440e f   KBmpFile.obj
 0001:00003490       ??4KBmpFile24@@QAEAAV0@ABV0@@Z 10004490 f i KBmpFile24.obj
 0001:000034c0       ?Load@KBmpFile24@@QAEHPADPAVKBitmap16@@@Z 100044c0 f   KBmpFile24.obj
 0001:00003791       ?Save@KBmpFile24@@QAEHPADPAVKBitmap16@@@Z 10004791 f   KBmpFile24.obj
 0001:000039b3       ?Decode@KBmpFile24@@AAEHPAX0@Z 100049b3 f   KBmpFile24.obj
 0001:00003aa2       ?Encode@KBmpFile24@@AAEHPAX0@Z 10004aa2 f   KBmpFile24.obj
 0001:00003bae       ?SaveBuffer24@KBmpFile24@@SAHPADPAXHHH@Z 10004bae f   KBmpFile24.obj
 0001:00003bd1       ?SaveBuffer32@KBmpFile24@@SAHPADPAXHHH@Z 10004bd1 f   KBmpFile24.obj
 0001:00003bf4       ?SaveBuffer@KBmpFile24@@CAHPADPAXHHH_N@Z 10004bf4 f   KBmpFile24.obj
 0001:00003f30       ??0KMemManager@@QAE@ABV0@@Z 10004f30 f i KCache.obj
 0001:00003f80       ??4KMemManager@@QAEAAV0@ABV0@@Z 10004f80 f i KCache.obj
 0001:00004000       ??0KList@@QAE@ABV0@@Z      10005000 f i KCache.obj
 0001:00004060       ??1KNode@@UAE@XZ           10005060 f i KCache.obj
 0001:00004080       ??_EKNode@@UAEPAXI@Z       10005080 f i KCache.obj
 0001:00004080       ??_GKNode@@UAEPAXI@Z       10005080 f i KCache.obj
 0001:000040b0       ??4KList@@QAEAAV0@ABV0@@Z  100050b0 f i KCache.obj
 0001:000040e0       ??0KNode@@QAE@ABV0@@Z      100050e0 f i KCache.obj
 0001:00004120       ??4KNode@@QAEAAV0@ABV0@@Z  10005120 f i KCache.obj
 0001:00004150       ?GetName@KStrNode@@UAEPADXZ 10005150 f i KCache.obj
 0001:00004170       ?SetName@KStrNode@@UAEXPAD@Z 10005170 f i KCache.obj
 0001:000041a0       ??0KStrNode@@QAE@ABV0@@Z   100051a0 f i KCache.obj
 0001:000041e0       ??4KStrNode@@QAEAAV0@ABV0@@Z 100051e0 f i KCache.obj
 0001:00004230       ??1KStrNode@@UAE@XZ        10005230 f i KCache.obj
 0001:00004250       ??_GKStrNode@@UAEPAXI@Z    10005250 f i KCache.obj
 0001:00004280       ??_EKStrNode@@UAEPAXI@Z    10005280 f i KCache.obj
 0001:000042f0       ??0KStrList@@QAE@XZ        100052f0 f i KCache.obj
 0001:00004310       ??0KList@@QAE@XZ           10005310 f i KCache.obj
 0001:00004380       ??0KNode@@QAE@XZ           10005380 f i KCache.obj
 0001:000043b0       ??0KStrList@@QAE@ABV0@@Z   100053b0 f i KCache.obj
 0001:000043d0       ??4KStrList@@QAEAAV0@ABV0@@Z 100053d0 f i KCache.obj
 0001:000043f0       ??1KStrList@@QAE@XZ        100053f0 f i KCache.obj
 0001:00004410       ??1KList@@QAE@XZ           10005410 f i KCache.obj
 0001:00004460       ?LoadNode@KCache@@UAEHPAVKCacheNode@@@Z 10005460 f i KCache.obj
 0001:00004470       ?FreeNode@KCache@@UAEXPAVKCacheNode@@@Z 10005470 f i KCache.obj
 0001:00004480       ??0KCache@@QAE@ABV0@@Z     10005480 f i KCache.obj
 0001:000044d0       ??4KCache@@QAEAAV0@ABV0@@Z 100054d0 f i KCache.obj
 0001:00004510       ??0KCache@@QAE@XZ          10005510 f   KCache.obj
 0001:00004546       ?Release@KCache@@UAEXXZ    10005546 f   KCache.obj
 0001:000045a2       ??1KCache@@QAE@XZ          100055a2 f   KCache.obj
 0001:000045c1       ?Init@KCache@@UAEXH@Z      100055c1 f   KCache.obj
 0001:000045e3       ?NewNode@KCache@@UAEPAVKCacheNode@@PAD@Z 100055e3 f   KCache.obj
 0001:000047b7       ?GetNode@KCache@@UAEPAVKCacheNode@@PADPAV2@@Z 100057b7 f   KCache.obj
 0001:0000481b       ?Prepare@KCache@@QAEXXZ    1000581b f   KCache.obj
 0001:000048ac       ?ClearNode@KCache@@QAEXPAD@Z 100058ac f   KCache.obj
 0001:00004930       ?RemoveHead@KList@@QAEPAVKNode@@XZ 10005930 f i KCache.obj
 0001:00004960       ?GetNext@KNode@@QAEPAV1@XZ 10005960 f i KCache.obj
 0001:00004990       ?Remove@KNode@@QAEXXZ      10005990 f i KCache.obj
 0001:000049e0       ?GetTail@KList@@QAEPAVKNode@@XZ 100059e0 f i KCache.obj
 0001:00004a00       ?GetPrev@KNode@@QAEPAV1@XZ 10005a00 f i KCache.obj
 0001:00004a30       ?AddHead@KList@@QAEXPAVKNode@@@Z 10005a30 f i KCache.obj
 0001:00004a50       ?InsertAfter@KNode@@QAEXPAV1@@Z 10005a50 f i KCache.obj
 0001:00004aa0       ?RemoveTail@KList@@QAEPAVKNode@@XZ 10005aa0 f i KCache.obj
 0001:00004ad0       ?GetNodeCount@KList@@QAEJXZ 10005ad0 f i KCache.obj
 0001:00004b10       ?GetHead@KList@@QAEPAVKNode@@XZ 10005b10 f i KCache.obj
 0001:00004b30       ??0KCacheNode@@QAE@XZ      10005b30 f i KCache.obj
 0001:00004b70       ??_GKCacheNode@@UAEPAXI@Z  10005b70 f i KCache.obj
 0001:00004b70       ??_EKCacheNode@@UAEPAXI@Z  10005b70 f i KCache.obj
 0001:00004ba0       ??1KCacheNode@@UAE@XZ      10005ba0 f i KCache.obj
 0001:00004bc0       ??0KCanvas@@QAE@XZ         10005bc0 f   KCanvas.obj
 0001:00004c11       ??1KCanvas@@QAE@XZ         10005c11 f   KCanvas.obj
 0001:00004c24       ?Init@KCanvas@@QAE_NHH@Z   10005c24 f   KCanvas.obj
 0001:00004d2a       ?Terminate@KCanvas@@QAEXXZ 10005d2a f   KCanvas.obj
 0001:00004d56       ?GetUpdateRect@KCanvas@@AAE_NPAUtagRECT@@0@Z 10005d56 f   KCanvas.obj
 0001:00004ec0       ?RectClip@KCanvas@@QAEHPAUtagRECT@@@Z 10005ec0 f   KCanvas.obj
 0001:00004f49       ?MakeClip@KCanvas@@QAEHJJJJPAUKClipper@@@Z 10005f49 f   KCanvas.obj
 0001:000050ac       ?FillCanvas@KCanvas@@QAEXG@Z 100060ac f   KCanvas.obj
 0001:000050f5       ?UpdateCanvas@KCanvas@@QAEXXZ 100060f5 f   KCanvas.obj
 0001:00005100       ?BltSurface@KCanvas@@QAEXPAUIDirectDrawSurface@@PAUtagRECT@@@Z 10006100 f   KCanvas.obj
 0001:00005142       ?UpdateScreen@KCanvas@@QAEXXZ 10006142 f   KCanvas.obj
 0001:00005157       ?DrawPixel@KCanvas@@QAEXHHH@Z 10006157 f   KCanvas.obj
 0001:000051dc       ?DrawPixelAlpha@KCanvas@@QAEXHHHH@Z 100061dc f   KCanvas.obj
 0001:00005267       ?DrawLine@KCanvas@@QAEXHHHHH@Z 10006267 f   KCanvas.obj
 0001:00005354       ?DrawLineAlpha@KCanvas@@QAEXHHHHHH@Z 10006354 f   KCanvas.obj
 0001:00005447       ?DrawSprite@KCanvas@@QAEXHHHHPAX0@Z 10006447 f   KCanvas.obj
 0001:000054de       ?DrawSpriteMixColor@KCanvas@@QAEXHHHHPAX0HH@Z 100064de f   KCanvas.obj
 0001:00005581       ?DrawSpriteWithColor@KCanvas@@QAEXHHHHPAX0HH@Z 10006581 f   KCanvas.obj
 0001:00005624       ?DrawSpriteAlpha@KCanvas@@QAEXHHHHPAX0H@Z 10006624 f   KCanvas.obj
 0001:000056d7       ?DrawSpriteBorder@KCanvas@@QAEXHHHHHPAX@Z 100066d7 f   KCanvas.obj
 0001:00005768       ?DrawSprite3LevelAlpha@KCanvas@@QAEXHHHHPAX0@Z 10006768 f   KCanvas.obj
 0001:000057e8       ?DrawFont@KCanvas@@QAEXHHHHHHPAX@Z 100067e8 f   KCanvas.obj
 0001:00005885       ?DrawFontWithBorder@KCanvas@@QAEXHHHHHHPAXH@Z 10006885 f   KCanvas.obj
 0001:00005922       ?DrawFontSolid@KCanvas@@QAEXHHHHHHPAX@Z 10006922 f   KCanvas.obj
 0001:000059bf       ?DrawBitmap@KCanvas@@QAEXHHHHPAX0@Z 100069bf f   KCanvas.obj
 0001:00005a56       ?DrawFade@KCanvas@@QAEXHHHHH@Z 10006a56 f   KCanvas.obj
 0001:00005ae7       ?DrawBitmap16@KCanvas@@QAEXHHHHPAX@Z 10006ae7 f   KCanvas.obj
 0001:00005b78       ?DrawBitmap16mmx@KCanvas@@QAEXHHHHPAX@Z 10006b78 f   KCanvas.obj
 0001:00005c09       ?DrawBitmap16win@KCanvas@@QAEXHHHHPAX@Z 10006c09 f   KCanvas.obj
 0001:00005c9a       ?Clear@KCanvas@@QAEXHHHHH@Z 10006c9a f   KCanvas.obj
 0001:00005cdd       ?DotClear@KCanvas@@QAEXHHHHH@Z 10006cdd f   KCanvas.obj
 0001:00005d6e       ?ClearAlpha@KCanvas@@QAEXHHHHHH@Z 10006d6e f   KCanvas.obj
 0001:00005e05       ?LockCanvas@KCanvas@@QAEPAXAAH@Z 10006e05 f   KCanvas.obj
 0001:00005e59       ?UnlockCanvas@KCanvas@@QAEXXZ 10006e59 f   KCanvas.obj
 0001:00005e90       ?UpdateBackBuffer@KCanvas@@AAEXPAUtagRECT@@@Z 10006e90 f i KCanvas.obj
 0001:00005f30       ?UpdateFrontBuffer@KCanvas@@AAEXPAUtagRECT@@@Z 10006f30 f i KCanvas.obj
 0001:00005fd0       ??0KDrawNode@@QAE@XZ       10006fd0 f i KCanvas.obj
 0001:00005ff0       ??1KDrawNode@@UAE@XZ       10006ff0 f i KCanvas.obj
 0001:00006010       ??_GKDrawNode@@UAEPAXI@Z   10007010 f i KCanvas.obj
 0001:00006010       ??_EKDrawNode@@UAEPAXI@Z   10007010 f i KCanvas.obj
 0001:00006040       ??0KCodec@@QAE@XZ          10007040 f i KCodec.obj
 0001:00006060       ??0KCodec@@QAE@ABV0@@Z     10007060 f i KCodec.obj
 0001:00006080       ??4KCodec@@QAEAAV0@ABV0@@Z 10007080 f i KCodec.obj
 0001:00006090       ??0KCodecLzo@@QAE@XZ       10007090 f i KCodec.obj
 0001:000060c0       ??0KCodecLzo@@QAE@ABV0@@Z  100070c0 f i KCodec.obj
 0001:00006100       ??4KCodecLzo@@QAEAAV0@ABV0@@Z 10007100 f i KCodec.obj
 0001:00006130       ??1KCodecLzo@@QAE@XZ       10007130 f i KCodec.obj
 0001:00006150       ?GetPackLen@KCodec@@UAEKK@Z 10007150 f   KCodec.obj
 0001:00006173       ?Encode@KCodec@@UAEHPAUTCodeInfo@@@Z 10007173 f   KCodec.obj
 0001:000061ad       ?Decode@KCodec@@UAEHPAUTCodeInfo@@@Z 100071ad f   KCodec.obj
 0001:000061e7       ?g_InitCodec@@YAXPAPAVKCodec@@H@Z 100071e7 f   KCodec.obj
 0001:000062b8       ?g_FreeCodec@@YAXPAPAVKCodec@@H@Z 100072b8 f   KCodec.obj
 0001:00006330       ??_GKCodecLzo@@QAEPAXI@Z   10007330 f i KCodec.obj
 0001:00006360       ?Compress@KCodecLzo@@AAEKPAEK0PAK@Z 10007360 f   KCodecLzo.obj
 0001:000068f9       ?Encode@KCodecLzo@@UAEHPAUTCodeInfo@@@Z 100078f9 f   KCodecLzo.obj
 0001:00006a9f       ?Decode@KCodecLzo@@UAEHPAUTCodeInfo@@@Z 10007a9f f   KCodecLzo.obj
 0001:00007080       ?g_Red@@YAEG@Z             10008080 f   KColors.obj
 0001:0000709c       ?g_Green@@YAEG@Z           1000809c f   KColors.obj
 0001:000070db       ?g_Blue@@YAEG@Z            100080db f   KColors.obj
 0001:00007119       ?g_RGB555@@YAGHHH@Z        10008119 f   KColors.obj
 0001:0000715a       ?g_RGB565@@YAGHHH@Z        1000815a f   KColors.obj
 0001:0000719b       ?g_555To565@@YAXHHPAX@Z    1000819b f   KColors.obj
 0001:000071d0       ?g_565To555@@YAXHHPAX@Z    100081d0 f   KColors.obj
 0001:00007210       ??0KDirectDraw@@QAE@XZ     10008210 f   KDDraw.obj
 0001:00007275       ??1KDirectDraw@@QAE@XZ     10008275 f   KDDraw.obj
 0001:00007288       ?Mode@KDirectDraw@@QAEXHHH@Z 10008288 f   KDDraw.obj
 0001:000072b6       ?Init@KDirectDraw@@QAEHXZ  100082b6 f   KDDraw.obj
 0001:0000738f       ?Exit@KDirectDraw@@QAEXXZ  1000838f f   KDDraw.obj
 0001:00007442       ?CreateDirectDraw@KDirectDraw@@AAEHXZ 10008442 f   KDDraw.obj
 0001:00007508       ?SetDisplayMode@KDirectDraw@@AAEHXZ 10008508 f   KDDraw.obj
 0001:000075b4       ?GetDisplayMode@KDirectDraw@@AAEHXZ 100085b4 f   KDDraw.obj
 0001:00007686       ?CreateSurface@KDirectDraw@@AAEHXZ 10008686 f   KDDraw.obj
 0001:000077ce       ?CreateSurface@KDirectDraw@@QAEPAUIDirectDrawSurface@@HH@Z 100087ce f   KDDraw.obj
 0001:00007845       ?RestoreSurface@KDirectDraw@@QAEHXZ 10008845 f   KDDraw.obj
 0001:000078b7       ?GetSurfaceDesc@KDirectDraw@@AAEHXZ 100088b7 f   KDDraw.obj
 0001:00007a11       ?CreateClipper@KDirectDraw@@AAEHXZ 10008a11 f   KDDraw.obj
 0001:00007ab6       ?SetClipperHWnd@KDirectDraw@@QAEXPAUHWND__@@@Z 10008ab6 f   KDDraw.obj
 0001:00007afb       ?WaitForVerticalBlankBegin@KDirectDraw@@QAEXXZ 10008afb f   KDDraw.obj
 0001:00007b22       ?WaitForVerticalBlankEnd@KDirectDraw@@QAEXXZ 10008b22 f   KDDraw.obj
 0001:00007b49       ?FillBackBuffer@KDirectDraw@@QAEXK@Z 10008b49 f   KDDraw.obj
 0001:00007b91       ?UpdateScreenZoom@KDirectDraw@@QAEXPAUtagRECT@@@Z 10008b91 f   KDDraw.obj
 0001:00007bcd       ?SetWindowStyle@KDirectDraw@@AAEXXZ 10008bcd f   KDDraw.obj
 0001:00007c9a       ?BltToFrontBuffer@KDirectDraw@@QAEXPAUIDirectDrawSurface@@PAUtagRECT@@1@Z 10008c9a f   KDDraw.obj
 0001:00007cdb       ?BltToBackBuffer@KDirectDraw@@QAEXPAUIDirectDrawSurface@@PAUtagRECT@@1@Z 10008cdb f   KDDraw.obj
 0001:00007d20       ?g_FindDebugWindow@@YAPAUHWND__@@PAD0@Z 10008d20 f   KDebug.obj
 0001:00007d3d       ?g_DebugLog@@YAXPADZZ      10008d3d f   KDebug.obj
 0001:00007db4       ?g_MessageBox@@YAXPADZZ    10008db4 f   KDebug.obj
 0001:00007e08       ?g_AssertFailed@@YAXPADH@Z 10008e08 f   KDebug.obj
 0001:00007e58       ??0KSG_LogFile@@QAE@QBD@Z  10008e58 f   KDebug.obj
 0001:00007e91       ??0KSG_LogFile@@QAE@XZ     10008e91 f   KDebug.obj
 0001:00007eb2       ??1KSG_LogFile@@UAE@XZ     10008eb2 f   KDebug.obj
 0001:00007ee9       ?Init@KSG_LogFile@@QAEHQBD@Z 10008ee9 f   KDebug.obj
 0001:00007f4d       ?printf@KSG_LogFile@@QAAXPBDZZ 10008f4d f   KDebug.obj
 0001:00008000       ?Log@KSG_LogFile@@QAAXPBDZZ 10009000 f   KDebug.obj
 0001:000080b3       ?puts@KSG_LogFile@@QAEXPBD@Z 100090b3 f   KDebug.obj
 0001:00008120       ?g_DDError@@YAXH@Z         10009120 f   KDError.obj
 0001:0000817e       ?g_DSError@@YAXH@Z         1000917e f   KDError.obj
 0001:000081dc       ?g_DIError@@YAXH@Z         100091dc f   KDError.obj
 0001:00008240       ??0KDirectInput@@QAE@XZ    10009240 f   KDInput.obj
 0001:00008273       ??1KDirectInput@@QAE@XZ    10009273 f   KDInput.obj
 0001:00008286       ?Init@KDirectInput@@QAEHXZ 10009286 f   KDInput.obj
 0001:0000830a       ?Exit@KDirectInput@@QAEXXZ 1000930a f   KDInput.obj
 0001:000083b1       ?CreateDirectInput@KDirectInput@@AAEHXZ 100093b1 f   KDInput.obj
 0001:000083fa       ?CreateMouseDevice@KDirectInput@@AAEHXZ 100093fa f   KDInput.obj
 0001:000084ec       ?CreateKeyboardDevice@KDirectInput@@AAEHXZ 100094ec f   KDInput.obj
 0001:000085de       ?SetMouseBehavior@KDirectInput@@QAEHH@Z 100095de f   KDInput.obj
 0001:0000863d       ?GetMouseState@KDirectInput@@QAEHPAH0PAE1@Z 1000963d f   KDInput.obj
 0001:000086b7       ?GetKeyboardState@KDirectInput@@QAEHPAE@Z 100096b7 f   KDInput.obj
 0001:00008710       ?g_DrawPixel@@YAXPAX0@Z    10009710 f   KDrawBase.obj
 0001:000087a0       ?g_DrawPixelAlpha@@YAXPAX0@Z 100097a0 f   KDrawBase.obj
 0001:0000887b       ?g_DrawLine@@YAXPAX0@Z     1000987b f   KDrawBase.obj
 0001:00008a41       ?g_DrawLineAlpha@@YAXPAX0@Z 10009a41 f   KDrawBase.obj
 0001:00008c10       ?g_Clear@@YAXPAX0@Z        10009c10 f   KDrawBase.obj
 0001:00008cec       ?g_DotClear@@YAXPAX0@Z     10009cec f   KDrawBase.obj
 0001:00008dc7       ?g_ClearAlpha@@YAXPAX0@Z   10009dc7 f   KDrawBase.obj
 0001:00008f00       ?g_DrawBitmap@@YAXPAX0@Z   10009f00 f   KDrawBitmap.obj
 0001:00008ff0       ?g_DrawBitmap16@@YAXPAX0@Z 10009ff0 f   KDrawBitmap16.obj
 0001:000090f7       ?g_DrawBitmap16mmx@@YAXPAX0@Z 1000a0f7 f   KDrawBitmap16.obj
 0001:000091f8       ?g_DrawBitmap16win@@YAXPAX0@Z 1000a1f8 f   KDrawBitmap16.obj
 0001:00009320       ?g_DrawFade@@YAXPAX0@Z     1000a320 f   KDrawFade.obj
 0001:00009450       ?g_DrawFont@@YAXPAX0@Z     1000a450 f   KDrawFont.obj
 0001:000095ef       ?g_DrawFontWithBorder@@YAXPAX0@Z 1000a5ef f   KDrawFont.obj
 0001:0000973f       ?g_DrawFontSolid@@YAXPAX0@Z 1000a73f f   KDrawFont.obj
 0001:000098c0       ?g_DrawSprite@@YAXPAX0@Z   1000a8c0 f   KDrawSprite.obj
 0001:00009bd9       ?g_DrawSpriteMixColor@@YAXPAX0@Z 1000abd9 f   KDrawSprite.obj
 0001:0000a019       ?g_DrawSpriteWithColor@@YAXPAX0@Z 1000b019 f   KDrawSprite.obj
 0001:0000a48a       ?g_DrawSpriteBorder@@YAXPAX0@Z 1000b48a f   KDrawSprite.obj
 0001:0000a7e0       ?g_DrawSpriteAlpha@@YAXPAX0@Z 1000b7e0 f   KDrawSpriteAlpha.obj
 0001:0000ae50       ?g_DrawSpriteAlpha@@YAXPAX0H@Z 1000be50 f   KDrawSpriteAlpha.obj
 0001:0000b76b       ?g_DrawSprite3LevelAlpha@@YAXPAX0@Z 1000c76b f   KDrawSpriteAlpha.obj
 0001:0000bae0       ??0KDirectSound@@QAE@XZ    1000cae0 f   KDSound.obj
 0001:0000bb09       ??1KDirectSound@@QAE@XZ    1000cb09 f   KDSound.obj
 0001:0000bb1c       ?Init@KDirectSound@@QAEHXZ 1000cb1c f   KDSound.obj
 0001:0000bb69       ?Exit@KDirectSound@@QAEXXZ 1000cb69 f   KDSound.obj
 0001:0000bbba       ?CreateDirectSound@KDirectSound@@AAEHXZ 1000cbba f   KDSound.obj
 0001:0000bc25       ?CreatePrimarySoundBuffer@KDirectSound@@AAEHXZ 1000cc25 f   KDSound.obj
 0001:0000bd20       ??0KScript@@QAE@ABV0@@Z    1000cd20 f i KEicScript.obj
 0001:0000bd40       ??4KScript@@QAEAAV0@ABV0@@Z 1000cd40 f i KEicScript.obj
 0001:0000bd50       ??_GKScript@@UAEPAXI@Z     1000cd50 f i KEicScript.obj
 0001:0000bd80       ??_EKScript@@UAEPAXI@Z     1000cd80 f i KEicScript.obj
 0001:0000bdf0       ??0KEicScript@@QAE@XZ      1000cdf0 f i KEicScript.obj
 0001:0000be10       ??0KEicScript@@QAE@ABV0@@Z 1000ce10 f i KEicScript.obj
 0001:0000be50       ??4KEicScript@@QAEAAV0@ABV0@@Z 1000ce50 f i KEicScript.obj
 0001:0000bea0       ??1KEicScript@@UAE@XZ      1000cea0 f i KEicScript.obj
 0001:0000bec0       ??_GKEicScript@@UAEPAXI@Z  1000cec0 f i KEicScript.obj
 0001:0000bef0       ??_EKEicScript@@UAEPAXI@Z  1000cef0 f i KEicScript.obj
 0001:0000bf60       ?Init@KEicScript@@UAEHXZ   1000cf60 f   KEicScript.obj
 0001:0000c097       ?Exit@KEicScript@@UAEXXZ   1000d097 f   KEicScript.obj
 0001:0000c0a7       ?Load@KEicScript@@UAEHPAD@Z 1000d0a7 f   KEicScript.obj
 0001:0000c0d9       ?Compile@KEicScript@@UAEHPAD@Z 1000d0d9 f   KEicScript.obj
 0001:0000c0f8       ?Execute@KEicScript@@UAEHHPAPAD@Z 1000d0f8 f   KEicScript.obj
 0001:0000c131       ?RegisterFunction@KEicScript@@UAEHPADPAX@Z 1000d131 f   KEicScript.obj
 0001:0000c150       ?Activate@KLuaScript@@QAEHXZ 1000d150 f i KEicScriptSet.obj
 0001:0000c170       ?SetScriptName@KLuaScript@@UAEXPAD@Z 1000d170 f i KEicScriptSet.obj
 0001:0000c190       ?GetUserTag@KLuaScript@@QAEHXZ 1000d190 f i KEicScriptSet.obj
 0001:0000c1b0       ?SetTableMember@KLuaScript@@QAEXHHPBD@Z 1000d1b0 f i KEicScriptSet.obj
 0001:0000c1e0       ?SetTableMember@KLuaScript@@QAEXHHN@Z 1000d1e0 f i KEicScriptSet.obj
 0001:0000c210       ?SetTableMember@KLuaScript@@QAEXHHH@Z 1000d210 f i KEicScriptSet.obj
 0001:0000c240       ?SetTableMember@KLuaScript@@QAEXHPBDP6AHPAUlua_State@@@Z@Z 1000d240 f i KEicScriptSet.obj
 0001:0000c270       ?SetTableMember@KLuaScript@@QAEXHHP6AHPAUlua_State@@@Z@Z 1000d270 f i KEicScriptSet.obj
 0001:0000c2a0       ?SetTableMember@KLuaScript@@QAEXHPBDPAD@Z 1000d2a0 f i KEicScriptSet.obj
 0001:0000c2d0       ?SetTableMember@KLuaScript@@QAEXHPBDH@Z 1000d2d0 f i KEicScriptSet.obj
 0001:0000c300       ?SetTableMember@KLuaScript@@QAEXHPBDN@Z 1000d300 f i KEicScriptSet.obj
 0001:0000c330       ??0KLuaScript@@QAE@ABV0@@Z 1000d330 f i KEicScriptSet.obj
 0001:0000c390       ??4KLuaScript@@QAEAAV0@ABV0@@Z 1000d390 f i KEicScriptSet.obj
 0001:0000c400       ??_GKLuaScript@@UAEPAXI@Z  1000d400 f i KEicScriptSet.obj
 0001:0000c430       ??_EKLuaScript@@UAEPAXI@Z  1000d430 f i KEicScriptSet.obj
 0001:0000c4a0       ?GetCount@KScriptSet@@QAEKXZ 1000d4a0 f i KEicScriptSet.obj
 0001:0000c4c0       ?GetKeyStyle@KScriptSet@@QAEHXZ 1000d4c0 f i KEicScriptSet.obj
 0001:0000c4e0       ?GetScriptFileNameFromKey@KScriptSet@@UAEPADPAD@Z 1000d4e0 f i KEicScriptSet.obj
 0001:0000c4f0       ?GetScriptFileNameFromKey@KScriptSet@@UAEPADK@Z 1000d4f0 f i KEicScriptSet.obj
 0001:0000c500       ??0KScriptSet@@QAE@ABV0@@Z 1000d500 f i KEicScriptSet.obj
 0001:0000c550       ??4KScriptSet@@QAEAAV0@ABV0@@Z 1000d550 f i KEicScriptSet.obj
 0001:0000c590       ??0KEicScriptSet@@QAE@ABV0@@Z 1000d590 f i KEicScriptSet.obj
 0001:0000c5c0       ??4KEicScriptSet@@QAEAAV0@ABV0@@Z 1000d5c0 f i KEicScriptSet.obj
 0001:0000c5e0       ??0KEicScriptSet@@QAE@XZ   1000d5e0 f   KEicScriptSet.obj
 0001:0000c5ff       ??1KEicScriptSet@@QAE@XZ   1000d5ff f   KEicScriptSet.obj
 0001:0000c620       ?g_InitEngine@@YAHXZ       1000d620 f   KEngine.obj
 0001:0000c692       ?g_ExitEngine@@YAXXZ       1000d692 f   KEngine.obj
 0001:0000c6e0       ??4KEvent@@QAEAAV0@ABV0@@Z 1000d6e0 f i KEvent.obj
 0001:0000c700       ??0KEvent@@QAE@XZ          1000d700 f   KEvent.obj
 0001:0000c736       ??1KEvent@@QAE@XZ          1000d736 f   KEvent.obj
 0001:0000c750       ?Signal@KEvent@@QAEXXZ     1000d750 f i KEvent.obj
 0001:0000c770       ?Wait@KEvent@@QAEXXZ       1000d770 f i KEvent.obj
 0001:0000c790       ?TimedWait@KEvent@@QAE_NJ@Z 1000d790 f i KEvent.obj
 0001:0000c7c0       ??0KFile@@QAE@XZ           1000d7c0 f   KFile.obj
 0001:0000c7eb       ??1KFile@@QAE@XZ           1000d7eb f   KFile.obj
 0001:0000c7fe       ?Open@KFile@@QAEHPAD@Z     1000d7fe f   KFile.obj
 0001:0000c86d       ?Create@KFile@@QAEHPAD@Z   1000d86d f   KFile.obj
 0001:0000c8dc       ?Append@KFile@@QAEHPAD@Z   1000d8dc f   KFile.obj
 0001:0000c95a       ?Close@KFile@@QAEXXZ       1000d95a f   KFile.obj
 0001:0000c999       ?Read@KFile@@QAEKPAXK@Z    1000d999 f   KFile.obj
 0001:0000c9e2       ?Write@KFile@@QAEKPAXK@Z   1000d9e2 f   KFile.obj
 0001:0000ca2b       ?Seek@KFile@@QAEKJK@Z      1000da2b f   KFile.obj
 0001:0000ca77       ?Tell@KFile@@QAEKXZ        1000da77 f   KFile.obj
 0001:0000ca95       ?Size@KFile@@QAEKXZ        1000da95 f   KFile.obj
 0001:0000caf0       ?g_DeleteFiles@@YAXPAD0@Z  1000daf0 f   KFileCopy.obj
 0001:0000cc59       ?g_UpdateFiles@@YAXPAD0@Z  1000dc59 f   KFileCopy.obj
 0001:0000ce20       ??0KFileDialog@@QAE@XZ     1000de20 f   KFileDialog.obj
 0001:0000cf31       ?SetTitle@KFileDialog@@QAEXPAD@Z 1000df31 f   KFileDialog.obj
 0001:0000cf54       ?SetFlags@KFileDialog@@QAEXK@Z 1000df54 f   KFileDialog.obj
 0001:0000cf6f       ?SetFilter@KFileDialog@@QAEXPAD@Z 1000df6f f   KFileDialog.obj
 0001:0000cfe5       ?SetDefExt@KFileDialog@@QAEXPAD@Z 1000dfe5 f   KFileDialog.obj
 0001:0000d008       ?SetFilePath@KFileDialog@@QAEXPAD@Z 1000e008 f   KFileDialog.obj
 0001:0000d059       ?SetFileName@KFileDialog@@QAEXPAD@Z 1000e059 f   KFileDialog.obj
 0001:0000d079       ?SetFileTitle@KFileDialog@@QAEXPAD@Z 1000e079 f   KFileDialog.obj
 0001:0000d09c       ?Open@KFileDialog@@QAEHXZ  1000e09c f   KFileDialog.obj
 0001:0000d0ea       ?Save@KFileDialog@@QAEHXZ  1000e0ea f   KFileDialog.obj
 0001:0000d140       ??4KPakList@@QAEAAV0@ABV0@@Z 1000e140 f i KFilePath.obj
 0001:0000d170       ?RemoveTwoPointPath@@YAHPADH@Z 1000e170 f   KFilePath.obj
 0001:0000d21a       ?RemoveOnePointPath@@YAHPADH@Z 1000e21a f   KFilePath.obj
 0001:0000d299       ?RemoveAllPointPath@@YAHPADH@Z 1000e299 f   KFilePath.obj
 0001:0000d2bb       ?g_SetRootPath@@YAXPAD@Z   1000e2bb f   KFilePath.obj
 0001:0000d327       ?g_GetRootPath@@YAXPAD@Z   1000e327 f   KFilePath.obj
 0001:0000d33d       ?g_SetFilePath@@YAXPAD@Z   1000e33d f   KFilePath.obj
 0001:0000d3de       ?g_GetFilePath@@YAXPAD@Z   1000e3de f   KFilePath.obj
 0001:0000d3f4       ?g_GetFullPath@@YAXPAD0@Z  1000e3f4 f   KFilePath.obj
 0001:0000d51b       ?g_GetHalfPath@@YAXPAD0@Z  1000e51b f   KFilePath.obj
 0001:0000d57a       ?g_GetPackPath@@YAXPAD0@Z  1000e57a f   KFilePath.obj
 0001:0000d5fc       ?g_GetDiskPath@@YAXPAD0@Z  1000e5fc f   KFilePath.obj
 0001:0000d696       ?g_CreatePath@@YAXPAD@Z    1000e696 f   KFilePath.obj
 0001:0000d819       ?g_UnitePathAndName@@YAXPAD00@Z 1000e819 f   KFilePath.obj
 0001:0000d8a8       ?g_FileExists@@YAHPAD@Z    1000e8a8 f   KFilePath.obj
 0001:0000d927       ?g_FileName2Id@@YAKPAD@Z   1000e927 f   KFilePath.obj
 0001:0000d991       ?Name2ID@@YAKPAD@Z         1000e991 f   KFilePath.obj
 0001:0000d9a2       ?g_ChangeFileExt@@YAXPAD0@Z 1000e9a2 f   KFilePath.obj
 0001:0000da23       ?g_ExtractFileName@@YAXPAD0@Z 1000ea23 f   KFilePath.obj
 0001:0000da90       ?g_ExtractFilePath@@YAXPAD0@Z 1000ea90 f   KFilePath.obj
 0001:0000db00       ??0KFindBinTreeNode@@QAE@XZ 1000eb00 f i KFindBinTree.obj
 0001:0000db40       ??1KFindBinTreeNode@@QAE@XZ 1000eb40 f i KFindBinTree.obj
 0001:0000dbc0       ?CanInsert@KFindBinTreeNode@@QAEHXZ 1000ebc0 f i KFindBinTree.obj
 0001:0000dbf0       ?GetRef@KFindBinTreeNode@@QBEHXZ 1000ebf0 f i KFindBinTree.obj
 0001:0000dc10       ??4KFindBinTreeNode@@QAEAAV0@ABV0@@Z 1000ec10 f i KFindBinTree.obj
 0001:0000dc40       ??_GKFindBinTreeNode@@QAEPAXI@Z 1000ec40 f i KFindBinTree.obj
 0001:0000dc70       ??0KFindBinTree@@QAE@XZ    1000ec70 f i KFindBinTree.obj
 0001:0000dc90       ??1KFindBinTree@@QAE@XZ    1000ec90 f i KFindBinTree.obj
 0001:0000dce0       ?GetCount@KFindBinTree@@QAEHXZ 1000ece0 f i KFindBinTree.obj
 0001:0000dd00       ??4KFindBinTree@@QAEAAV0@ABV0@@Z 1000ed00 f i KFindBinTree.obj
 0001:0000dd20       ?Init@KFindBinTreeNode@@QAEXH@Z 1000ed20 f   KFindBinTree.obj
 0001:0000de2a       ?Insert@KFindBinTreeNode@@QAEHH@Z 1000ee2a f   KFindBinTree.obj
 0001:0000de97       ?Remove@KFindBinTreeNode@@QAEXHH@Z 1000ee97 f   KFindBinTree.obj
 0001:0000df08       ?Init@KFindBinTree@@QAEXH@Z 1000ef08 f   KFindBinTree.obj
 0001:0000df91       ?FindFree@KFindBinTree@@QAEHXZ 1000ef91 f   KFindBinTree.obj
 0001:0000dfc5       ?Remove@KFindBinTree@@QAEXH@Z 1000efc5 f   KFindBinTree.obj
 0001:0000dff0       ??0KFont@@QAE@XZ           1000eff0 f   KFont.obj
 0001:0000e074       ??1KFont@@QAE@XZ           1000f074 f   KFont.obj
 0001:0000e0bc       ?Clear@KFont@@QAEXXZ       1000f0bc f   KFont.obj
 0001:0000e110       ?SetCharaset@KFont@@QAEXW4CHARASET@@@Z 1000f110 f   KFont.obj
 0001:0000e126       ?Load@KFont@@QAEHPADW4CHARASET@@@Z 1000f126 f   KFont.obj
 0001:0000e2d6       ?Save@KFont@@QAEHPAD@Z     1000f2d6 f   KFont.obj
 0001:0000e3f4       ?DrawFont@KFont@@IAEXHHH@Z 1000f3f4 f   KFont.obj
 0001:0000e4b9       ?DrawFontAlpha@KFont@@IAEXHHHH@Z 1000f4b9 f   KFont.obj
 0001:0000e582       ?DrawWord@KFont@@QAEXHHHH@Z 1000f582 f   KFont.obj
 0001:0000e670       ?DrawTextA@KFont@@QAEXHHPAD@Z 1000f670 f   KFont.obj
 0001:0000e8fb       ?DrawTextAlpha@KFont@@QAEXHHHPAD@Z 1000f8fb f   KFont.obj
 0001:0000eb95       ?SetColor@KFont@@QAEXEEE@Z 1000fb95 f   KFont.obj
 0001:0000ebd3       ?SetLine@KFont@@QAEXHH@Z   1000fbd3 f   KFont.obj
 0001:0000ebf2       ?MakeText@KFont@@QAEXPAD@Z 1000fbf2 f   KFont.obj
 0001:0000ee08       ?MakeFont@KFont@@QAEHPADHH@Z 1000fe08 f   KFont.obj
 0001:0000f09c       ?AddWord@KFont@@IAEHHPAE@Z 1001009c f   KFont.obj
 0001:0000f15e       ?GetFontRect@KFont@@IAEHHHPAVKBitmap@@PAE@Z 1001015e f   KFont.obj
 0001:0000f1d3       ?GetFontLine@KFont@@IAEHHHPAVKBitmap@@PAE@Z 100101d3 f   KFont.obj
 0001:0000f2a0       ??4KGifFile@@QAEAAV0@ABV0@@Z 100102a0 f i KGifFile.obj
 0001:0000f2d0       ??1KGifFile@@QAE@XZ        100102d0 f i KGifFile.obj
 0001:0000f2f0       ??0KGifFile@@QAE@XZ        100102f0 f   KGifFile.obj
 0001:0000f32e       ?read_byte@KGifFile@@AAEEXZ 1001032e f   KGifFile.obj
 0001:0000f366       ?read_word@KGifFile@@AAEGXZ 10010366 f   KGifFile.obj
 0001:0000f3ae       ?read_header@KGifFile@@AAEHXZ 100103ae f   KGifFile.obj
 0001:0000f4d4       ?read_color_table@KGifFile@@AAEHXZ 100104d4 f   KGifFile.obj
 0001:0000f553       ?read_image_desc@KGifFile@@AAEHXZ 10010553 f   KGifFile.obj
 0001:0000f60b       ?read_extension@KGifFile@@AAEHXZ 1001060b f   KGifFile.obj
 0001:0000f6b4       ?Open@KGifFile@@QAEHPADPAVKBitmap@@@Z 100106b4 f   KGifFile.obj
 0001:0000f830       ?FirstImage@KGifFile@@QAEHXZ 10010830 f   KGifFile.obj
 0001:0000f84f       ?NextImage@KGifFile@@QAEHXZ 1001084f f   KGifFile.obj
 0001:0000f952       ?lzw_decode@KGifFile@@AAEXXZ 10010952 f   KGifFile.obj
 0001:0000fd84       ?clear_table@KGifFile@@AAEXXZ 10010d84 f   KGifFile.obj
 0001:0000fdc6       ?get_code@KGifFile@@AAEXXZ 10010dc6 f   KGifFile.obj
 0001:0000fffc       ?get_string@KGifFile@@AAEXH@Z 10010ffc f   KGifFile.obj
 0001:00010096       ?output_string@KGifFile@@AAEXXZ 10011096 f   KGifFile.obj
 0001:00010270       ?g_RemoveSamePixel@@YAHPAVKBitmap@@0@Z 10011270 f   KGraphics.obj
 0001:00010353       ?g_RemoveDiffPixel@@YAHPAVKBitmap@@0@Z 10011353 f   KGraphics.obj
 0001:00010436       ?g_RemoveNoneZeroPixel@@YAHPAVKBitmap@@0@Z 10011436 f   KGraphics.obj
 0001:0001055d       ?g_RemoveZeroPixel@@YAHPAVKBitmap@@0@Z 1001155d f   KGraphics.obj
 0001:00010690       ??0KHashList@@QAE@ABV0@@Z  10011690 f i KHashList.obj
 0001:000106b0       ??4KHashList@@QAEAAV0@ABV0@@Z 100116b0 f i KHashList.obj
 0001:000106d0       ??1KHashList@@QAE@XZ       100116d0 f i KHashList.obj
 0001:000106f0       ??0KHashList@@QAE@XZ       100116f0 f   KHashList.obj
 0001:00010710       ??0KHashTable@@QAE@XZ      10011710 f i KHashNode.obj
 0001:00010770       ??0KHashTable@@QAE@ABV0@@Z 10011770 f i KHashNode.obj
 0001:00010810       ??4KHashTable@@QAEAAV0@ABV0@@Z 10011810 f i KHashNode.obj
 0001:00010870       ??1KHashTable@@QAE@XZ      10011870 f i KHashNode.obj
 0001:000108d0       ?SetHashTable@KHashNode@@QAEXPAVKHashTable@@@Z 100118d0 f i KHashNode.obj
 0001:000108f0       ??0KHashNode@@QAE@ABV0@@Z  100118f0 f i KHashNode.obj
 0001:00010930       ??4KHashNode@@QAEAAV0@ABV0@@Z 10011930 f i KHashNode.obj
 0001:00010960       ??1KHashNode@@UAE@XZ       10011960 f i KHashNode.obj
 0001:00010980       ??_GKHashNode@@UAEPAXI@Z   10011980 f i KHashNode.obj
 0001:000109b0       ??_EKHashNode@@UAEPAXI@Z   100119b0 f i KHashNode.obj
 0001:00010a20       ??0KHashNode@@QAE@XZ       10011a20 f   KHashNode.obj
 0001:00010a49       ?SetName@KHashNode@@UAEXPAD@Z 10011a49 f   KHashNode.obj
 0001:00010aa0       ?IsLinked@KNode@@QAEHXZ    10011aa0 f i KHashNode.obj
 0001:00010ae0       ?g_Hash@@YAKPAD@Z          10011ae0 f   KHashTable.obj
 0001:00010b37       ?Add@KHashTable@@QAEXPAVKStrNode@@@Z 10011b37 f   KHashTable.obj
 0001:00010bea       ?Delete@KHashTable@@QAEXPAD@Z 10011bea f   KHashTable.obj
 0001:00010c40       ?Find@KHashTable@@QAEPAVKStrNode@@PAD@Z 10011c40 f   KHashTable.obj
 0001:00010c80       ??4KIme@@QAEAAV0@ABV0@@Z   10011c80 f i Kime.obj
 0001:00010cb0       ??0KIme@@QAE@XZ            10011cb0 f   Kime.obj
 0001:00010d10       ??1KIme@@QAE@XZ            10011d10 f   Kime.obj
 0001:00010d25       ?ResetIme@KIme@@QAEXXZ     10011d25 f   Kime.obj
 0001:00010d3d       ?IsIme@KIme@@QAEHXZ        10011d3d f   Kime.obj
 0001:00010d83       ?OpenIME@KIme@@QAEXXZ      10011d83 f   Kime.obj
 0001:00010e98       ?CloseIME@KIme@@QAEXXZ     10011e98 f   Kime.obj
 0001:00010f36       ?TurnOff@KIme@@QAEXXZ      10011f36 f   Kime.obj
 0001:00010f48       ?TurnOn@KIme@@QAEXXZ       10011f48 f   Kime.obj
 0001:00010f5a       ?EnableLanguageChange@KIme@@QAEXXZ 10011f5a f   Kime.obj
 0001:00010f72       ?DisableLanguageChange@KIme@@QAEXXZ 10011f72 f   Kime.obj
 0001:00010f83       ?SetCaretPos@KIme@@QAEXHH@Z 10011f83 f   Kime.obj
 0001:00010ff4       ?WndMsg@KIme@@QAEHPAUHWND__@@IIJ@Z 10011ff4 f   Kime.obj
 0001:00011110       ?g_SetIniCodec@@YAXH@Z     10012110 f   KIniFile.obj
 0001:0001111d       ??0KIniFile@@QAE@XZ        1001211d f   KIniFile.obj
 0001:00011171       ??1KIniFile@@QAE@XZ        10012171 f   KIniFile.obj
 0001:000111bc       ?Load@KIniFile@@QAEHPBD@Z  100121bc f   KIniFile.obj
 0001:00011306       ?LoadPack@KIniFile@@QAEHPBD@Z 10012306 f   KIniFile.obj
 0001:000114e5       ?Save@KIniFile@@QAEHPBD@Z  100124e5 f   KIniFile.obj
 0001:000116af       ?SavePack@KIniFile@@QAEHPBD@Z 100126af f   KIniFile.obj
 0001:000118f8       ?Clear@KIniFile@@QAEXXZ    100128f8 f   KIniFile.obj
 0001:0001190b       ?ReadLine@KIniFile@@AAEHPADJ@Z 1001290b f   KIniFile.obj
 0001:000119c3       ?IsKeyChar@KIniFile@@AAEHD@Z 100129c3 f   KIniFile.obj
 0001:00011a1d       ?CreateIniLink@KIniFile@@AAEXPAXJ@Z 10012a1d f   KIniFile.obj
 0001:00011af9       ?ReleaseIniLink@KIniFile@@AAEXXZ 10012af9 f   KIniFile.obj
 0001:00011bd3       ?SplitKeyValue@KIniFile@@AAEPADPAD@Z 10012bd3 f   KIniFile.obj
 0001:00011c16       ?String2Id@KIniFile@@AAEKPBD@Z 10012c16 f   KIniFile.obj
 0001:00011c7b       ?IsSectionExist@KIniFile@@QAEHPBD@Z 10012c7b f   KIniFile.obj
 0001:00011d1e       ?EraseSection@KIniFile@@QAEXPBD@Z 10012d1e f   KIniFile.obj
 0001:00011e28       ?EraseKey@KIniFile@@QAEXPBD0@Z 10012e28 f   KIniFile.obj
 0001:00011f52       ?SetKeyValue@KIniFile@@AAEHPBD00@Z 10012f52 f   KIniFile.obj
 0001:000121bf       ?GetKeyValue@KIniFile@@AAEHPBD0PADK@Z 100131bf f   KIniFile.obj
 0001:000122c0       ?GetString@KIniFile@@QAEHPBD00PADK@Z 100132c0 f   KIniFile.obj
 0001:00012306       ?GetInteger@KIniFile@@QAEHPBD0HPAH@Z 10013306 f   KIniFile.obj
 0001:00012352       ?GetInteger2@KIniFile@@QAEXPBD0PAH1@Z 10013352 f   KIniFile.obj
 0001:000123d6       ?GetInteger3@KIniFile@@QAEXPBD0PAH11@Z 100133d6 f   KIniFile.obj
 0001:000124c7       ?GetFloat@KIniFile@@QAEHPBD0MPAM@Z 100134c7 f   KIniFile.obj
 0001:00012513       ?GetFloat2@KIniFile@@QAEXPBD0PAM1@Z 10013513 f   KIniFile.obj
 0001:00012597       ?GetStruct@KIniFile@@QAEXPBD0PAXK@Z 10013597 f   KIniFile.obj
 0001:0001272b       ?WriteString@KIniFile@@QAEXPBD00@Z 1001372b f   KIniFile.obj
 0001:0001274c       ?WriteInteger@KIniFile@@QAEXPBD0H@Z 1001374c f   KIniFile.obj
 0001:00012785       ?WriteInteger2@KIniFile@@QAEXPBD0HH@Z 10013785 f   KIniFile.obj
 0001:000127c2       ?WriteInteger3@KIniFile@@QAEXPBD0HHH@Z 100137c2 f   KIniFile.obj
 0001:00012803       ?WriteDword@KIniFile@@QAEXPBD0K@Z 10013803 f   KIniFile.obj
 0001:0001283c       ?WriteFloat@KIniFile@@QAEXPBD0M@Z 1001383c f   KIniFile.obj
 0001:0001287a       ?WriteFloat2@KIniFile@@QAEXPBD0MM@Z 1001387a f   KIniFile.obj
 0001:000128c1       ?WriteStruct@KIniFile@@QAEXPBD0PAXK@Z 100138c1 f   KIniFile.obj
 0001:00012989       ?GetNextSection@KIniFile@@QAEHPBDPAD@Z 10013989 f   KIniFile.obj
 0001:00012a9e       ?GetNextKey@KIniFile@@QAEHPBD0PAD@Z 10013a9e f   KIniFile.obj
 0001:00012bfa       ?GetSectionCount@KIniFile@@QAEHXZ 10013bfa f   KIniFile.obj
 0001:00012c91       ?GetRect@KIniFile@@QAEXPBD0PAUtagRECT@@@Z 10013c91 f   KIniFile.obj
 0001:00012d67       ?GetFloat3@KIniFile@@QAEXPBD0PAM@Z 10013d67 f   KIniFile.obj
 0001:00012dc6       ?GetFloat4@KIniFile@@QAEXPBD0PAM@Z 10013dc6 f   KIniFile.obj
 0001:00012e2c       ?GetBool@KIniFile@@QAEXPBD0PAH@Z 10013e2c f   KIniFile.obj
 0001:00012e80       ??0KJpgFile@@QAE@XZ        10013e80 f i KJpgFile.obj
 0001:00012ea0       ??4KJpgFile@@QAEAAV0@ABV0@@Z 10013ea0 f i KJpgFile.obj
 0001:00012ec0       ??1KJpgFile@@QAE@XZ        10013ec0 f i KJpgFile.obj
 0001:00012ee0       ?Load@KJpgFile@@QAEHPADPAVKBitmap16@@I@Z 10013ee0 f   KJpgFile.obj
 0001:000130b0       ?GetFuncKey@KKeyboard@@QAEEXZ 100140b0 f i KKeyboard.obj
 0001:000130d0       ??4KKeyboard@@QAEAAV0@ABV0@@Z 100140d0 f i KKeyboard.obj
 0001:00013100       ??0KKeyboard@@QAE@XZ       10014100 f   KKeyboard.obj
 0001:0001313e       ?UpdateState@KKeyboard@@QAEXXZ 1001413e f   KKeyboard.obj
 0001:000131b7       ?IsDown@KKeyboard@@QAEHE@Z 100141b7 f   KKeyboard.obj
 0001:000131e1       ?MakeFuncKey@KKeyboard@@IAEXXZ 100141e1 f   KKeyboard.obj
 0001:0001327c       ?MakeMessage@KKeyboard@@IAEXH@Z 1001427c f   KKeyboard.obj
 0001:00013340       ??0KLinkArray@@QAE@XZ      10014340 f i KLinkArray.obj
 0001:00013370       ?GetCount@KLinkArray@@QAEHXZ 10014370 f i KLinkArray.obj
 0001:00013390       ?GetNode@KLinkArray@@QAEPAVKLinkNode@@H@Z 10014390 f i KLinkArray.obj
 0001:000133b0       ?GetNext@KLinkArray@@QBEHH@Z 100143b0 f i KLinkArray.obj
 0001:000133e0       ?GetPrev@KLinkArray@@QBEHH@Z 100143e0 f i KLinkArray.obj
 0001:00013410       ??4KLinkArray@@QAEAAV0@ABV0@@Z 10014410 f i KLinkArray.obj
 0001:00013430       ??1KLinkArray@@QAE@XZ      10014430 f   KLinkArray.obj
 0001:00013462       ?Init@KLinkArray@@QAEXH@Z  10014462 f   KLinkArray.obj
 0001:0001351c       ?Remove@KLinkArray@@QAEXH@Z 1001451c f   KLinkArray.obj
 0001:000135db       ?Insert@KLinkArray@@QAEXH@Z 100145db f   KLinkArray.obj
 0001:00013660       ??0KLinkNode@@QAE@XZ       10014660 f i KLinkArray.obj
 0001:00013690       ??_H@YGXPAXIHP6EX0@Z@Z     10014690 f i KLinkArray.obj
 0001:000136c0       ??0KLuaScript@@QAE@XZ      100146c0 f   KLuaScript.obj
 0001:0001374d       ??0KLuaScript@@QAE@H@Z     1001474d f   KLuaScript.obj
 0001:000137de       ??1KLuaScript@@UAE@XZ      100147de f   KLuaScript.obj
 0001:0001382f       ?LoadBuffer@KLuaScript@@QAEHPAEK@Z 1001482f f   KLuaScript.obj
 0001:00013881       ?Load@KLuaScript@@UAEHPAD@Z 10014881 f   KLuaScript.obj
 0001:00013b05       ?Execute@KLuaScript@@UAEHXZ 10014b05 f   KLuaScript.obj
 0001:00013b41       ?ExecuteCode@KLuaScript@@QAEHXZ 10014b41 f   KLuaScript.obj
 0001:00013ba4       ?CallFunction@KLuaScript@@AAEHPADH00@Z 10014ba4 f   KLuaScript.obj
 0001:00013e44       ?CallFunction@KLuaScript@@UAAHPADH0ZZ 10014e44 f   KLuaScript.obj
 0001:00013e80       ?GetValuesFromStack@KLuaScript@@QAAHPADZZ 10014e80 f   KLuaScript.obj
 0001:000140cb       ?Init@KLuaScript@@UAEHXZ   100150cb f   KLuaScript.obj
 0001:00014145       ?RegisterFunction@KLuaScript@@UAEHPADPAX@Z 10015145 f   KLuaScript.obj
 0001:0001418e       ?Compile@KLuaScript@@UAEHPAD@Z 1001518e f   KLuaScript.obj
 0001:000141a0       ?RegisterFunctions@KLuaScript@@QAEHQAUTLua_Funcs@@H@Z 100151a0 f   KLuaScript.obj
 0001:00014221       ?RegisterStandardFunctions@KLuaScript@@QAEXXZ 10015221 f   KLuaScript.obj
 0001:00014277       ?Exit@KLuaScript@@UAEXXZ   10015277 f   KLuaScript.obj
 0001:000142b1       ?ScriptError@KLuaScript@@QAEXH@Z 100152b1 f   KLuaScript.obj
 0001:000142f9       ?ScriptError@KLuaScript@@QAEXHH@Z 100152f9 f   KLuaScript.obj
 0001:00014345       ?SafeCallBegin@KLuaScript@@QAEXPAH@Z 10015345 f   KLuaScript.obj
 0001:00014371       ?SafeCallEnd@KLuaScript@@QAEXH@Z 10015371 f   KLuaScript.obj
 0001:0001439d       ?Stop@KLuaScript@@QAEHXZ   1001539d f   KLuaScript.obj
 0001:000143d4       ?Resume@KLuaScript@@QAEHXZ 100153d4 f   KLuaScript.obj
 0001:00014404       ?CreateTable@KLuaScript@@QAEKXZ 10015404 f   KLuaScript.obj
 0001:00014461       ?SetGlobalName@KLuaScript@@QAEXPAD@Z 10015461 f   KLuaScript.obj
 0001:0001448a       ?ModifyTable@KLuaScript@@QAEKPAD@Z 1001548a f   KLuaScript.obj
 0001:00014500       ?GetMemPtr@KMemClass1@@QAEPAXXZ 10015500 f i KLubCmpl_Blocker.obj
 0001:00014520       ?GetMemLen@KMemClass1@@QAEKXZ 10015520 f i KLubCmpl_Blocker.obj
 0001:00014530       ??4KMemClass1@@QAEAAV0@ABV0@@Z 10015530 f i KLubCmpl_Blocker.obj
 0001:00014550       ?ScanIf@KLubCmpl_Blocker@@QAEXPAVKLineNode@@@Z 10015550 f   KLubCmpl_Blocker.obj
 0001:000149be       ?ExchangeCurLines@KLubCmpl_Blocker@@QAEHXZ 100159be f   KLubCmpl_Blocker.obj
 0001:000158f1       ?Load@KLubCmpl_Blocker@@QAEPAVKLineNode@@PAD@Z 100168f1 f   KLubCmpl_Blocker.obj
 0001:00015ba7       ?PushKey@KLubCmpl_Blocker@@QAEXPAVKStackNode@@@Z 10016ba7 f   KLubCmpl_Blocker.obj
 0001:00015be3       ?PopKey@KLubCmpl_Blocker@@QAEPAVKStackNode@@XZ 10016be3 f   KLubCmpl_Blocker.obj
 0001:00015c23       ?GetBuffer@KLubCmpl_Blocker@@QAEHAAPAVKMemClass1@@@Z 10016c23 f   KLubCmpl_Blocker.obj
 0001:00015d9e       ?Write@KLubCmpl_Blocker@@QAEHPAD@Z 10016d9e f   KLubCmpl_Blocker.obj
 0001:00015ead       ?Print@KLubCmpl_Blocker@@QAEXXZ 10016ead f   KLubCmpl_Blocker.obj
 0001:00015f20       ??0KStackNode@@QAE@XZ      10016f20 f i KLubCmpl_Blocker.obj
 0001:00015f40       ??_GKStackNode@@UAEPAXI@Z  10016f40 f i KLubCmpl_Blocker.obj
 0001:00015f40       ??_EKStackNode@@UAEPAXI@Z  10016f40 f i KLubCmpl_Blocker.obj
 0001:00015f70       ??1KStackNode@@UAE@XZ      10016f70 f i KLubCmpl_Blocker.obj
 0001:00015f90       ?InsertBefore@KNode@@QAEXPAV1@@Z 10016f90 f i KLubCmpl_Blocker.obj
 0001:00015fe0       ?AddTail@KList@@QAEXPAVKNode@@@Z 10016fe0 f i KLubCmpl_Blocker.obj
 0001:00016000       ??0KLineNode@@QAE@XZ       10017000 f i KLubCmpl_Blocker.obj
 0001:00016020       ??_GKLineNode@@UAEPAXI@Z   10017020 f i KLubCmpl_Blocker.obj
 0001:00016020       ??_EKLineNode@@UAEPAXI@Z   10017020 f i KLubCmpl_Blocker.obj
 0001:00016050       ??1KLineNode@@UAE@XZ       10017050 f i KLubCmpl_Blocker.obj
 0001:000160af       ?g_MemInfo@@YAXXZ          100170af f   KMemBase.obj
 0001:000160b4       ?g_MemAlloc@@YAPAXK@Z      100170b4 f   KMemBase.obj
 0001:0001613f       ?g_MemFree@@YAXPAX@Z       1001713f f   KMemBase.obj
 0001:0001619c       ?g_MemCopy@@YAXPAX0K@Z     1001719c f   KMemBase.obj
 0001:000161be       ?g_MemCopyMmx@@YAXPAX0K@Z  100171be f   KMemBase.obj
 0001:000161f2       ?g_MemComp@@YAHPAX0K@Z     100171f2 f   KMemBase.obj
 0001:00016221       ?g_MemFill@@YAXPAXKE@Z     10017221 f   KMemBase.obj
 0001:0001624e       ?g_MemFill@@YAXPAXKG@Z     1001724e f   KMemBase.obj
 0001:0001627a       ?g_MemFill@@YAXPAXKK@Z     1001727a f   KMemBase.obj
 0001:00016290       ?g_MemZero@@YAXPAXK@Z      10017290 f   KMemBase.obj
 0001:000162b1       ?g_MemXore@@YAXPAXKK@Z     100172b1 f   KMemBase.obj
 0001:000162e0       ??1KMemList@@QAE@XZ        100172e0 f i KMemBase.obj
 0001:00016340       ??0KMemList@@QAE@XZ        10017340 f i KMemBase.obj
 0001:00016360       ??0KMemClass@@QAE@XZ       10017360 f   KMemClass.obj
 0001:00016381       ??1KMemClass@@QAE@XZ       10017381 f   KMemClass.obj
 0001:00016394       ?Alloc@KMemClass@@QAEPAXK@Z 10017394 f   KMemClass.obj
 0001:000163ea       ?Free@KMemClass@@QAEXXZ    100173ea f   KMemClass.obj
 0001:0001641e       ?Zero@KMemClass@@QAEXXZ    1001741e f   KMemClass.obj
 0001:00016446       ?Fill@KMemClass@@QAEXE@Z   10017446 f   KMemClass.obj
 0001:00016474       ?Fill@KMemClass@@QAEXG@Z   10017474 f   KMemClass.obj
 0001:000164a3       ?Fill@KMemClass@@QAEXK@Z   100174a3 f   KMemClass.obj
 0001:000164e0       ?Alloc@KMemClass1@@QAEPAXK@Z 100174e0 f   KMemClass1.obj
 0001:00016515       ?Free@KMemClass1@@QAEXXZ   10017515 f   KMemClass1.obj
 0001:0001657f       ??0KMemManager@@QAE@XZ     1001757f f   KMemManager.obj
 0001:00016606       ??1KMemManager@@QAE@XZ     10017606 f   KMemManager.obj
 0001:000166be       ?NewChunk@KMemManager@@AAEPAXHH@Z 100176be f   KMemManager.obj
 0001:0001678f       ?FreeChunk@KMemManager@@AAEXPAUKChunkHeader@1@@Z 1001778f f   KMemManager.obj
 0001:000167b0       ?Malloc@KMemManager@@QAEPAXH@Z 100177b0 f   KMemManager.obj
 0001:00016900       ?Calloc@KMemManager@@QAEPAXH@Z 10017900 f   KMemManager.obj
 0001:00016931       ?Free@KMemManager@@QAEXPAX@Z 10017931 f   KMemManager.obj
 0001:00016a00       ??0KMemStack@@QAE@XZ       10017a00 f   KMemStack.obj
 0001:00016a44       ??1KMemStack@@QAE@XZ       10017a44 f   KMemStack.obj
 0001:00016a57       ?Init@KMemStack@@QAEXH@Z   10017a57 f   KMemStack.obj
 0001:00016a75       ?Push@KMemStack@@QAEPAXH@Z 10017a75 f   KMemStack.obj
 0001:00016ae7       ?Free@KMemStack@@QAEXPAX@Z 10017ae7 f   KMemStack.obj
 0001:00016af4       ?AllocNewChunk@KMemStack@@QAEHXZ 10017af4 f   KMemStack.obj
 0001:00016b71       ?FreeAllChunks@KMemStack@@QAEXXZ 10017b71 f   KMemStack.obj
 0001:00016bda       ?GetChunkSize@KMemStack@@QAEHXZ 10017bda f   KMemStack.obj
 0001:00016beb       ?GetStackSize@KMemStack@@QAEHXZ 10017beb f   KMemStack.obj
 0001:00016c4f       ?g_SendMessage@@YAXHHHH@Z  10017c4f f   KMessage.obj
 0001:00016cc4       ?g_PeekMessage@@YAHPAUKMessage@@@Z 10017cc4 f   KMessage.obj
 0001:00016d20       ?g_GetMessage@@YAHPAUKMessage@@@Z 10017d20 f   KMessage.obj
 0001:00016da1       ?g_ClearMessage@@YAXXZ     10017da1 f   KMessage.obj
 0001:00016dc0       ?SetWorkingMode@KMouse@@QAEXE@Z 10017dc0 f i KMouse.obj
 0001:00016de0       ?SetKeyState@KMouse@@QAEXE@Z 10017de0 f i KMouse.obj
 0001:00016e00       ??4KMouse@@QAEAAV0@ABV0@@Z 10017e00 f i KMouse.obj
 0001:00016e30       ??0KMouse@@QAE@XZ          10017e30 f   KMouse.obj
 0001:00016eb2       ?SetWorkingRect@KMouse@@QAEXPAUtagRECT@@@Z 10017eb2 f   KMouse.obj
 0001:00016edb       ?SetPos@KMouse@@QAEXPAUtagPOINT@@@Z 10017edb f   KMouse.obj
 0001:00016eff       ?GetPos@KMouse@@QAEXPAUtagPOINT@@@Z 10017eff f   KMouse.obj
 0001:00016f23       ?UpdateState@KMouse@@QAEXXZ 10017f23 f   KMouse.obj
 0001:0001703a       ?MakeMessage@KMouse@@IAEXHHEE@Z 1001803a f   KMouse.obj
 0001:00017240       ??4KThread@@QAEAAV0@ABV0@@Z 10018240 f i KMp3Music.obj
 0001:00017270       ??0KMusic@@QAE@ABV0@@Z     10018270 f i KMp3Music.obj
 0001:00017340       ??4KMusic@@QAEAAV0@ABV0@@Z 10018340 f i KMp3Music.obj
 0001:00017440       ??_GKMusic@@UAEPAXI@Z      10018440 f i KMp3Music.obj
 0001:00017470       ??_EKMusic@@UAEPAXI@Z      10018470 f i KMp3Music.obj
 0001:000174e0       ??0KMp3Music@@QAE@XZ       100184e0 f i KMp3Music.obj
 0001:00017550       ??0KMp3Music@@QAE@ABV0@@Z  10018550 f i KMp3Music.obj
 0001:00017600       ??4KMp3Music@@QAEAAV0@ABV0@@Z 10018600 f i KMp3Music.obj
 0001:000176a0       ??1KMp3Music@@UAE@XZ       100186a0 f i KMp3Music.obj
 0001:00017700       ??_GKMp3Music@@UAEPAXI@Z   10018700 f i KMp3Music.obj
 0001:00017730       ??_EKMp3Music@@UAEPAXI@Z   10018730 f i KMp3Music.obj
 0001:000177b0       ?Open@KMp3Music@@UAEHPAD@Z 100187b0 f   KMp3Music.obj
 0001:00017806       ?InitSoundFormat@KMp3Music@@MAEXXZ 10018806 f   KMp3Music.obj
 0001:0001784b       ?ReadWaveData@KMp3Music@@MAEKPAEK@Z 1001884b f   KMp3Music.obj
 0001:0001786b       ?Seek@KMp3Music@@UAEXH@Z   1001886b f   KMp3Music.obj
 0001:00017878       ?Rewind@KMp3Music@@UAEXXZ  10018878 f   KMp3Music.obj
 0001:0001789d       ?Mp3FileOpen@KMp3Music@@MAEHPAD@Z 1001889d f   KMp3Music.obj
 0001:000178b9       ?Mp3FileRead@KMp3Music@@MAEKPAEK@Z 100188b9 f   KMp3Music.obj
 0001:000178d9       ?Mp3FileSeek@KMp3Music@@MAEKJ@Z 100188d9 f   KMp3Music.obj
 0001:000178f7       ?Mp3Init@KMp3Music@@MAEHXZ 100188f7 f   KMp3Music.obj
 0001:00017a8a       ?Mp3Decode@KMp3Music@@MAEKPAEK@Z 10018a8a f   KMp3Music.obj
 0001:00017b8d       ?Mp3FillBuffer@KMp3Music@@MAEHXZ 10018b8d f   KMp3Music.obj
 0001:00017c50       ??0KMp4Audio@@QAE@XZ       10018c50 f i KMp4Audio.obj
 0001:00017cb0       ??0KMp4Audio@@QAE@ABV0@@Z  10018cb0 f i KMp4Audio.obj
 0001:00017d00       ??4KMp4Audio@@QAEAAV0@ABV0@@Z 10018d00 f i KMp4Audio.obj
 0001:00017d40       ??1KMp4Audio@@UAE@XZ       10018d40 f i KMp4Audio.obj
 0001:00017d90       ??_GKMp4Audio@@UAEPAXI@Z   10018d90 f i KMp4Audio.obj
 0001:00017dc0       ??_EKMp4Audio@@UAEPAXI@Z   10018dc0 f i KMp4Audio.obj
 0001:00017e40       ?Seek@KMp4Audio@@UAEXH@Z   10018e40 f   KMp4Audio.obj
 0001:00017e6c       ?Rewind@KMp4Audio@@UAEXXZ  10018e6c f   KMp4Audio.obj
 0001:00017e92       ?Mp3FileOpen@KMp4Audio@@MAEHPAD@Z 10018e92 f   KMp4Audio.obj
 0001:00017efb       ?Mp3FileRead@KMp4Audio@@MAEKPAEK@Z 10018efb f   KMp4Audio.obj
 0001:00017f1e       ?Mp3FileSeek@KMp4Audio@@MAEKJ@Z 10018f1e f   KMp4Audio.obj
 0001:00017f40       ??0KVideo@@QAE@ABV0@@Z     10018f40 f i KMp4Movie.obj
 0001:00018050       ??4KVideo@@QAEAAV0@ABV0@@Z 10019050 f i KMp4Movie.obj
 0001:00018180       ??0KMp4Video@@QAE@ABV0@@Z  10019180 f i KMp4Movie.obj
 0001:000181e0       ??4KMp4Video@@QAEAAV0@ABV0@@Z 100191e0 f i KMp4Movie.obj
 0001:00018230       ??0KMp4Movie@@QAE@XZ       10019230 f i KMp4Movie.obj
 0001:00018290       ??0KMp4Movie@@QAE@ABV0@@Z  10019290 f i KMp4Movie.obj
 0001:00018300       ??4KMp4Movie@@QAEAAV0@ABV0@@Z 10019300 f i KMp4Movie.obj
 0001:00018340       ??1KMp4Movie@@QAE@XZ       10019340 f i KMp4Movie.obj
 0001:00018390       ?Open@KMp4Movie@@QAEHPAD@Z 10019390 f   KMp4Movie.obj
 0001:000183c9       ?Close@KMp4Movie@@QAEXXZ   100193c9 f   KMp4Movie.obj
 0001:000183f4       ?Play@KMp4Movie@@QAEXHHH@Z 100193f4 f   KMp4Movie.obj
 0001:0001843a       ?Stop@KMp4Movie@@QAEXXZ    1001943a f   KMp4Movie.obj
 0001:00018465       ?Seek@KMp4Movie@@QAEXH@Z   10019465 f   KMp4Movie.obj
 0001:0001849a       ?Rewind@KMp4Movie@@QAEXXZ  1001949a f   KMp4Movie.obj
 0001:000184c5       ?WaitForEnd@KMp4Movie@@QAEXXZ 100194c5 f   KMp4Movie.obj
 0001:00018550       ??0KMp4Video@@QAE@XZ       10019550 f   KMp4Video.obj
 0001:000185b7       ??1KMp4Video@@QAE@XZ       100195b7 f   KMp4Video.obj
 0001:0001861a       ?Open@KMp4Video@@UAEHPAD@Z 1001961a f   KMp4Video.obj
 0001:0001869a       ?Close@KMp4Video@@UAEXXZ   1001969a f   KMp4Video.obj
 0001:000186db       ?Seek@KMp4Video@@UAEXH@Z   100196db f   KMp4Video.obj
 0001:000186fa       ?Rewind@KMp4Video@@UAEXXZ  100196fa f   KMp4Video.obj
 0001:00018713       ?NextFrame@KMp4Video@@MAEHXZ 10019713 f   KMp4Video.obj
 0001:000187c5       ?DrawFrame@KMp4Video@@IAEXXZ 100197c5 f   KMp4Video.obj
 0001:00018863       ?DivXInit@KMp4Video@@AAEHXZ 10019863 f   KMp4Video.obj
 0001:00018afe       ?DivXDecode@KMp4Video@@AAEXH@Z 10019afe f   KMp4Video.obj
 0001:00018b55       ?DivXExit@KMp4Video@@AAEXXZ 10019b55 f   KMp4Video.obj
 0001:00018ba0       ??0KMpgMusic@@QAE@XZ       10019ba0 f i KMpgMusic.obj
 0001:00018c20       ??0KMpgMusic@@QAE@ABV0@@Z  10019c20 f i KMpgMusic.obj
 0001:00018cd0       ??4KMpgMusic@@QAEAAV0@ABV0@@Z 10019cd0 f i KMpgMusic.obj
 0001:00018d80       ??1KMpgMusic@@UAE@XZ       10019d80 f i KMpgMusic.obj
 0001:00018df0       ??_GKMpgMusic@@UAEPAXI@Z   10019df0 f i KMpgMusic.obj
 0001:00018e20       ??_EKMpgMusic@@UAEPAXI@Z   10019e20 f i KMpgMusic.obj
 0001:00018ea0       ?Open@KMpgMusic@@UAEHPAD@Z 10019ea0 f   KMpgMusic.obj
 0001:00018ef3       ?InitSoundFormat@KMpgMusic@@MAEXXZ 10019ef3 f   KMpgMusic.obj
 0001:00018f38       ?ReadWaveData@KMpgMusic@@MAEKPAEK@Z 10019f38 f   KMpgMusic.obj
 0001:00018f55       ?Seek@KMpgMusic@@UAEXH@Z   10019f55 f   KMpgMusic.obj
 0001:00018f62       ?Rewind@KMpgMusic@@UAEXXZ  10019f62 f   KMpgMusic.obj
 0001:00018f87       ?Mp3FileOpen@KMpgMusic@@MAEHPAD@Z 10019f87 f   KMpgMusic.obj
 0001:00018fa3       ?Mp3FileRead@KMpgMusic@@MAEKPAEK@Z 10019fa3 f   KMpgMusic.obj
 0001:00018fc3       ?Mp3FileSeek@KMpgMusic@@MAEKJ@Z 10019fc3 f   KMpgMusic.obj
 0001:00018fe1       ?Mp3Init@KMpgMusic@@AAEHXZ 10019fe1 f   KMpgMusic.obj
 0001:0001926b       ?Mp3Decode@KMpgMusic@@AAEKPAEK@Z 1001a26b f   KMpgMusic.obj
 0001:00019360       ?Mp3FillBuffer@KMpgMusic@@AAEHXZ 1001a360 f   KMpgMusic.obj
 0001:00019430       ?GetMsgBuf@KMsgNode@@QAEPAXXZ 1001a430 f i KMsgNode.obj
 0001:00019450       ?GetMsgLen@KMsgNode@@QAEKXZ 1001a450 f i KMsgNode.obj
 0001:00019470       ?SetPtr@KMsgNode@@QAEXPAX@Z 1001a470 f i KMsgNode.obj
 0001:00019490       ?GetPtr@KMsgNode@@QAEPAXXZ 1001a490 f i KMsgNode.obj
 0001:000194b0       ??0KMsgNode@@QAE@ABV0@@Z   1001a4b0 f i KMsgNode.obj
 0001:00019500       ??4KMsgNode@@QAEAAV0@ABV0@@Z 1001a500 f i KMsgNode.obj
 0001:00019540       ??_GKMsgNode@@UAEPAXI@Z    1001a540 f i KMsgNode.obj
 0001:00019570       ??_EKMsgNode@@UAEPAXI@Z    1001a570 f i KMsgNode.obj
 0001:000195e0       ??0KMsgNode@@QAE@XZ        1001a5e0 f   KMsgNode.obj
 0001:00019613       ??1KMsgNode@@UAE@XZ        1001a613 f   KMsgNode.obj
 0001:00019676       ?SetMsg@KMsgNode@@QAEXPAXK@Z 1001a676 f   KMsgNode.obj
 0001:000196e0       ??0KMusic@@QAE@XZ          1001a6e0 f   KMusic.obj
 0001:00019748       ??1KMusic@@UAE@XZ          1001a748 f   KMusic.obj
 0001:0001979c       ?ThreadFunction@KMusic@@KAXPAX@Z 1001a79c f   KMusic.obj
 0001:000197c6       ?Open@KMusic@@UAEHPAD@Z    1001a7c6 f   KMusic.obj
 0001:000197d5       ?Init@KMusic@@MAEHXZ       1001a7d5 f   KMusic.obj
 0001:0001985c       ?Close@KMusic@@UAEXXZ      1001a85c f   KMusic.obj
 0001:000198ab       ?InitSoundFormat@KMusic@@MAEXXZ 1001a8ab f   KMusic.obj
 0001:000198b6       ?InitSoundBuffer@KMusic@@MAEHXZ 1001a8b6 f   KMusic.obj
 0001:00019955       ?FreeSoundBuffer@KMusic@@MAEXXZ 1001a955 f   KMusic.obj
 0001:00019996       ?InitEventHandle@KMusic@@MAEHXZ 1001a996 f   KMusic.obj
 0001:00019a05       ?FreeEventHandle@KMusic@@MAEXXZ 1001aa05 f   KMusic.obj
 0001:00019a58       ?InitSoundNotify@KMusic@@MAEHXZ 1001aa58 f   KMusic.obj
 0001:00019b16       ?FreeSoundNotify@KMusic@@MAEXXZ 1001ab16 f   KMusic.obj
 0001:00019b57       ?HandleNotify@KMusic@@UAEHXZ 1001ab57 f   KMusic.obj
 0001:00019ba4       ?FillBufferWithSound@KMusic@@MAEHK@Z 1001aba4 f   KMusic.obj
 0001:00019ca8       ?FillBufferWithSilence@KMusic@@MAEHXZ 1001aca8 f   KMusic.obj
 0001:00019d35       ?ReadWaveData@KMusic@@MAEKPAEK@Z 1001ad35 f   KMusic.obj
 0001:00019d44       ?Play@KMusic@@UAEXH@Z      1001ad44 f   KMusic.obj
 0001:00019d7b       ?Stop@KMusic@@UAEXXZ       1001ad7b f   KMusic.obj
 0001:00019da1       ?IsPlaying@KMusic@@UAEHXZ  1001ada1 f   KMusic.obj
 0001:00019df9       ?SetVolume@KMusic@@UAEXJ@Z 1001adf9 f   KMusic.obj
 0001:00019e25       ?Rewind@KMusic@@UAEXXZ     1001ae25 f   KMusic.obj
 0001:00019e30       ??0KMutex@@QAE@XZ          1001ae30 f   KMutex.obj
 0001:00019e48       ??1KMutex@@QAE@XZ          1001ae48 f   KMutex.obj
 0001:00019e5d       ?Lock@KMutex@@QAEXXZ       1001ae5d f   KMutex.obj
 0001:00019e72       ?Unlock@KMutex@@QAEXXZ     1001ae72 f   KMutex.obj
 0001:00019e90       ??0KOctreeNode@@QAE@ABV0@@Z 1001ae90 f i KOctree.obj
 0001:00019f00       ??4KOctreeNode@@QAEAAV0@ABV0@@Z 1001af00 f i KOctree.obj
 0001:00019f80       ??_GKOctreeNode@@UAEPAXI@Z 1001af80 f i KOctree.obj
 0001:00019fb0       ??_EKOctreeNode@@UAEPAXI@Z 1001afb0 f i KOctree.obj
 0001:0001a020       ??0KOctree@@QAE@ABV0@@Z    1001b020 f i KOctree.obj
 0001:0001a090       ??4KOctree@@QAEAAV0@ABV0@@Z 1001b090 f i KOctree.obj
 0001:0001a0f0       ??_GKOctree@@UAEPAXI@Z     1001b0f0 f i KOctree.obj
 0001:0001a120       ??_EKOctree@@UAEPAXI@Z     1001b120 f i KOctree.obj
 0001:0001a190       ??0KOctree@@QAE@XZ         1001b190 f   KOctree.obj
 0001:0001a1da       ??1KOctree@@UAE@XZ         1001b1da f   KOctree.obj
 0001:0001a24a       ?Insert@KOctree@@QAEXEEE@Z 1001b24a f   KOctree.obj
 0001:0001a285       ?ReduceNode@KOctree@@QAEXXZ 1001b285 f   KOctree.obj
 0001:0001a2d0       ?GetMinSumNode@KOctree@@QAEXPAVKOctreeNode@@@Z 1001b2d0 f   KOctree.obj
 0001:0001a35e       ?InitPalette@KOctree@@QAEXXZ 1001b35e f   KOctree.obj
 0001:0001a391       ?MakePalette@KOctree@@QAEXPAVKOctreeNode@@@Z 1001b391 f   KOctree.obj
 0001:0001a465       ?QueryIndex@KOctree@@QAEHEEE@Z 1001b465 f   KOctree.obj
 0001:0001a490       ??0KOctreeNode@@QAE@XZ     1001b490 f   KOctreeNode.obj
 0001:0001a503       ??1KOctreeNode@@UAE@XZ     1001b503 f   KOctreeNode.obj
 0001:0001a51f       ?Free@KOctreeNode@@QAEXXZ  1001b51f f   KOctreeNode.obj
 0001:0001a592       ?Insert@KOctreeNode@@QAEHEEEHH@Z 1001b592 f   KOctreeNode.obj
 0001:0001a754       ?QueryIndex@KOctreeNode@@QAEHEEEH@Z 1001b754 f   KOctreeNode.obj
 0001:0001a833       ?Merge@KOctreeNode@@QAEHXZ 1001b833 f   KOctreeNode.obj
 0001:0001a92b       ?IsLeaf@KOctreeNode@@QAEHXZ 1001b92b f   KOctreeNode.obj
 0001:0001a968       ?IsFather@KOctreeNode@@QAEHXZ 1001b968 f   KOctreeNode.obj
 0001:0001a9d6       ?RefenceSum@KOctreeNode@@QAEHXZ 1001b9d6 f   KOctreeNode.obj
 0001:0001aa30       ??4KPakData@@QAEAAV0@ABV0@@Z 1001ba30 f i KPakData.obj
 0001:0001aa60       ??0KPakData@@QAE@XZ        1001ba60 f   KPakData.obj
 0001:0001aacc       ??1KPakData@@QAE@XZ        1001bacc f   KPakData.obj
 0001:0001ab23       ?Open@KPakData@@QAEHPAD@Z  1001bb23 f   KPakData.obj
 0001:0001abeb       ?Read@KPakData@@QAEKPAXK@Z 1001bbeb f   KPakData.obj
 0001:0001ac08       ?Seek@KPakData@@QAEKJK@Z   1001bc08 f   KPakData.obj
 0001:0001ac25       ?Tell@KPakData@@QAEKXZ     1001bc25 f   KPakData.obj
 0001:0001ac38       ?Close@KPakData@@QAEXXZ    1001bc38 f   KPakData.obj
 0001:0001ac80       ?Search@KPakData@@QAEHPADPAK1@Z 1001bc80 f   KPakData.obj
 0001:0001ada6       ?Decode@KPakData@@QAEHPAUTCodeInfo@@@Z 1001bda6 f   KPakData.obj
 0001:0001add0       ?g_SetPakFileMode@@YAXH@Z  1001bdd0 f   KPakFile.obj
 0001:0001addd       ?SprGetHeader@@YAPAUSPRHEAD@@PBDAAPAUSPROFFS@@@Z 1001bddd f   KPakFile.obj
 0001:0001afb9       ?SprReleaseHeader@@YAXPAUSPRHEAD@@@Z 1001bfb9 f   KPakFile.obj
 0001:0001afd1       ?SprGetFrame@@YAPAUSPRFRAME@@PAUSPRHEAD@@H@Z 1001bfd1 f   KPakFile.obj
 0001:0001b01e       ?SprReleaseFrame@@YAXPAUSPRFRAME@@@Z 1001c01e f   KPakFile.obj
 0001:0001b036       ?get_jpg_image@@YAPAUKSGImageContent@@QBDI@Z 1001c036 f   KPakFile.obj
 0001:0001b20a       ?release_image@@YAXPAUKSGImageContent@@@Z 1001c20a f   KPakFile.obj
 0001:0001b222       ??0KPakFile@@QAE@XZ        1001c222 f   KPakFile.obj
 0001:0001b24c       ??1KPakFile@@QAE@XZ        1001c24c f   KPakFile.obj
 0001:0001b294       ?IsFileInPak@KPakFile@@QAE_NXZ 1001c294 f   KPakFile.obj
 0001:0001b2c6       ?Open@KPakFile@@QAEHPBD@Z  1001c2c6 f   KPakFile.obj
 0001:0001b392       ?Read@KPakFile@@QAEKPAXI@Z 1001c392 f   KPakFile.obj
 0001:0001b3e5       ?Seek@KPakFile@@QAEKHI@Z   1001c3e5 f   KPakFile.obj
 0001:0001b482       ?Tell@KPakFile@@QAEKXZ     1001c482 f   KPakFile.obj
 0001:0001b4b1       ?Size@KPakFile@@QAEKXZ     1001c4b1 f   KPakFile.obj
 0001:0001b4e0       ?Close@KPakFile@@QAEXXZ    1001c4e0 f   KPakFile.obj
 0001:0001b512       ?Save@KPakFile@@QAEHPBD@Z  1001c512 f   KPakFile.obj
 0001:0001b530       ??0KPakList@@QAE@XZ        1001c530 f   KPakList.obj
 0001:0001b553       ??1KPakList@@QAE@XZ        1001c553 f   KPakList.obj
 0001:0001b566       ?Close@KPakList@@QAEXXZ    1001c566 f   KPakList.obj
 0001:0001b5d0       ?FindElemFile@KPakList@@QAE_NKAAUXPackElemFileRef@@@Z 1001c5d0 f   KPakList.obj
 0001:0001b62d       ?FileNameToId@KPakList@@AAEKPBD@Z 1001c62d f   KPakList.obj
 0001:0001b6dd       ?FindElemFile@KPakList@@QAE_NPBDAAUXPackElemFileRef@@@Z 1001c6dd f   KPakList.obj
 0001:0001b74e       ?Open@KPakList@@QAE_NPBD@Z 1001c74e f   KPakList.obj
 0001:0001ba50       ?ElemFileRead@KPakList@@QAEHAAUXPackElemFileRef@@PAXI@Z 1001ca50 f   KPakList.obj
 0001:0001ba98       ?GetSprHeader@KPakList@@QAEPAUSPRHEAD@@AAUXPackElemFileRef@@AAPAUSPROFFS@@@Z 1001ca98 f   KPakList.obj
 0001:0001badc       ?GetSprFrame@KPakList@@QAEPAUSPRFRAME@@HPAUSPRHEAD@@H@Z 1001cadc f   KPakList.obj
 0001:0001bb20       ??_GXPackFile@@QAEPAXI@Z   1001cb20 f i KPakList.obj
 0001:0001bb50       ??4KPakTool@@QAEAAV0@ABV0@@Z 1001cb50 f i KPakTool.obj
 0001:0001bb70       ??0KPakTool@@QAE@XZ        1001cb70 f   KPakTool.obj
 0001:0001bb91       ??1KPakTool@@QAE@XZ        1001cb91 f   KPakTool.obj
 0001:0001bbaf       ?Pack@KPakTool@@QAEHPAD0H@Z 1001cbaf f   KPakTool.obj
 0001:0001bf5d       ?UnPack@KPakTool@@QAEHPAD0@Z 1001cf5d f   KPakTool.obj
 0001:0001c300       ?g_SetColorStyle@@YAXEEE@Z 1001d300 f   KPalette.obj
 0001:0001c31f       ?g_Pal24ToPal16@@YAXPAUKPAL24@@PAGH@Z 1001d31f f   KPalette.obj
 0001:0001c3c8       ?g_Pal16ToPal24@@YAXPAGPAUKPAL24@@H@Z 1001d3c8 f   KPalette.obj
 0001:0001c467       ?g_Pal32ToPal16@@YAXPAUKPAL32@@PAGH@Z 1001d467 f   KPalette.obj
 0001:0001c4b9       ?g_Pal24ToPal16Style@@YAXPAUKPAL24@@PAGH@Z 1001d4b9 f   KPalette.obj
 0001:0001c547       ?g_Pal32ToPal16Style@@YAXPAUKPAL32@@PAGH@Z 1001d547 f   KPalette.obj
 0001:0001c5d5       ?g_Pal24ToPal16Gray@@YAXPAUKPAL24@@PAGH@Z 1001d5d5 f   KPalette.obj
 0001:0001c64b       ?g_Pal32ToPal16Gray@@YAXPAUKPAL32@@PAGH@Z 1001d64b f   KPalette.obj
 0001:0001c6c1       ?g_Pal24ToPal16Lum@@YAXPAUKPAL24@@PAGH@Z 1001d6c1 f   KPalette.obj
 0001:0001c788       ?g_Pal32ToPal16Lum@@YAXPAUKPAL32@@PAGH@Z 1001d788 f   KPalette.obj
 0001:0001c843       ?g_Pal24ToPal32@@YAXPAUKPAL24@@PAUKPAL32@@H@Z 1001d843 f   KPalette.obj
 0001:0001c8b7       ?g_Pal32ToPal24@@YAXPAUKPAL32@@PAUKPAL24@@H@Z 1001d8b7 f   KPalette.obj
 0001:0001c920       ??4KPcxFile@@QAEAAV0@ABV0@@Z 1001d920 f i KPcxFile.obj
 0001:0001c940       ?Load@KPcxFile@@QAEHPADPAVKBitmap@@@Z 1001d940 f   KPcxFile.obj
 0001:0001cc40       ?Save@KPcxFile@@QAEHPADPAVKBitmap@@@Z 1001dc40 f   KPcxFile.obj
 0001:0001cc52       ?Decode@KPcxFile@@AAEXPAX0@Z 1001dc52 f   KPcxFile.obj
 0001:0001cd34       ?Encode@KPcxFile@@AAEXPAX0@Z 1001dd34 f   KPcxFile.obj
 0001:0001cd50       ?GetVertexNumber@KPolygon@@QAEHXZ 1001dd50 f i KPolygon.obj
 0001:0001cd60       ?GetPolygonPtr@KPolygon@@QAEPAUTPolygon@@XZ 1001dd60 f i KPolygon.obj
 0001:0001cd70       ??4KPolygon@@QAEAAV0@ABV0@@Z 1001dd70 f i KPolygon.obj
 0001:0001cda0       ??0KPolygon@@QAE@XZ        1001dda0 f   KPolygon.obj
 0001:0001cdca       ?IsPointInPolygon@KPolygon@@QAEHUtagPOINT@@@Z 1001ddca f   KPolygon.obj
 0001:0001ceea       ?IsPointInPolygon@KPolygon@@QAEHHH@Z 1001deea f   KPolygon.obj
 0001:0001d00a       ?GetNearVertex@KPolygon@@QAEHUtagPOINT@@@Z 1001e00a f   KPolygon.obj
 0001:0001d0d0       ?GetIndexVertex@KPolygon@@QAEHHPAUtagPOINT@@@Z 1001e0d0 f   KPolygon.obj
 0001:0001d10f       ?RemoveIndexVertex@KPolygon@@QAEHH@Z 1001e10f f   KPolygon.obj
 0001:0001d173       ?AddPointToVertex@KPolygon@@QAEHUtagPOINT@@@Z 1001e173 f   KPolygon.obj
 0001:0001d31f       ?AddPointToVertex@KPolygon@@QAEHHH@Z 1001e31f f   KPolygon.obj
 0001:0001d4db       ?LoopVertex@KPolygon@@QAEXH@Z 1001e4db f   KPolygon.obj
 0001:0001d573       ?Clear@KPolygon@@QAEXXZ    1001e573 f   KPolygon.obj
 0001:0001d59a       ?GetCenterPos@KPolygon@@QAEXPAUtagPOINT@@@Z 1001e59a f   KPolygon.obj
 0001:0001d626       ?ShiftVertex@KPolygon@@QAEHHH@Z 1001e626 f   KPolygon.obj
 0001:0001d89e       ?GetLeftVertex@KPolygon@@QAEHXZ 1001e89e f   KPolygon.obj
 0001:0001d8fe       ?GetRightVertex@KPolygon@@QAEHXZ 1001e8fe f   KPolygon.obj
 0001:0001d960       ?g_ColliSion@@YAHVKPolygon@@0@Z 1001e960 f   KPolyRelation.obj
 0001:0001d9b8       ?g_SpaceRelation@@YAHVKPolygon@@0@Z 1001e9b8 f   KPolyRelation.obj
 0001:0001db94       ?IntersectionX2Y@@YAHUtagPOINT@@0HPAH@Z 1001eb94 f   KPolyRelation.obj
 0001:0001dbf0       ?g_RandomSeed@@YAXI@Z      1001ebf0 f   KRandom.obj
 0001:0001dbfd       ?g_Random@@YAII@Z          1001ebfd f   KRandom.obj
 0001:0001dc2d       ?g_GetRandomSeed@@YAIXZ    1001ec2d f   KRandom.obj
 0001:0001dc40       ?SignalEvent@KSafeList@@QAEXXZ 1001ec40 f i KSafeList.obj
 0001:0001dc60       ?WaitEvent@KSafeList@@QAEXXZ 1001ec60 f i KSafeList.obj
 0001:0001dc80       ?TimedWaitEvent@KSafeList@@QAEXJ@Z 1001ec80 f i KSafeList.obj
 0001:0001dca0       ?Lock@KSafeList@@QAEXXZ    1001eca0 f i KSafeList.obj
 0001:0001dcc0       ?Unlock@KSafeList@@QAEXXZ  1001ecc0 f i KSafeList.obj
 0001:0001dce0       ??0KSafeList@@QAE@XZ       1001ece0 f i KSafeList.obj
 0001:0001dd40       ??0KSafeList@@QAE@ABV0@@Z  1001ed40 f i KSafeList.obj
 0001:0001dd80       ??4KSafeList@@QAEAAV0@ABV0@@Z 1001ed80 f i KSafeList.obj
 0001:0001ddc0       ??1KSafeList@@QAE@XZ       1001edc0 f i KSafeList.obj
 0001:0001de20       ??4KScanFile@@QAEAAV0@ABV0@@Z 1001ee20 f i KScanDir.obj
 0001:0001de50       ??0KScanFile@@QAE@XZ       1001ee50 f   KScanDir.obj
 0001:0001de6f       ?DiscardFileExt@KScanFile@@QAEXPAD@Z 1001ee6f f   KScanDir.obj
 0001:0001de91       ?RunSearch@KScanFile@@QAEHPAD00@Z 1001ee91 f   KScanDir.obj
 0001:0001df33       ?SearchDirectory@KScanFile@@AAEXXZ 1001ef33 f   KScanDir.obj
 0001:0001e05a       ?CheckFileExt@KScanFile@@AAEHPAD@Z 1001f05a f   KScanDir.obj
 0001:0001e099       ?OutputFileName@KScanFile@@AAEXPAD@Z 1001f099 f   KScanDir.obj
 0001:0001e130       ??0KScript@@QAE@XZ         1001f130 f   KScript.obj
 0001:0001e147       ??1KScript@@UAE@XZ         1001f147 f   KScript.obj
 0001:0001e15b       ?Init@KScript@@UAEHXZ      1001f15b f   KScript.obj
 0001:0001e16b       ?Exit@KScript@@UAEXXZ      1001f16b f   KScript.obj
 0001:0001e176       ?Load@KScript@@UAEHPAD@Z   1001f176 f   KScript.obj
 0001:0001e188       ?Compile@KScript@@UAEHPAD@Z 1001f188 f   KScript.obj
 0001:0001e19a       ?Execute@KScript@@UAEHXZ   1001f19a f   KScript.obj
 0001:0001e1aa       ?CallFunction@KScript@@UAAHPADH0ZZ 1001f1aa f   KScript.obj
 0001:0001e1b4       ?RegisterFunction@KScript@@UAEHPADPAX@Z 1001f1b4 f   KScript.obj
 0001:0001e1d0       ??0KScriptCache@@QAE@ABV0@@Z 1001f1d0 f i KScriptCache.obj
 0001:0001e200       ??4KScriptCache@@QAEAAV0@ABV0@@Z 1001f200 f i KScriptCache.obj
 0001:0001e220       ??0KScriptCache@@QAE@XZ    1001f220 f   KScriptCache.obj
 0001:0001e23f       ??1KScriptCache@@QAE@XZ    1001f23f f   KScriptCache.obj
 0001:0001e290       ?LoadNode@KScriptCache@@UAEHPAVKCacheNode@@@Z 1001f290 f   KScriptCache.obj
 0001:0001e348       ?FreeNode@KScriptCache@@UAEXPAVKCacheNode@@@Z 1001f348 f   KScriptCache.obj
 0001:0001e3b0       ?SeekBegin@KStepLuaScript@@QAEXXZ 1001f3b0 f i KScriptList.obj
 0001:0001e3d0       ?SeekToExeBegin@KStepLuaScript@@QAEXXZ 1001f3d0 f i KScriptList.obj
 0001:0001e3f0       ?RunMain@KStepLuaScript@@QAEXXZ 1001f3f0 f i KScriptList.obj
 0001:0001e410       ?RunFunc@KStepLuaScript@@QAEXXZ 1001f410 f i KScriptList.obj
 0001:0001e430       ?RunIdle@KStepLuaScript@@QAEXXZ 1001f430 f i KScriptList.obj
 0001:0001e450       ?RunResume@KStepLuaScript@@QAEXXZ 1001f450 f i KScriptList.obj
 0001:0001e470       ?RunWaitMsg@KStepLuaScript@@QAEXXZ 1001f470 f i KScriptList.obj
 0001:0001e490       ?IsRunMain@KStepLuaScript@@QAEHXZ 1001f490 f i KScriptList.obj
 0001:0001e4b0       ?IsRunFunc@KStepLuaScript@@QAEHXZ 1001f4b0 f i KScriptList.obj
 0001:0001e4d0       ?IsRunIdle@KStepLuaScript@@QAEHXZ 1001f4d0 f i KScriptList.obj
 0001:0001e4f0       ?IsRunResume@KStepLuaScript@@QAEHXZ 1001f4f0 f i KScriptList.obj
 0001:0001e510       ?IsRunWaitMsg@KStepLuaScript@@QAEHXZ 1001f510 f i KScriptList.obj
 0001:0001e530       ?GetWaitingMsg@KStepLuaScript@@QAEPADXZ 1001f530 f i KScriptList.obj
 0001:0001e550       ?GetStatus@KStepLuaScript@@QAEHXZ 1001f550 f i KScriptList.obj
 0001:0001e570       ??0KStepLuaScript@@QAE@ABV0@@Z 1001f570 f i KScriptList.obj
 0001:0001e670       ??4KStepLuaScript@@QAEAAV0@ABV0@@Z 1001f670 f i KScriptList.obj
 0001:0001e790       ??_GKStepLuaScript@@UAEPAXI@Z 1001f790 f i KScriptList.obj
 0001:0001e7c0       ??_EKStepLuaScript@@UAEPAXI@Z 1001f7c0 f i KScriptList.obj
 0001:0001e840       ??1KScriptNode@@UAE@XZ     1001f840 f i KScriptList.obj
 0001:0001e8c0       ??0KScriptNode@@QAE@XZ     1001f8c0 f i KScriptList.obj
 0001:0001e8e0       ??0KScriptNode@@QAE@ABV0@@Z 1001f8e0 f i KScriptList.obj
 0001:0001e920       ??4KScriptNode@@QAEAAV0@ABV0@@Z 1001f920 f i KScriptList.obj
 0001:0001e960       ??_GKScriptNode@@UAEPAXI@Z 1001f960 f i KScriptList.obj
 0001:0001e990       ??_EKScriptNode@@UAEPAXI@Z 1001f990 f i KScriptList.obj
 0001:0001ea00       ??0KScriptList@@QAE@XZ     1001fa00 f i KScriptList.obj
 0001:0001ea20       ??0KScriptList@@QAE@ABV0@@Z 1001fa20 f i KScriptList.obj
 0001:0001ea40       ??4KScriptList@@QAEAAV0@ABV0@@Z 1001fa40 f i KScriptList.obj
 0001:0001ea60       ??1KScriptList@@QAE@XZ     1001fa60 f i KScriptList.obj
 0001:0001ea80       ?GetScript@KScriptList@@QAEPAVKLuaScript@@PAUlua_State@@@Z 1001fa80 f   KScriptList.obj
 0001:0001eae1       ?Activate@KScriptList@@QAEXXZ 1001fae1 f   KScriptList.obj
 0001:0001ebb3       ?SendMessageA@KScriptList@@QAEXPAD0@Z 1001fbb3 f   KScriptList.obj
 0001:0001ec10       ?IsEmpty@KList@@QAEHXZ     1001fc10 f i KScriptList.obj
 0001:0001ec30       ??0KScriptSet@@QAE@XZ      1001fc30 f   KScriptSet.obj
 0001:0001ec6f       ??0KScriptSet@@QAE@H@Z     1001fc6f f   KScriptSet.obj
 0001:0001ecd9       ??1KScriptSet@@QAE@XZ      1001fcd9 f   KScriptSet.obj
 0001:0001ed29       ?GetScript@KScriptSet@@QAEPAVKScript@@PADHH@Z 1001fd29 f   KScriptSet.obj
 0001:0001ef00       ?GetScript@KScriptSet@@QAEPAVKScript@@KHH@Z 1001ff00 f   KScriptSet.obj
 0001:0001f0d4       ?UpdateRecent@KScriptSet@@QAEXHPAUTScript@@@Z 100200d4 f   KScriptSet.obj
 0001:0001f205       ?SearchScript@KScriptSet@@QAEPAUTScript@@PADPAH@Z 10020205 f   KScriptSet.obj
 0001:0001f245       ?SearchScript@KScriptSet@@QAEPAUTScript@@KPAH@Z 10020245 f   KScriptSet.obj
 0001:0001f285       ?CreateScript@KScriptSet@@UAEPAVKScript@@PADH@Z 10020285 f   KScriptSet.obj
 0001:0001f294       ?CreateScript@KScriptSet@@UAEPAVKScript@@KH@Z 10020294 f   KScriptSet.obj
 0001:0001f2a3       ?DeleteScript@KScriptSet@@QAEHPAD@Z 100202a3 f   KScriptSet.obj
 0001:0001f400       ?DeleteScript@KScriptSet@@QAEHK@Z 10020400 f   KScriptSet.obj
 0001:0001f55d       ?DeleteScript@KScriptSet@@QAEHPAUTScript@@@Z 1002055d f   KScriptSet.obj
 0001:0001f598       ?InsertScript@KScriptSet@@QAEPAUTScript@@PAD@Z 10020598 f   KScriptSet.obj
 0001:0001f608       ?InsertScript@KScriptSet@@QAEPAUTScript@@K@Z 10020608 f   KScriptSet.obj
 0001:0001f678       ?GetInitStackSize@KScriptSet@@UAEHPAD@Z 10020678 f   KScriptSet.obj
 0001:0001f687       ?GetInitStackSize@KScriptSet@@UAEHK@Z 10020687 f   KScriptSet.obj
 0001:0001f696       ?ListScriptsKey@KScriptSet@@QAEKXZ 10020696 f   KScriptSet.obj
 0001:0001f6b0       ?ListRecent@KScriptSet@@QAEKH@Z 100206b0 f   KScriptSet.obj
 0001:0001f71a       ?Run@KScriptSet@@UAEHPAD@Z 1002071a f   KScriptSet.obj
 0001:0001f72c       ?Run@KScriptSet@@UAEHK@Z   1002072c f   KScriptSet.obj
 0001:0001f73e       ?RunFunction@KScriptSet@@UAAHPAD00ZZ 1002073e f   KScriptSet.obj
 0001:0001f748       ?RunFunction@KScriptSet@@UAAHKPAD0ZZ 10020748 f   KScriptSet.obj
 0001:0001f752       ?BTSearch@@YAPAUTScript@@PAU1@0PADPAH@Z 10020752 f   KScriptSet.obj
 0001:0001f7d9       ?BTSearch@@YAPAUTScript@@PAU1@0KPAH@Z 100207d9 f   KScriptSet.obj
 0001:0001f854       ?BTInsert@@YAPAUTScript@@PAU1@PAD@Z 10020854 f   KScriptSet.obj
 0001:0001f8fc       ?BTInsert@@YAPAUTScript@@PAU1@K@Z 100208fc f   KScriptSet.obj
 0001:0001f994       ?BTDelete@@YAPAUTScript@@PAU1@PAPAU1@H@Z 10020994 f   KScriptSet.obj
 0001:0001fd2e       ?BTFindLess@@YAPAUTScript@@PAU1@@Z 10020d2e f   KScriptSet.obj
 0001:0001fd5a       ?BTPreorder@@YAKPAUTScript@@@Z 10020d5a f   KScriptSet.obj
 0001:0001fda0       ?KSG_StringToMD5String@@YAHQADQBD@Z 10020da0 f   KSG_MD5_String.obj
 0001:0001fee0       ?KSG_StringGetInt@@YAHPAPBDH@Z 10020ee0 f   KSG_StringProcess.obj
 0001:00020036       ?KSG_StringSkipSymbol@@YA_NPAPBDH@Z 10021036 f   KSG_StringProcess.obj
 0001:000200bb       ?KSG_GetCurSec@@YAHXZ      100210bb f   KSG_StringProcess.obj
 0001:000200d8       ?KSG_StringSetValue@@YAHHHHH@Z 100210d8 f   KSG_StringProcess.obj
 0001:00020274       ?KSG_StringGetValue@@YAHHHH@Z 10021274 f   KSG_StringProcess.obj
 0001:00020390       ??0TBinTreeNode@@AAE@XZ    10021390 f i KSortBinTree.obj
 0001:000203d0       ??0TBinTreeNode@@QAE@ABV0@@Z 100213d0 f i KSortBinTree.obj
 0001:00020410       ??4TBinTreeNode@@QAEAAV0@ABV0@@Z 10021410 f i KSortBinTree.obj
 0001:00020450       ?GetCount@KSortBinTree@@QAEKXZ 10021450 f i KSortBinTree.obj
 0001:00020480       ?GetRoot@KSortBinTree@@QAEPAVTBinTreeNode@@XZ 10021480 f i KSortBinTree.obj
 0001:00020490       ??4KSortBinTree@@QAEAAV0@ABV0@@Z 10021490 f i KSortBinTree.obj
 0001:000204b0       ??0KSortBinTree@@QAE@XZ    100214b0 f   KSortBinTree.obj
 0001:000204c7       ?Search@KSortBinTree@@AAEPAVTBinTreeNode@@PAV2@00PAH@Z 100214c7 f   KSortBinTree.obj
 0001:00020559       ?AddNode@KSortBinTree@@AAEPAVTBinTreeNode@@PAV2@0@Z 10021559 f   KSortBinTree.obj
 0001:000205ee       ?RemoveNode@KSortBinTree@@AAEPAVTBinTreeNode@@PAV2@PAPAV2@@Z 100215ee f   KSortBinTree.obj
 0001:00020908       ?FindLess@KSortBinTree@@AAEPAVTBinTreeNode@@PAV2@@Z 10021908 f   KSortBinTree.obj
 0001:0002093c       ?InOrder@KSortBinTree@@AAEKPAVTBinTreeNode@@@Z 1002193c f   KSortBinTree.obj
 0001:0002098c       ?Insert@KSortBinTree@@QAEPAVTBinTreeNode@@PAV2@@Z 1002198c f   KSortBinTree.obj
 0001:00020a25       ?RemoveKeyNode@KSortBinTree@@QAEHPAVTBinTreeNode@@@Z 10021a25 f   KSortBinTree.obj
 0001:00020a89       ?RemoveThisNode@KSortBinTree@@QAEHPAVTBinTreeNode@@@Z 10021a89 f   KSortBinTree.obj
 0001:00020aef       ?Search@KSortBinTree@@QAEPAVTBinTreeNode@@PAV2@PAH@Z 10021aef f   KSortBinTree.obj
 0001:00020b30       ??4KSortList@@QAEAAV0@ABV0@@Z 10021b30 f i KSortList.obj
 0001:00020b60       ??0KSortList@@QAE@XZ       10021b60 f   KSortList.obj
 0001:00020bcc       ??1KSortList@@QAE@XZ       10021bcc f   KSortList.obj
 0001:00020c17       ?Init@KSortList@@QAEHHH@Z  10021c17 f   KSortList.obj
 0001:00020c80       ?Free@KSortList@@QAEXXZ    10021c80 f   KSortList.obj
 0001:00020cbc       ?Insert@KSortList@@QAEHKPAX@Z 10021cbc f   KSortList.obj
 0001:00020de8       ?Search@KSortList@@QAEHKPAX@Z 10021de8 f   KSortList.obj
 0001:00020ea0       ??4KWavSound@@QAEAAV0@ABV0@@Z 10021ea0 f i KSoundCache.obj
 0001:00020ed0       ??0KSoundCache@@QAE@ABV0@@Z 10021ed0 f i KSoundCache.obj
 0001:00020f00       ??4KSoundCache@@QAEAAV0@ABV0@@Z 10021f00 f i KSoundCache.obj
 0001:00020f20       ??0KSoundCache@@QAE@XZ     10021f20 f   KSoundCache.obj
 0001:00020f3f       ??1KSoundCache@@QAE@XZ     10021f3f f   KSoundCache.obj
 0001:00020f90       ?LoadNode@KSoundCache@@UAEHPAVKCacheNode@@@Z 10021f90 f   KSoundCache.obj
 0001:00021098       ?FreeNode@KSoundCache@@UAEXPAVKCacheNode@@@Z 10022098 f   KSoundCache.obj
 0001:000210f0       ??_GKWavSound@@QAEPAXI@Z   100220f0 f i KSoundCache.obj
 0001:00021120       ??0KSprite@@QAE@XZ         10022120 f   KSprite.obj
 0001:000211e6       ?Load@KSprite@@QAEHPAD@Z   100221e6 f   KSprite.obj
 0001:000213bc       ?LoadFor3D@KSprite@@QAEHPAD@Z 100223bc f   KSprite.obj
 0001:00021592       ?Free@KSprite@@QAEXXZ      10022592 f   KSprite.obj
 0001:000215ec       ?Make4444Palette@KSprite@@QAEXXZ 100225ec f   KSprite.obj
 0001:000216b3       ?MakePalette@KSprite@@QAEXXZ 100226b3 f   KSprite.obj
 0001:00021700       ?Draw@KSprite@@QAEXHHH@Z   10022700 f   KSprite.obj
 0001:00021781       ?DrawCenter@KSprite@@QAEXHHH@Z 10022781 f   KSprite.obj
 0001:0002181a       ?DrawMixColor@KSprite@@QAEXHHHHH@Z 1002281a f   KSprite.obj
 0001:000218a3       ?DrawWithColor@KSprite@@QAEXHHHHH@Z 100228a3 f   KSprite.obj
 0001:0002192c       ?DrawAlpha@KSprite@@QAEXHHHH@Z 1002292c f   KSprite.obj
 0001:000219b1       ?DrawAlphaCenter@KSprite@@QAEXHHHH@Z 100229b1 f   KSprite.obj
 0001:00021a4e       ?DrawTrans@KSprite@@QAEXHHH@Z 10022a4e f   KSprite.obj
 0001:00021a5b       ?DrawBorder@KSprite@@QAEXHHHH@Z 10022a5b f   KSprite.obj
 0001:00021ac1       ?NextFrame@KSprite@@QAEHH@Z 10022ac1 f   KSprite.obj
 0001:00021aec       ?GetPixelAlpha@KSprite@@QAEHHHH@Z 10022aec f   KSprite.obj
 0001:00021bd6       ?GetFrame@KSprite@@QAEPAXH@Z 10022bd6 f   KSprite.obj
 0001:00021c20       ??0KSpriteCache@@QAE@ABV0@@Z 10022c20 f i KSpriteCache.obj
 0001:00021c50       ??4KSpriteCache@@QAEAAV0@ABV0@@Z 10022c50 f i KSpriteCache.obj
 0001:00021c70       ??0KSpriteCache@@QAE@XZ    10022c70 f   KSpriteCache.obj
 0001:00021c8f       ??1KSpriteCache@@QAE@XZ    10022c8f f   KSpriteCache.obj
 0001:00021ce0       ?LoadNode@KSpriteCache@@UAEHPAVKCacheNode@@@Z 10022ce0 f   KSpriteCache.obj
 0001:00021d88       ?FreeNode@KSpriteCache@@UAEXPAVKCacheNode@@@Z 10022d88 f   KSpriteCache.obj
 0001:00021de0       ??_GKSprite@@QAEPAXI@Z     10022de0 f i KSpriteCache.obj
 0001:00021e10       ?GetSprite@KSpriteCodec@@QAEPAXXZ 10022e10 f i KSpriteCodec.obj
 0001:00021e30       ?GetLength@KSpriteCodec@@QAEJXZ 10022e30 f i KSpriteCodec.obj
 0001:00021e50       ??4KSpriteCodec@@QAEAAV0@ABV0@@Z 10022e50 f i KSpriteCodec.obj
 0001:00021e80       ??1KSpriteCodec@@QAE@XZ    10022e80 f i KSpriteCodec.obj
 0001:00021ea0       ??0KSpriteCodec@@QAE@XZ    10022ea0 f   KSpriteCodec.obj
 0001:00021eea       ?Convert@KSpriteCodec@@QAEHPAVKBitmap@@0@Z 10022eea f   KSpriteCodec.obj
 0001:00021f8e       ?ConvertRect@KSpriteCodec@@IAEXPAUtagRECT@@@Z 10022f8e f   KSpriteCodec.obj
 0001:00022075       ?ConvertLine@KSpriteCodec@@IAEJHHHPAE@Z 10023075 f   KSpriteCodec.obj
 0001:00022178       ?GetAlphaCount@KSpriteCodec@@IAEEHHH@Z 10023178 f   KSpriteCodec.obj
 0001:0002220a       ?GetMiniRect@KSpriteCodec@@IAEXPAUtagRECT@@@Z 1002320a f   KSpriteCodec.obj
 0001:000224a0       ??0KSpriteMaker@@QAE@ABV0@@Z 100234a0 f i KSpriteMaker.obj
 0001:000225c0       ??4KSpriteMaker@@QAEAAV0@ABV0@@Z 100235c0 f i KSpriteMaker.obj
 0001:00022710       ??0KSpriteMaker@@QAE@XZ    10023710 f   KSpriteMaker.obj
 0001:000227c6       ??1KSpriteMaker@@QAE@XZ    100237c6 f   KSpriteMaker.obj
 0001:0002281d       ?Load@KSpriteMaker@@QAEHPAD@Z 1002381d f   KSpriteMaker.obj
 0001:00022a5a       ?Save@KSpriteMaker@@QAEHPAD@Z 10023a5a f   KSpriteMaker.obj
 0001:00022c10       ?Free@KSpriteMaker@@QAEXXZ 10023c10 f   KSpriteMaker.obj
 0001:00022cb1       ?Draw@KSpriteMaker@@QAEXHHH@Z 10023cb1 f   KSpriteMaker.obj
 0001:00022d64       ?AddFrame@KSpriteMaker@@QAEHPAVKBitmap@@H@Z 10023d64 f   KSpriteMaker.obj
 0001:00022f5a       ?AddAlphaFrame@KSpriteMaker@@QAEHPAVKBitmap@@0@Z 10023f5a f   KSpriteMaker.obj
 0001:00023150       ?DelFrame@KSpriteMaker@@QAEHH@Z 10024150 f   KSpriteMaker.obj
 0001:000231c9       ?GetFrame@KSpriteMaker@@QAEPAVKSprNode@@H@Z 100241c9 f   KSpriteMaker.obj
 0001:0002320b       ?MakeOffset@KSpriteMaker@@QAEXXZ 1002420b f   KSpriteMaker.obj
 0001:000232b0       ??0KStepLuaScript@@QAE@XZ  100242b0 f   KStepLuaScript.obj
 0001:00023369       ??0KStepLuaScript@@QAE@H@Z 10024369 f   KStepLuaScript.obj
 0001:0002340d       ??1KStepLuaScript@@UAE@XZ  1002440d f   KStepLuaScript.obj
 0001:00023470       ?GetNextLine@KStepLuaScript@@QAEHPAEPAD@Z 10024470 f   KStepLuaScript.obj
 0001:0002354c       ?Load@KStepLuaScript@@UAEHPAD@Z 1002454c f   KStepLuaScript.obj
 0001:0002382b       ?ExeLine@KStepLuaScript@@QAEHPAD@Z 1002482b f   KStepLuaScript.obj
 0001:0002385f       ?CheckLine@KStepLuaScript@@QAEHPAD@Z 1002485f f   KStepLuaScript.obj
 0001:00023871       ?GetExeBufferFromFile@KStepLuaScript@@QAEHPAD@Z 10024871 f   KStepLuaScript.obj
 0001:00023b38       ?GetExeBuffer@KStepLuaScript@@QAEHPAXH@Z 10024b38 f   KStepLuaScript.obj
 0001:00023c7f       ?Active@KStepLuaScript@@QAEHXZ 10024c7f f   KStepLuaScript.obj
 0001:00023ea7       ?PosUp@KStepLuaScript@@QAEXXZ 10024ea7 f   KStepLuaScript.obj
 0001:00023f11       ?GotoLabel@KStepLuaScript@@QAEXPAD@Z 10024f11 f   KStepLuaScript.obj
 0001:00023f9c       ?AddMessage@KStepLuaScript@@QAEHPAUlua_State@@PAD1@Z 10024f9c f   KStepLuaScript.obj
 0001:00024043       ?SendMessageA@KStepLuaScript@@QAEHPAV1@PAD1@Z 10025043 f   KStepLuaScript.obj
 0001:00024080       ??0KLubCmpl_Blocker@@QAE@XZ 10025080 f i KStepLuaScript.obj
 0001:000240f0       ??1KLubCmpl_Blocker@@QAE@XZ 100250f0 f i KStepLuaScript.obj
 0001:00024160       ?g_StrLen@@YAHPBD@Z        10025160 f   KStrBase.obj
 0001:00024183       ?g_StrEnd@@YAPADPBD@Z      10025183 f   KStrBase.obj
 0001:000241a6       ?g_StrCpy@@YAXPADPBD@Z     100251a6 f   KStrBase.obj
 0001:000241d3       ?g_StrCpyLen@@YAXPADPBDH@Z 100251d3 f   KStrBase.obj
 0001:00024216       ?g_StrCat@@YAXPADPBD@Z     10025216 f   KStrBase.obj
 0001:0002423d       ?g_StrCatLen@@YAXPADPBDH@Z 1002523d f   KStrBase.obj
 0001:00024268       ?g_StrCmp@@YAHPBD0@Z       10025268 f   KStrBase.obj
 0001:000242b0       ?g_StrCmpLen@@YAHPBD0H@Z   100252b0 f   KStrBase.obj
 0001:00024308       ?g_StrUpper@@YAXPAD@Z      10025308 f   KStrBase.obj
 0001:0002432a       ?g_StrLower@@YAXPAD@Z      1002532a f   KStrBase.obj
 0001:0002434c       ?g_StrRep@@YAXPAD00@Z      1002534c f   KStrBase.obj
 0001:00024490       ?Find@KStrList@@QAEPAVKStrNode@@PAD@Z 10025490 f   KStrList.obj
 0001:000244e0       ??0KStrNode@@QAE@XZ        100254e0 f   KStrNode.obj
 0001:00024540       ??0KITabFile@@QAE@XZ       10025540 f i KTabFile.obj
 0001:00024560       ??1KITabFile@@UAE@XZ       10025560 f i KTabFile.obj
 0001:00024580       ??0KITabFile@@QAE@ABV0@@Z  10025580 f i KTabFile.obj
 0001:000245a0       ??4KITabFile@@QAEAAV0@ABV0@@Z 100255a0 f i KTabFile.obj
 0001:000245b0       ??_GKITabFile@@UAEPAXI@Z   100255b0 f i KTabFile.obj
 0001:000245e0       ??_EKITabFile@@UAEPAXI@Z   100255e0 f i KTabFile.obj
 0001:00024650       ?Save@KTabFile@@UAEHPAD@Z  10025650 f i KTabFile.obj
 0001:00024660       ?GetWidth@KTabFile@@UAEHXZ 10025660 f i KTabFile.obj
 0001:00024680       ?GetHeight@KTabFile@@UAEHXZ 10025680 f i KTabFile.obj
 0001:000246a0       ??0KTabFile@@QAE@ABV0@@Z   100256a0 f i KTabFile.obj
 0001:00024710       ??4KTabFile@@QAEAAV0@ABV0@@Z 10025710 f i KTabFile.obj
 0001:00024770       ??_GKTabFile@@UAEPAXI@Z    10025770 f i KTabFile.obj
 0001:000247a0       ??_EKTabFile@@UAEPAXI@Z    100257a0 f i KTabFile.obj
 0001:00024810       ??0KTabFile@@QAE@XZ        10025810 f   KTabFile.obj
 0001:0002488a       ??1KTabFile@@UAE@XZ        1002588a f   KTabFile.obj
 0001:000248f9       ?Load@KTabFile@@UAEHPAD@Z  100258f9 f   KTabFile.obj
 0001:000249e8       ?IsTabExist@KTabFile@@QAEHPAD@Z 100259e8 f   KTabFile.obj
 0001:00024a8e       ?CreateTabOffset@KTabFile@@AAEXXZ 10025a8e f   KTabFile.obj
 0001:00024d63       ?Str2Col@KTabFile@@AAEHPAD@Z 10025d63 f   KTabFile.obj
 0001:00024dbe       ?GetString@KTabFile@@UAEHHPAD00KH@Z 10025dbe f   KTabFile.obj
 0001:00024e35       ?GetString@KTabFile@@UAEHPAD000K@Z 10025e35 f   KTabFile.obj
 0001:00024ea7       ?GetString@KTabFile@@UAEHHHPAD0K@Z 10025ea7 f   KTabFile.obj
 0001:00024ef3       ?GetInteger@KTabFile@@UAEHHPADHPAHH@Z 10025ef3 f   KTabFile.obj
 0001:00024f6e       ?GetInteger@KTabFile@@UAEHPAD0HPAH@Z 10025f6e f   KTabFile.obj
 0001:00024fe4       ?GetInteger@KTabFile@@UAEHHHHPAH@Z 10025fe4 f   KTabFile.obj
 0001:00025039       ?GetFloat@KTabFile@@UAEHHPADMPAMH@Z 10026039 f   KTabFile.obj
 0001:000250b4       ?GetFloat@KTabFile@@UAEHPAD0MPAM@Z 100260b4 f   KTabFile.obj
 0001:0002512a       ?GetFloat@KTabFile@@UAEHHHMPAM@Z 1002612a f   KTabFile.obj
 0001:0002517c       ?GetValue@KTabFile@@AAEHHHPADK@Z 1002617c f   KTabFile.obj
 0001:00025263       ?Clear@KTabFile@@UAEXXZ    10026263 f   KTabFile.obj
 0001:00025284       ?FindRow@KTabFile@@UAEHPAD@Z 10026284 f   KTabFile.obj
 0001:0002530e       ?FindColumn@KTabFile@@UAEHPAD@Z 1002630e f   KTabFile.obj
 0001:00025398       ?Col2Str@KTabFile@@QAEXHPAD@Z 10026398 f   KTabFile.obj
 0001:000253f0       ?GetValue@KTabFileCtrl@@AAEHPAD00K@Z 100263f0 f i KTabFileCtrl.obj
 0001:00025430       ?InsertAfter@KTabFileCtrl@@QAEHPADH@Z 10026430 f i KTabFileCtrl.obj
 0001:00025480       ?InsertBefore@KTabFileCtrl@@QAEHPADH@Z 10026480 f i KTabFileCtrl.obj
 0001:000254d0       ?GetWidth@KTabFileCtrl@@UAEHXZ 100264d0 f i KTabFileCtrl.obj
 0001:00025500       ?GetHeight@KTabFileCtrl@@UAEHXZ 10026500 f i KTabFileCtrl.obj
 0001:00025520       ?GetString@KTabFileCtrl@@UAEHHPAD00KH@Z 10026520 f i KTabFileCtrl.obj
 0001:00025590       ?GetString@KTabFileCtrl@@UAEHPAD000K@Z 10026590 f i KTabFileCtrl.obj
 0001:000255e0       ?GetInteger@KTabFileCtrl@@UAEHHPADHPAHH@Z 100265e0 f i KTabFileCtrl.obj
 0001:00025640       ?GetInteger@KTabFileCtrl@@UAEHPAD0HPAH@Z 10026640 f i KTabFileCtrl.obj
 0001:00025680       ?GetFloat@KTabFileCtrl@@UAEHHPADMPAMH@Z 10026680 f i KTabFileCtrl.obj
 0001:000256e0       ?GetFloat@KTabFileCtrl@@UAEHPAD0MPAM@Z 100266e0 f i KTabFileCtrl.obj
 0001:00025720       ?WriteString@KTabFileCtrl@@QAEHHPAD0H@Z 10026720 f i KTabFileCtrl.obj
 0001:00025780       ?WriteString@KTabFileCtrl@@QAEHPAD00@Z 10026780 f i KTabFileCtrl.obj
 0001:000257c0       ?WriteInteger@KTabFileCtrl@@QAEHHPADHH@Z 100267c0 f i KTabFileCtrl.obj
 0001:00025820       ?WriteInteger@KTabFileCtrl@@QAEHPAD0H@Z 10026820 f i KTabFileCtrl.obj
 0001:00025860       ?WriteFloat@KTabFileCtrl@@QAEHHPADMH@Z 10026860 f i KTabFileCtrl.obj
 0001:000258c0       ?WriteFloat@KTabFileCtrl@@QAEHPAD0M@Z 100268c0 f i KTabFileCtrl.obj
 0001:00025900       ?Remove@KTabFileCtrl@@QAEHPADH@Z 10026900 f i KTabFileCtrl.obj
 0001:00025950       ??0KTabFileCtrl@@QAE@ABV0@@Z 10026950 f i KTabFileCtrl.obj
 0001:000259c0       ??4KTabFileCtrl@@QAEAAV0@ABV0@@Z 100269c0 f i KTabFileCtrl.obj
 0001:000259f0       ??_GKTabFileCtrl@@UAEPAXI@Z 100269f0 f i KTabFileCtrl.obj
 0001:00025a20       ??_EKTabFileCtrl@@UAEPAXI@Z 10026a20 f i KTabFileCtrl.obj
 0001:00025a90       ??0KTabFileCtrl@@QAE@XZ    10026a90 f   KTabFileCtrl.obj
 0001:00025ae7       ??1KTabFileCtrl@@UAE@XZ    10026ae7 f   KTabFileCtrl.obj
 0001:00025b47       ?Load@KTabFileCtrl@@UAEHPAD@Z 10026b47 f   KTabFileCtrl.obj
 0001:00025fdd       ?LoadPack@KTabFileCtrl@@QAEHPAD@Z 10026fdd f   KTabFileCtrl.obj
 0001:00025fef       ?Save@KTabFileCtrl@@UAEHPAD@Z 10026fef f   KTabFileCtrl.obj
 0001:000261d0       ?GetRowName@KTabFileCtrl@@QAEPADH@Z 100271d0 f   KTabFileCtrl.obj
 0001:00026239       ?GetColName@KTabFileCtrl@@QAEPADH@Z 10027239 f   KTabFileCtrl.obj
 0001:000262b2       ?FindRow@KTabFileCtrl@@UAEHPAD@Z 100272b2 f   KTabFileCtrl.obj
 0001:00026330       ?FindColumn@KTabFileCtrl@@UAEHPAD@Z 10027330 f   KTabFileCtrl.obj
 0001:000263a8       ?GetValue@KTabFileCtrl@@AAEHHHAAPADK@Z 100273a8 f   KTabFileCtrl.obj
 0001:0002646c       ?SetValue@KTabFileCtrl@@AAEHHHPADKH@Z 1002746c f   KTabFileCtrl.obj
 0001:000267f5       ?GetString@KTabFileCtrl@@UAEHHHPAD0K@Z 100277f5 f   KTabFileCtrl.obj
 0001:0002685a       ?GetInteger@KTabFileCtrl@@UAEHHHHPAH@Z 1002785a f   KTabFileCtrl.obj
 0001:000268b3       ?GetFloat@KTabFileCtrl@@UAEHHHMPAM@Z 100278b3 f   KTabFileCtrl.obj
 0001:0002690c       ?Clear@KTabFileCtrl@@UAEXXZ 1002790c f   KTabFileCtrl.obj
 0001:000269ae       ?WriteString@KTabFileCtrl@@QAEHHHPADK@Z 100279ae f   KTabFileCtrl.obj
 0001:000269f0       ?WriteInteger@KTabFileCtrl@@QAEHHHH@Z 100279f0 f   KTabFileCtrl.obj
 0001:00026a50       ?WriteFloat@KTabFileCtrl@@QAEHHHM@Z 10027a50 f   KTabFileCtrl.obj
 0001:00026ab5       ?Str2Col@KTabFileCtrl@@AAEHPAD@Z 10027ab5 f   KTabFileCtrl.obj
 0001:00026b10       ?Remove@KTabFileCtrl@@QAEHH@Z 10027b10 f   KTabFileCtrl.obj
 0001:00026bb2       ?InsertAfter@KTabFileCtrl@@QAEHH@Z 10027bb2 f   KTabFileCtrl.obj
 0001:00026cdb       ?InsertBefore@KTabFileCtrl@@QAEHH@Z 10027cdb f   KTabFileCtrl.obj
 0001:00026e04       ?InsertNewCol@KTabFileCtrl@@QAEHPAD@Z 10027e04 f   KTabFileCtrl.obj
 0001:00026e80       ??0TTabLineNode@@QAE@XZ    10027e80 f i KTabFileCtrl.obj
 0001:00026ea0       ??_GTTabLineNode@@UAEPAXI@Z 10027ea0 f i KTabFileCtrl.obj
 0001:00026ea0       ??_ETTabLineNode@@UAEPAXI@Z 10027ea0 f i KTabFileCtrl.obj
 0001:00026ed0       ??1TTabLineNode@@UAE@XZ    10027ed0 f i KTabFileCtrl.obj
 0001:00026f70       ??0TTabColNode@@QAE@XZ     10027f70 f i KTabFileCtrl.obj
 0001:00026f90       ??_GTTabColNode@@UAEPAXI@Z 10027f90 f i KTabFileCtrl.obj
 0001:00026f90       ??_ETTabColNode@@UAEPAXI@Z 10027f90 f i KTabFileCtrl.obj
 0001:00026fc0       ??1TTabColNode@@UAE@XZ     10027fc0 f i KTabFileCtrl.obj
 0001:00027020       ??_GKList@@QAEPAXI@Z       10028020 f i KTabFileCtrl.obj
 0001:00027050       ?GetWidth@KTgaFile32@@QAEJXZ 10028050 f i KTgaFile32.obj
 0001:00027070       ?GetHeight@KTgaFile32@@QAEJXZ 10028070 f i KTgaFile32.obj
 0001:00027090       ??0KTgaFile32@@QAE@XZ      10028090 f i KTgaFile32.obj
 0001:000270b0       ??4KTgaFile32@@QAEAAV0@ABV0@@Z 100280b0 f i KTgaFile32.obj
 0001:000270e0       ??1KTgaFile32@@QAE@XZ      100280e0 f i KTgaFile32.obj
 0001:00027100       ?Load2Buffer@KTgaFile32@@QAEHPAD@Z 10028100 f   KTgaFile32.obj
 0001:000277d0       ??0KThread@@QAE@XZ         100287d0 f   KThread.obj
 0001:00027805       ??1KThread@@QAE@XZ         10028805 f   KThread.obj
 0001:0002782d       ?MyThreadProc@@YGIPAX@Z    1002882d f   KThread.obj
 0001:00027857       ?ThreadFunction@KThread@@QAEKXZ 10028857 f   KThread.obj
 0001:00027874       ?Create@KThread@@QAEHP6AXPAX@Z0@Z 10028874 f   KThread.obj
 0001:000278c2       ?Destroy@KThread@@QAEXXZ   100288c2 f   KThread.obj
 0001:000278db       ?Suspend@KThread@@QAEXXZ   100288db f   KThread.obj
 0001:000278f2       ?Resume@KThread@@QAEXXZ    100288f2 f   KThread.obj
 0001:00027909       ?IsRunning@KThread@@QAEHXZ 10028909 f   KThread.obj
 0001:00027930       ?WaitForExit@KThread@@QAEXXZ 10028930 f   KThread.obj
 0001:00027949       ?GetPriority@KThread@@QAEHXZ 10028949 f   KThread.obj
 0001:00027960       ?SetPriority@KThread@@QAEHH@Z 10028960 f   KThread.obj
 0001:00027980       ??0KTimer@@QAE@XZ          10028980 f   KTimer.obj
 0001:000279d4       ?Start@KTimer@@QAEXXZ      100289d4 f   KTimer.obj
 0001:000279ec       ?Stop@KTimer@@QAEXXZ       100289ec f   KTimer.obj
 0001:00027a04       ?GetElapse@KTimer@@QAEKXZ  10028a04 f   KTimer.obj
 0001:00027a4b       ?GetElapseFrequency@KTimer@@QAEKXZ 10028a4b f   KTimer.obj
 0001:00027a75       ?GetInterval@KTimer@@QAEKXZ 10028a75 f   KTimer.obj
 0001:00027ab3       ?Passed@KTimer@@QAEHH@Z    10028ab3 f   KTimer.obj
 0001:00027ade       ?GetFPS@KTimer@@QAEHPAH@Z  10028ade f   KTimer.obj
 0001:00027b30       ??0KVideo@@QAE@XZ          10028b30 f   KVideo.obj
 0001:00027c2a       ??1KVideo@@QAE@XZ          10028c2a f   KVideo.obj
 0001:00027c90       ?ThreadFunction@KVideo@@KAXPAX@Z 10028c90 f   KVideo.obj
 0001:00027cba       ?Open@KVideo@@UAEHPAD@Z    10028cba f   KVideo.obj
 0001:00027cc9       ?Init@KVideo@@MAEHXZ       10028cc9 f   KVideo.obj
 0001:00027d00       ?Close@KVideo@@UAEXXZ      10028d00 f   KVideo.obj
 0001:00027d39       ?InitEventHandle@KVideo@@MAEHXZ 10028d39 f   KVideo.obj
 0001:00027da8       ?FreeEventHandle@KVideo@@MAEXXZ 10028da8 f   KVideo.obj
 0001:00027dfb       ?HandleNotify@KVideo@@UAEHXZ 10028dfb f   KVideo.obj
 0001:00027e40       ?NextFrame@KVideo@@MAEHXZ  10028e40 f   KVideo.obj
 0001:00027e4d       ?Play@KVideo@@UAEXHHH@Z    10028e4d f   KVideo.obj
 0001:00027eb4       ?Stop@KVideo@@UAEXXZ       10028eb4 f   KVideo.obj
 0001:00027eea       ?IsPlaying@KVideo@@UAEHXZ  10028eea f   KVideo.obj
 0001:00027f03       ?Seek@KVideo@@UAEXH@Z      10028f03 f   KVideo.obj
 0001:00027f10       ?Rewind@KVideo@@UAEXXZ     10028f10 f   KVideo.obj
 0001:00027f20       ?g_ImaAdpcmDecode@@YAKPAXH0H@Z 10028f20 f   KWavCodec.obj
 0001:00028240       ?GetWaveSize@KWavFile@@QAEKXZ 10029240 f i KWavFile.obj
 0001:00028260       ?GetFormatTag@KWavFile@@QAEGXZ 10029260 f i KWavFile.obj
 0001:00028280       ?GetBlockAlign@KWavFile@@QAEGXZ 10029280 f i KWavFile.obj
 0001:000282a0       ??4KWavFile@@QAEAAV0@ABV0@@Z 100292a0 f i KWavFile.obj
 0001:000282d0       ??0KWavFile@@QAE@XZ        100292d0 f   KWavFile.obj
 0001:00028304       ??1KWavFile@@QAE@XZ        10029304 f   KWavFile.obj
 0001:0002834c       ?Open@KWavFile@@QAEHPAD@Z  1002934c f   KWavFile.obj
 0001:00028485       ?Read@KWavFile@@QAEKPAXK@Z 10029485 f   KWavFile.obj
 0001:0002854a       ?Rewind@KWavFile@@QAEXXZ   1002954a f   KWavFile.obj
 0001:00028566       ?Close@KWavFile@@QAEXXZ    10029566 f   KWavFile.obj
 0001:000285af       ?GetSilenceByte@KWavFile@@QAEEXZ 100295af f   KWavFile.obj
 0001:000285e7       ?GetPcmWavFormat@KWavFile@@QAEXPAUtWAVEFORMATEX@@@Z 100295e7 f   KWavFile.obj
 0001:000286d0       ??0KWavMusic@@QAE@XZ       100296d0 f i KWavMusic.obj
 0001:00028730       ??0KWavMusic@@QAE@ABV0@@Z  10029730 f i KWavMusic.obj
 0001:00028770       ??4KWavMusic@@QAEAAV0@ABV0@@Z 10029770 f i KWavMusic.obj
 0001:000287b0       ??1KWavMusic@@UAE@XZ       100297b0 f i KWavMusic.obj
 0001:00028800       ??_GKWavMusic@@UAEPAXI@Z   10029800 f i KWavMusic.obj
 0001:00028830       ??_EKWavMusic@@UAEPAXI@Z   10029830 f i KWavMusic.obj
 0001:000288b0       ?Open@KWavMusic@@UAEHPAD@Z 100298b0 f   KWavMusic.obj
 0001:000288f3       ?InitSoundFormat@KWavMusic@@MAEXXZ 100298f3 f   KWavMusic.obj
 0001:00028977       ?ReadWaveData@KWavMusic@@MAEKPAEK@Z 10029977 f   KWavMusic.obj
 0001:00028997       ?Rewind@KWavMusic@@UAEXXZ  10029997 f   KWavMusic.obj
 0001:000289b0       ??0KWavSound@@QAE@XZ       100299b0 f   KWavSound.obj
 0001:000289cc       ??1KWavSound@@QAE@XZ       100299cc f   KWavSound.obj
 0001:000289df       ?Load@KWavSound@@QAEHPAD@Z 100299df f   KWavSound.obj
 0001:00028c44       ?Free@KWavSound@@QAEXXZ    10029c44 f   KWavSound.obj
 0001:00028cad       ?GetFreeBuffer@KWavSound@@AAEHXZ 10029cad f   KWavSound.obj
 0001:00028d25       ?GetPlayBuffer@KWavSound@@AAEHXZ 10029d25 f   KWavSound.obj
 0001:00028d9d       ?Play@KWavSound@@QAEXHHH@Z 10029d9d f   KWavSound.obj
 0001:00028e37       ?Stop@KWavSound@@QAEXXZ    10029e37 f   KWavSound.obj
 0001:00028e6f       ?SetPan@KWavSound@@QAEXH@Z 10029e6f f   KWavSound.obj
 0001:00028ead       ?SetVolume@KWavSound@@QAEXH@Z 10029ead f   KWavSound.obj
 0001:00028eeb       ?IsPlaying@KWavSound@@QAEHXZ 10029eeb f   KWavSound.obj
 0001:00028f10       ??0KWin32App@@QAE@XZ       10029f10 f   KWin32App.obj
 0001:00028f7f       ?Init@KWin32App@@UAEHPAUHINSTANCE__@@@Z 10029f7f f   KWin32App.obj
 0001:00028fed       ?InitClass@KWin32App@@MAEHPAUHINSTANCE__@@@Z 10029fed f   KWin32App.obj
 0001:0002908f       ?InitWindow@KWin32App@@MAEHPAUHINSTANCE__@@@Z 1002a08f f   KWin32App.obj
 0001:00029112       ?Run@KWin32App@@UAEXXZ     1002a112 f   KWin32App.obj
 0001:000291af       ?GameInit@KWin32App@@MAEHXZ 1002a1af f   KWin32App.obj
 0001:000291bf       ?GameLoop@KWin32App@@MAEHXZ 1002a1bf f   KWin32App.obj
 0001:000291d5       ?GameExit@KWin32App@@MAEHXZ 1002a1d5 f   KWin32App.obj
 0001:000291e5       ?MsgProc@KWin32App@@UAEJPAUHWND__@@IIJ@Z 1002a1e5 f   KWin32App.obj
 0001:0002945c       ?ShowMouse@KWin32App@@UAEXH@Z 1002a45c f   KWin32App.obj
 0001:00029472       ?SetMultiGame@KWin32App@@UAEXH@Z 1002a472 f   KWin32App.obj
 0001:00029488       ?SetMouseHoverTime@KWin32App@@QAEXI@Z 1002a488 f   KWin32App.obj
 0001:0002949e       ?GenerateMsgHoverMsg@KWin32App@@AAEXXZ 1002a49e f   KWin32App.obj
 0001:00029590       ?g_GetMainHWnd@@YAPAUHWND__@@XZ 1002a590 f   KWin32Wnd.obj
 0001:0002959a       ?g_SetMainHWnd@@YAXPAUHWND__@@@Z 1002a59a f   KWin32Wnd.obj
 0001:000295a7       ?g_GetDrawHWnd@@YAPAUHWND__@@XZ 1002a5a7 f   KWin32Wnd.obj
 0001:000295b1       ?g_SetDrawHWnd@@YAXPAUHWND__@@@Z 1002a5b1 f   KWin32Wnd.obj
 0001:000295be       ?g_GetClientRect@@YAXPAUtagRECT@@@Z 1002a5be f   KWin32Wnd.obj
 0001:00029619       ?g_ClientToScreen@@YAXPAUtagRECT@@@Z 1002a619 f   KWin32Wnd.obj
 0001:00029652       ?g_ScreenToClient@@YAXPAUtagRECT@@@Z 1002a652 f   KWin32Wnd.obj
 0001:0002968b       ?g_ScreenToClient@@YAXPAUtagPOINT@@@Z 1002a68b f   KWin32Wnd.obj
 0001:000296c0       ??4KZipCodec@@QAEAAV0@ABV0@@Z 1002a6c0 f i KZipCodec.obj
 0001:000296f0       ??0KZipCodec@@QAE@XZ       1002a6f0 f   KZipCodec.obj
 0001:00029765       ?Decode@KZipCodec@@QAEHPAX0PAUlf@@@Z 1002a765 f   KZipCodec.obj
 0001:000297b7       ?extract_init@KZipCodec@@AAEXXZ 1002a7b7 f   KZipCodec.obj
 0001:000297fd       ?extract_file@KZipCodec@@AAEXXZ 1002a7fd f   KZipCodec.obj
 0001:000298b2       ?extract_exit@KZipCodec@@AAEXXZ 1002a8b2 f   KZipCodec.obj
 0001:000298e0       ?extract_flush@KZipCodec@@AAEXXZ 1002a8e0 f   KZipCodec.obj
 0001:00029936       ?store_char@KZipCodec@@AAEXD@Z 1002a936 f   KZipCodec.obj
 0001:000299a6       ?lookat_code@KZipCodec@@AAEIH@Z 1002a9a6 f   KZipCodec.obj
 0001:00029a95       ?get_code@KZipCodec@@AAEIH@Z 1002aa95 f   KZipCodec.obj
 0001:00029ad4       ?extract_copy@KZipCodec@@AAEXI@Z 1002aad4 f   KZipCodec.obj
 0001:00029ba8       ?extract_stored@KZipCodec@@AAEXXZ 1002aba8 f   KZipCodec.obj
 0001:00029bc2       ?extract_inflate@KZipCodec@@AAEXXZ 1002abc2 f   KZipCodec.obj
 0001:00029cd5       ?inf_build_tree@KZipCodec@@AAEHPAIII00PAPAUhuffman_tree@@0@Z 1002acd5 f   KZipCodec.obj
 0001:0002a434       ?inf_free@KZipCodec@@AAEXPAUhuffman_tree@@@Z 1002b434 f   KZipCodec.obj
 0001:0002a470       ?inf_codes@KZipCodec@@AAEHPAUhuffman_tree@@0HH@Z 1002b470 f   KZipCodec.obj
 0001:0002a677       ?inf_fixed@KZipCodec@@AAEHXZ 1002b677 f   KZipCodec.obj
 0001:0002a80c       ?inf_dynamic@KZipCodec@@AAEHXZ 1002b80c f   KZipCodec.obj
 0001:0002ac80       ??0KZipData@@QAE@XZ        1002bc80 f i KZipData.obj
 0001:0002acd0       ??4KZipData@@QAEAAV0@ABV0@@Z 1002bcd0 f i KZipData.obj
 0001:0002ad00       ??1KZipData@@QAE@XZ        1002bd00 f i KZipData.obj
 0001:0002ad50       ?Open@KZipData@@QAEHPAD@Z  1002bd50 f   KZipData.obj
 0001:0002af26       ?Close@KZipData@@QAEXXZ    1002bf26 f   KZipData.obj
 0001:0002af44       ?Read@KZipData@@QAEKPAXK@Z 1002bf44 f   KZipData.obj
 0001:0002af61       ?Seek@KZipData@@QAEKJK@Z   1002bf61 f   KZipData.obj
 0001:0002af7e       ?Tell@KZipData@@QAEKXZ     1002bf7e f   KZipData.obj
 0001:0002af91       ?Search@KZipData@@QAEHPADPAK1@Z 1002bf91 f   KZipData.obj
 0001:0002b010       ?SetActive@KZipList@@QAEXH@Z 1002c010 f i KZipFile.obj
 0001:0002b030       ?GetActive@KZipList@@QAEHXZ 1002c030 f i KZipFile.obj
 0001:0002b050       ?Lock@KZipList@@QAEXXZ     1002c050 f i KZipFile.obj
 0001:0002b070       ?Unlock@KZipList@@QAEXXZ   1002c070 f i KZipFile.obj
 0001:0002b090       ??4KZipList@@QAEAAV0@ABV0@@Z 1002c090 f i KZipFile.obj
 0001:0002b0c0       ??4KZipFile@@QAEAAV0@ABV0@@Z 1002c0c0 f i KZipFile.obj
 0001:0002b0f0       ?g_SetZipFileMode@@YAXH@Z  1002c0f0 f   KZipFile.obj
 0001:0002b0fd       ??0KZipFile@@QAE@XZ        1002c0fd f   KZipFile.obj
 0001:0002b155       ??1KZipFile@@QAE@XZ        1002c155 f   KZipFile.obj
 0001:0002b1ac       ?Open@KZipFile@@QAEHPAD@Z  1002c1ac f   KZipFile.obj
 0001:0002b215       ?Read@KZipFile@@QAEKPAXK@Z 1002c215 f   KZipFile.obj
 0001:0002b269       ?Seek@KZipFile@@QAEKJK@Z   1002c269 f   KZipFile.obj
 0001:0002b2bd       ?Tell@KZipFile@@QAEKXZ     1002c2bd f   KZipFile.obj
 0001:0002b2e1       ?Size@KZipFile@@QAEKXZ     1002c2e1 f   KZipFile.obj
 0001:0002b305       ?Close@KZipFile@@QAEXXZ    1002c305 f   KZipFile.obj
 0001:0002b325       ?OpenZip@KZipFile@@AAEHPAD@Z 1002c325 f   KZipFile.obj
 0001:0002b4d2       ?ReadZip@KZipFile@@AAEKPAXK@Z 1002c4d2 f   KZipFile.obj
 0001:0002b54b       ?SeekZip@KZipFile@@AAEKJK@Z 1002c54b f   KZipFile.obj
 0001:0002b5d9       ?Save@KZipFile@@QAEHPAD@Z  1002c5d9 f   KZipFile.obj
 0001:0002b640       ??0KZipList@@QAE@XZ        1002c640 f   KZipList.obj
 0001:0002b6ce       ??1KZipList@@QAE@XZ        1002c6ce f   KZipList.obj
 0001:0002b743       ?Open@KZipList@@QAEHPAD@Z  1002c743 f   KZipList.obj
 0001:0002b91e       ?Close@KZipList@@QAEXXZ    1002c91e f   KZipList.obj
 0001:0002b979       ?Read@KZipList@@QAEKPAXK@Z 1002c979 f   KZipList.obj
 0001:0002b9a6       ?Seek@KZipList@@QAEKJK@Z   1002c9a6 f   KZipList.obj
 0001:0002b9d3       ?Tell@KZipList@@QAEKXZ     1002c9d3 f   KZipList.obj
 0001:0002b9f6       ?Search@KZipList@@QAEHPADPAK1@Z 1002c9f6 f   KZipList.obj
 0001:0002ba74       ?Decode@KZipList@@QAEHPAE0PAUlf@@@Z 1002ca74 f   KZipList.obj
 0001:0002baa0       ?md5_init@@YAXPAUmd5_state_s@@@Z 1002caa0 f   md5.obj
 0001:0002bae0       ?md5_append@@YAXPAUmd5_state_s@@PBEH@Z 1002cae0 f   md5.obj
 0001:0002c9fa       ?md5_finish@@YAXPAUmd5_state_s@@QAE@Z 1002d9fa f   md5.obj
 0001:0002cac0       ??0XPackFile@@QAE@XZ       1002dac0 f   XPackFile.obj
 0001:0002cb02       ??1XPackFile@@QAE@XZ       1002db02 f   XPackFile.obj
 0001:0002cb22       ?Open@XPackFile@@QAE_NPBDH@Z 1002db22 f   XPackFile.obj
 0001:0002cca9       ?Close@XPackFile@@QAEXXZ   1002dca9 f   XPackFile.obj
 0001:0002cdba       ?FreeElemCache@XPackFile@@CAXH@Z 1002ddba f   XPackFile.obj
 0001:0002ce34       ?DirectRead@XPackFile@@ABE_NPAXII@Z 1002de34 f   XPackFile.obj
 0001:0002ce9b       ?ExtractRead@XPackFile@@ABE_NPAXIJII@Z 1002de9b f   XPackFile.obj
 0001:0002cf52       ?FindElemFile@XPackFile@@ABEHK@Z 1002df52 f   XPackFile.obj
 0001:0002cfe6       ?FindElemFile@XPackFile@@QAE_NKAAUXPackElemFileRef@@@Z 1002dfe6 f   XPackFile.obj
 0001:0002d0ef       ?ReadElemFile@XPackFile@@ABEPAXH@Z 1002e0ef f   XPackFile.obj
 0001:0002d19c       ?FindElemFileInCache@XPackFile@@AAEHIH@Z 1002e19c f   XPackFile.obj
 0001:0002d234       ?AddElemFileToCache@XPackFile@@AAEHPAXH@Z 1002e234 f   XPackFile.obj
 0001:0002d371       ?ElemFileRead@XPackFile@@QAEHAAUXPackElemFileRef@@PAXI@Z 1002e371 f   XPackFile.obj
 0001:0002d52d       ?GetSprHeader@XPackFile@@QAEPAUSPRHEAD@@AAUXPackElemFileRef@@AAPAUSPROFFS@@@Z 1002e52d f   XPackFile.obj
 0001:0002d6fd       ?GetSprFrame@XPackFile@@QAEPAUSPRFRAME@@PAUSPRHEAD@@H@Z 1002e6fd f   XPackFile.obj
 0001:0002d8c0       _EDOneTimePad_Encipher     1002e8c0 f   EDOneTimePad.obj
 0001:0002d9ea       _EDOneTimePad_Decipher     1002e9ea f   EDOneTimePad.obj
 0001:0002db70       _AdviseEngine              1002eb70 f   Text.obj
 0001:0002db7f       _UnAdviseEngine            1002eb7f f   Text.obj
 0001:0002db9b       _TReplaceText              1002eb9b f   Text.obj
 0001:0002dce8       _TGetColor                 1002ece8 f   Text.obj
 0001:0002de9a       _TIsCharacterNotAlowAtLineHead 1002ee9a f   Text.obj
 0001:0002dff2       _TGetSecondVisibleCharacterThisLine 1002eff2 f   Text.obj
 0001:0002e0e1       _TSplitString              1002f0e1 f   Text.obj
 0001:0002e190       _TSplitEncodedString       1002f190 f   Text.obj
 0001:0002e2ff       _TEncodeText               1002f2ff f   Text.obj
 0001:0002e50d       _TFilterEncodedText        1002f50d f   Text.obj
 0001:0002ebe6       _TRemoveCtrlInEncodedText  1002fbe6 f   Text.obj
 0001:0002ec8b       _TGetEncodedTextLineCount  1002fc8b f   Text.obj
 0001:0002f08f       _TGetEncodedItemChatLineCount 1003008f f   Text.obj
 0001:0002f55d       ?TGetEncodeStringLineHeadPos@@YAHPBDHHHHH@Z 1003055d f   Text.obj
 0001:0002f886       _TGetLimitLenEncodedString 10030886 f   Text.obj
 0001:0002fad3       _TGetLimitLenString        10030ad3 f   Text.obj
 0001:0002fb8d       _TFindSpecialCtrlInEncodedText 10030b8d f   Text.obj
 0001:0002fc6c       _TClearSpecialCtrlInEncodedText 10030c6c f   Text.obj
 0001:0002fdf0       _TGetEncodedTextOutputLenPos 10030df0 f   Text.obj
 0001:0002ffe5       _TGetEncodedTextEffectCtrls 10030fe5 f   Text.obj
 0001:0003016e       _ucl_alloc                 1003116e f   alloc.obj
 0001:00030191       _ucl_malloc                10031191 f   alloc.obj
 0001:000301b2       _ucl_free                  100311b2 f   alloc.obj
 0001:000301d0       _ucl_fread                 100311d0 f   io.obj
 0001:000301ec       _ucl_fwrite                100311ec f   io.obj
 0001:00030210       _ucl_nrv2b_99_compress     10031210 f   n2b_99.obj
 0001:00031bf0       _ucl_nrv2b_decompress_8    10032bf0 f   n2b_d.obj
 0001:00031f29       _ucl_nrv2b_decompress_le16 10032f29 f   n2b_d.obj
 0001:00032340       _ucl_nrv2b_decompress_le32 10033340 f   n2b_d.obj
 0001:000326e0       _ucl_nrv2b_decompress_safe_8 100336e0 f   n2b_ds.obj
 0001:00032b14       _ucl_nrv2b_decompress_safe_le16 10033b14 f   n2b_ds.obj
 0001:00033024       _ucl_nrv2b_decompress_safe_le32 10034024 f   n2b_ds.obj
 0001:000334b0       _ucl_nrv2b_test_overlap_8  100344b0 f   n2b_to.obj
 0001:000338d3       _ucl_nrv2b_test_overlap_le16 100348d3 f   n2b_to.obj
 0001:00033dcf       _ucl_nrv2b_test_overlap_le32 10034dcf f   n2b_to.obj
 0001:00034250       _ucl_nrv2d_99_compress     10035250 f   n2d_99.obj
 0001:00035ce0       _ucl_nrv2d_decompress_8    10036ce0 f   n2d_d.obj
 0001:00036077       _ucl_nrv2d_decompress_le16 10037077 f   n2d_d.obj
 0001:0003650b       _ucl_nrv2d_decompress_le32 1003750b f   n2d_d.obj
 0001:00036910       _ucl_nrv2d_decompress_safe_8 10037910 f   n2d_ds.obj
 0001:00036da2       _ucl_nrv2d_decompress_safe_le16 10037da2 f   n2d_ds.obj
 0001:00037331       _ucl_nrv2d_decompress_safe_le32 10038331 f   n2d_ds.obj
 0001:00037830       _ucl_nrv2d_test_overlap_8  10038830 f   n2d_to.obj
 0001:00037cb1       _ucl_nrv2d_test_overlap_le16 10038cb1 f   n2d_to.obj
 0001:0003822a       _ucl_nrv2d_test_overlap_le32 1003922a f   n2d_to.obj
 0001:00038710       _ucl_nrv2e_99_compress     10039710 f   n2e_99.obj
 0001:0003a1d0       _ucl_nrv2e_decompress_8    1003b1d0 f   n2e_d.obj
 0001:0003a5f0       _ucl_nrv2e_decompress_le16 1003b5f0 f   n2e_d.obj
 0001:0003ab4c       _ucl_nrv2e_decompress_le32 1003bb4c f   n2e_d.obj
 0001:0003aff0       _ucl_nrv2e_decompress_safe_8 1003bff0 f   n2e_ds.obj
 0001:0003b507       _ucl_nrv2e_decompress_safe_le16 1003c507 f   n2e_ds.obj
 0001:0003bb5b       _ucl_nrv2e_decompress_safe_le32 1003cb5b f   n2e_ds.obj
 0001:0003c0f0       _ucl_nrv2e_test_overlap_8  1003d0f0 f   n2e_to.obj
 0001:0003c5fa       _ucl_nrv2e_test_overlap_le16 1003d5fa f   n2e_to.obj
 0001:0003cc3b       _ucl_nrv2e_test_overlap_le32 1003dc3b f   n2e_to.obj
 0001:0003d1c0       _ucl_crc32                 1003e1c0 f   ucl_crc.obj
 0001:0003d4a0       __ucl_config_check         1003e4a0 f   ucl_init.obj
 0001:0003dc53       ___ucl_init2               1003ec53 f   ucl_init.obj
 0001:0003dd20       ___ucl_ptr_linear          1003ed20 f   ucl_ptr.obj
 0001:0003dd31       ___ucl_align_gap           1003ed31 f   ucl_ptr.obj
 0001:0003dd70       _ucl_memcmp                1003ed70 f   ucl_str.obj
 0001:0003dd89       _ucl_memcpy                1003ed89 f   ucl_str.obj
 0001:0003dda2       _ucl_memmove               1003eda2 f   ucl_str.obj
 0001:0003ddbc       _ucl_memset                1003edbc f   ucl_str.obj
 0001:0003dde0       _ucl_assert                1003ede0 f   ucl_util.obj
 0001:0003ddee       _ucl_copyright             1003edee f   ucl_util.obj
 0001:0003ddf8       _ucl_version               1003edf8 f   ucl_util.obj
 0001:0003de02       _ucl_version_string        1003ee02 f   ucl_util.obj
 0001:0003de0c       _ucl_version_date          1003ee0c f   ucl_util.obj
 0001:0003de16       __ucl_version_string       1003ee16 f   ucl_util.obj
 0001:0003de20       __ucl_version_date         1003ee20 f   ucl_util.obj
 0001:0003de2a       _ucl_adler32               1003ee2a f   ucl_util.obj
 0001:0003e0a6       _GetModuleHandleA@4        1003f0a6 f   kernel32:KERNEL32.dll
 0001:0003e0ac       _GetProcAddress@8          1003f0ac f   kernel32:KERNEL32.dll
 0001:0003e0b2       _LoadLibraryA@4            1003f0b2 f   kernel32:KERNEL32.dll
 0001:0003e0b8       _FreeLibrary@4             1003f0b8 f   kernel32:KERNEL32.dll
 0001:0003e0be       _CreateEventA@16           1003f0be f   kernel32:KERNEL32.dll
 0001:0003e0c4       _CloseHandle@4             1003f0c4 f   kernel32:KERNEL32.dll
 0001:0003e0ca       _SetEvent@4                1003f0ca f   kernel32:KERNEL32.dll
 0001:0003e0d0       _WaitForSingleObject@8     1003f0d0 f   kernel32:KERNEL32.dll
 0001:0003e0d6       _FindClose@4               1003f0d6 f   kernel32:KERNEL32.dll
 0001:0003e0dc       _DeleteFileA@4             1003f0dc f   kernel32:KERNEL32.dll
 0001:0003e0e2       _SetFileAttributesA@8      1003f0e2 f   kernel32:KERNEL32.dll
 0001:0003e0e8       _FindNextFileA@8           1003f0e8 f   kernel32:KERNEL32.dll
 0001:0003e0ee       _FindFirstFileA@8          1003f0ee f   kernel32:KERNEL32.dll
 0001:0003e0f4       _CompareFileTime@8         1003f0f4 f   kernel32:KERNEL32.dll
 0001:0003e0fa       _CopyFileA@12              1003f0fa f   kernel32:KERNEL32.dll
 0001:0003e100       _CreateDirectoryA@8        1003f100 f   kernel32:KERNEL32.dll
 0001:0003e106       _GetFileAttributesA@4      1003f106 f   kernel32:KERNEL32.dll
 0001:0003e10c       _Sleep@4                   1003f10c f   kernel32:KERNEL32.dll
 0001:0003e112       _GetTickCount@0            1003f112 f   kernel32:KERNEL32.dll
 0001:0003e118       _WaitForMultipleObjects@16 1003f118 f   kernel32:KERNEL32.dll
 0001:0003e11e       _InitializeCriticalSection@4 1003f11e f   kernel32:KERNEL32.dll
 0001:0003e124       _DeleteCriticalSection@4   1003f124 f   kernel32:KERNEL32.dll
 0001:0003e12a       _EnterCriticalSection@4    1003f12a f   kernel32:KERNEL32.dll
 0001:0003e130       _LeaveCriticalSection@4    1003f130 f   kernel32:KERNEL32.dll
 0001:0003e136       _SetCurrentDirectoryA@4    1003f136 f   kernel32:KERNEL32.dll
 0001:0003e13c       _GetCurrentDirectoryA@8    1003f13c f   kernel32:KERNEL32.dll
 0001:0003e142       _TerminateThread@8         1003f142 f   kernel32:KERNEL32.dll
 0001:0003e148       _SuspendThread@4           1003f148 f   kernel32:KERNEL32.dll
 0001:0003e14e       _ResumeThread@4            1003f14e f   kernel32:KERNEL32.dll
 0001:0003e154       _GetThreadPriority@4       1003f154 f   kernel32:KERNEL32.dll
 0001:0003e15a       _SetThreadPriority@8       1003f15a f   kernel32:KERNEL32.dll
 0001:0003e160       _QueryPerformanceFrequency@4 1003f160 f   kernel32:KERNEL32.dll
 0001:0003e166       _QueryPerformanceCounter@4 1003f166 f   kernel32:KERNEL32.dll
 0001:0003e16c       _SetFilePointer@16         1003f16c f   kernel32:KERNEL32.dll
 0001:0003e172       _ReadFile@20               1003f172 f   kernel32:KERNEL32.dll
 0001:0003e178       _GetFileSize@8             1003f178 f   kernel32:KERNEL32.dll
 0001:0003e17e       _CreateFileA@28            1003f17e f   kernel32:KERNEL32.dll
 0001:0003e184       _SetWindowPos@28           1003f184 f   user32:USER32.dll
 0001:0003e18a       _AdjustWindowRectEx@16     1003f18a f   user32:USER32.dll
 0001:0003e190       _GetMenu@4                 1003f190 f   user32:USER32.dll
 0001:0003e196       _GetWindowLongA@8          1003f196 f   user32:USER32.dll
 0001:0003e19c       _SetWindowLongA@12         1003f19c f   user32:USER32.dll
 0001:0003e1a2       _FindWindowA@8             1003f1a2 f   user32:USER32.dll
 0001:0003e1a8       _SendMessageA@16           1003f1a8 f   user32:USER32.dll
 0001:0003e1ae       _MessageBoxA@16            1003f1ae f   user32:USER32.dll
 0001:0003e1b4       _GetKeyboardLayout@4       1003f1b4 f   user32:USER32.dll
 0001:0003e1ba       _GetSystemMetrics@4        1003f1ba f   user32:USER32.dll
 0001:0003e1c0       _DefWindowProcA@16         1003f1c0 f   user32:USER32.dll
 0001:0003e1c6       _GetCursorPos@4            1003f1c6 f   user32:USER32.dll
 0001:0003e1cc       _DispatchMessageA@4        1003f1cc f   user32:USER32.dll
 0001:0003e1d2       _PostQuitMessage@4         1003f1d2 f   user32:USER32.dll
 0001:0003e1d8       _GetMessageA@16            1003f1d8 f   user32:USER32.dll
 0001:0003e1de       _WaitMessage@0             1003f1de f   user32:USER32.dll
 0001:0003e1e4       _PostMessageA@16           1003f1e4 f   user32:USER32.dll
 0001:0003e1ea       _RegisterClassA@4          1003f1ea f   user32:USER32.dll
 0001:0003e1f0       _LoadCursorA@8             1003f1f0 f   user32:USER32.dll
 0001:0003e1f6       _LoadIconA@8               1003f1f6 f   user32:USER32.dll
 0001:0003e1fc       _SetFocus@4                1003f1fc f   user32:USER32.dll
 0001:0003e202       _UpdateWindow@4            1003f202 f   user32:USER32.dll
 0001:0003e208       _CreateWindowExA@48        1003f208 f   user32:USER32.dll
 0001:0003e20e       _TranslateMessage@4        1003f20e f   user32:USER32.dll
 0001:0003e214       _PeekMessageA@20           1003f214 f   user32:USER32.dll
 0001:0003e21a       _SetCursor@4               1003f21a f   user32:USER32.dll
 0001:0003e220       _DestroyWindow@4           1003f220 f   user32:USER32.dll
 0001:0003e226       _GetClientRect@8           1003f226 f   user32:USER32.dll
 0001:0003e22c       _ClientToScreen@8          1003f22c f   user32:USER32.dll
 0001:0003e232       _ScreenToClient@8          1003f232 f   user32:USER32.dll
 0001:0003e238       _GetStockObject@4          1003f238 f   gdi32:GDI32.dll
 0001:0003e23e       _GetOpenFileNameA@4        1003f23e f   comdlg32:comdlg32.dll
 0001:0003e244       _GetSaveFileNameA@4        1003f244 f   comdlg32:comdlg32.dll
 0001:0003e24a       _DirectDrawCreate@12       1003f24a f   ddraw:DDRAW.dll
 0001:0003e250       _DirectSoundCreate@12      1003f250 f   dsound:DSOUND.dll
 0001:0003e256       _timeSetEvent@20           1003f256 f   winmm:WINMM.dll
 0001:0003e25c       _timeKillEvent@4           1003f25c f   winmm:WINMM.dll
 0001:0003e262       _timeGetTime@0             1003f262 f   winmm:WINMM.dll
 0001:0003e268       _DirectInput8Create@20     1003f268 f   dinput8:DINPUT8.dll
 0001:0003f2e0       _jpeg_decode_info          100402e0 f   JpgLib:KJpegLib.obj
 0001:0003f570       _jpeg_decode_data          10040570 f   JpgLib:KJpegLib.obj
 0001:0003f780       _jpeg_decode_dataEx        10040780 f   JpgLib:KJpegLib.obj
 0001:0003f9a0       _jpeg_init_table           100409a0 f   JpgLib:KJpegLib.obj
 0001:0003f9d0       _jpeg_free_table           100409d0 f   JpgLib:KJpegLib.obj
 0001:0003fa20       _jpeg_decode_init          10040a20 f   JpgLib:KJpegColor.obj
 0001:000404b0       _jpeg_skip_SEG             100414b0 f   JpgLib:KJpegSegment.obj
 0001:000404e0       _jpeg_read_SOF             100414e0 f   JpgLib:KJpegSegment.obj
 0001:000405d0       _jpeg_read_SOS             100415d0 f   JpgLib:KJpegSegment.obj
 0001:00040660       _jpeg_read_DQT             10041660 f   JpgLib:KJpegQuanty.obj
 0001:00040720       _jpeg_read_DHT             10041720 f   JpgLib:KJpegHuffman.obj
 0001:00040850       _jpeg_preprocess           10041850 f   JpgLib:KJpegDecode.obj
 0001:00040880       _jpeg_decode_DU            10041880 f   JpgLib:KJpegDecode.obj
 0001:00040ae0       _jpeg_idct_1d              10041ae0 f   JpgLib:KJpegIdct2d.obj
 0001:00040c60       _jpeg_idct_2d              10041c60 f   JpgLib:KJpegIdct2d.obj
 0001:00040d40       _jpeg_idct_mmx             10041d40 f   JpgLib:KJpegIdct.obj
 0001:00041380       _Lua_SetTable_StringFromId 10042380 f   LuaLibDll:LuaLibDll.dll
 0001:00041386       _Lua_SetTable_DoubleFromId 10042386 f   LuaLibDll:LuaLibDll.dll
 0001:0004138c       _Lua_SetTable_IntFromId    1004238c f   LuaLibDll:LuaLibDll.dll
 0001:00041392       _Lua_SetTable_CFunFromName 10042392 f   LuaLibDll:LuaLibDll.dll
 0001:00041398       _Lua_SetTable_CFunFromId   10042398 f   LuaLibDll:LuaLibDll.dll
 0001:0004139e       _Lua_SetTable_StringFromName 1004239e f   LuaLibDll:LuaLibDll.dll
 0001:000413a4       _Lua_SetTable_IntFromName  100423a4 f   LuaLibDll:LuaLibDll.dll
 0001:000413aa       _Lua_SetTable_DoubleFromName 100423aa f   LuaLibDll:LuaLibDll.dll
 0001:000413b0       _lua_open                  100423b0 f   LuaLibDll:LuaLibDll.dll
 0001:000413b6       _lua_compilebuffer         100423b6 f   LuaLibDll:LuaLibDll.dll
 0001:000413bc       _lua_execute               100423bc f   LuaLibDll:LuaLibDll.dll
 0001:000413c2       _lua_call                  100423c2 f   LuaLibDll:LuaLibDll.dll
 0001:000413c8       _lua_pushusertag           100423c8 f   LuaLibDll:LuaLibDll.dll
 0001:000413ce       _lua_pushvalue             100423ce f   LuaLibDll:LuaLibDll.dll
 0001:000413d4       _lua_pushcclosure          100423d4 f   LuaLibDll:LuaLibDll.dll
 0001:000413da       _lua_pushnil               100423da f   LuaLibDll:LuaLibDll.dll
 0001:000413e0       _lua_pushstring            100423e0 f   LuaLibDll:LuaLibDll.dll
 0001:000413e6       _lua_pushnumber            100423e6 f   LuaLibDll:LuaLibDll.dll
 0001:000413ec       _lua_getglobal             100423ec f   LuaLibDll:LuaLibDll.dll
 0001:000413f2       _lua_tostring              100423f2 f   LuaLibDll:LuaLibDll.dll
 0001:000413f8       _lua_isstring              100423f8 f   LuaLibDll:LuaLibDll.dll
 0001:000413fe       _lua_tonumber              100423fe f   LuaLibDll:LuaLibDll.dll
 0001:00041404       _lua_isnumber              10042404 f   LuaLibDll:LuaLibDll.dll
 0001:0004140a       _lua_gettop                1004240a f   LuaLibDll:LuaLibDll.dll
 0001:00041410       _lua_newtag                10042410 f   LuaLibDll:LuaLibDll.dll
 0001:00041416       _lua_setglobal             10042416 f   LuaLibDll:LuaLibDll.dll
 0001:0004141c       _lua_mathlibopen           1004241c f   LuaLibDll:LuaLibDll.dll
 0001:00041422       _lua_strlibopen            10042422 f   LuaLibDll:LuaLibDll.dll
 0001:00041428       _lua_iolibopen             10042428 f   LuaLibDll:LuaLibDll.dll
 0001:0004142e       _lua_baselibopen           1004242e f   LuaLibDll:LuaLibDll.dll
 0001:00041434       _lua_close                 10042434 f   LuaLibDll:LuaLibDll.dll
 0001:0004143a       _lua_outerrmsg             1004243a f   LuaLibDll:LuaLibDll.dll
 0001:00041440       _lua_gettopindex           10042440 f   LuaLibDll:LuaLibDll.dll
 0001:00041446       _lua_settop                10042446 f   LuaLibDll:LuaLibDll.dll
 0001:0004144c       _lua_newtable              1004244c f   LuaLibDll:LuaLibDll.dll
 0001:00041452       _lua_setgcthreshold        10042452 f   LuaLibDll:LuaLibDll.dll
 0001:00041458       _lua_getgccount            10042458 f   LuaLibDll:LuaLibDll.dll
 0001:0004145e       _lua_dostring              1004245e f   LuaLibDll:LuaLibDll.dll
 0001:00041470       _mp3_decode_head           10042470 f   mp3lib:KMp3Core.obj
 0001:00041490       _mp3_decode_init           10042490 f   mp3lib:KMp3Core.obj
 0001:000414c0       _mp3_decode_info           100424c0 f   mp3lib:KMp3Core.obj
 0001:000414d0       _mp3_decode_frame          100424d0 f   mp3lib:KMp3Core.obj
 0001:000414f0       _L3audio_decode_head       100424f0 f   mp3lib:KMp3Head.obj
 0001:000416a0       _bitget                    100426a0 f   mp3lib:KMp3Decode.obj
 0001:00042540       _L3audio_decode_init       10043540 f   mp3lib:KMp3Decode.obj
 0001:00042d70       _L3audio_decode_info       10043d70 f   mp3lib:KMp3Decode.obj
 0001:00042d90       _L3audio_decode_frame      10043d90 f   mp3lib:KMp3Decode.obj
 0001:00042db0       _sbt_init                  10043db0 f   mp3lib:KMp3Sbt.obj
 0001:00042e70       _sbt_mono_L3               10043e70 f   mp3lib:KMp3Sbt.obj
 0001:00042ed0       _sbt_dual_L3               10043ed0 f   mp3lib:KMp3Sbt.obj
 0001:00042fa0       _sbt16_mono_L3             10043fa0 f   mp3lib:KMp3Sbt.obj
 0001:00043000       _sbt16_dual_L3             10044000 f   mp3lib:KMp3Sbt.obj
 0001:000430c0       _sbt8_mono_L3              100440c0 f   mp3lib:KMp3Sbt.obj
 0001:00043120       _sbt8_dual_L3              10044120 f   mp3lib:KMp3Sbt.obj
 0001:000431e0       _sbtB_mono_L3              100441e0 f   mp3lib:KMp3Sbt.obj
 0001:00043240       _sbtB_dual_L3              10044240 f   mp3lib:KMp3Sbt.obj
 0001:00043300       _sbtB16_mono_L3            10044300 f   mp3lib:KMp3Sbt.obj
 0001:00043360       _sbtB16_dual_L3            10044360 f   mp3lib:KMp3Sbt.obj
 0001:00043420       _sbtB8_mono_L3             10044420 f   mp3lib:KMp3Sbt.obj
 0001:00043480       _sbtB8_dual_L3             10044480 f   mp3lib:KMp3Sbt.obj
 0001:00043540       _hwin_init_addr            10044540 f   mp3lib:KMp3Hybrid.obj
 0001:00043550       _hybrid                    10044550 f   mp3lib:KMp3Hybrid.obj
 0001:00043580       _hybrid_sum                10044580 f   mp3lib:KMp3Hybrid.obj
 0001:000438a0       _sum_f_bands               100448a0 f   mp3lib:KMp3Hybrid.obj
 0001:000438d0       _FreqInvert                100448d0 f   mp3lib:KMp3Hybrid.obj
 0001:000438f0       _alias_init_addr           100448f0 f   mp3lib:KMp3Msis.obj
 0001:00043900       _msis_init_addr            10044900 f   mp3lib:KMp3Msis.obj
 0001:00043910       _msis_init_addr_MPEG2      10044910 f   mp3lib:KMp3Msis.obj
 0001:00043920       _antialias                 10044920 f   mp3lib:KMp3Msis.obj
 0001:00043940       _ms_process                10044940 f   mp3lib:KMp3Msis.obj
 0001:00043970       _is_process_MPEG1          10044970 f   mp3lib:KMp3Msis.obj
 0001:00043b00       _is_process_MPEG2          10044b00 f   mp3lib:KMp3Msis.obj
 0001:00043d10       _quant_init_global_addr    10044d10 f   mp3lib:KMp3Quant.obj
 0001:00043d20       _quant_init_scale_addr     10044d20 f   mp3lib:KMp3Quant.obj
 0001:00043d30       _quant_init_pow_addr       10044d30 f   mp3lib:KMp3Quant.obj
 0001:00043d40       _quant_init_subblock_addr  10044d40 f   mp3lib:KMp3Quant.obj
 0001:00043d50       _dequant                   10044d50 f   mp3lib:KMp3Quant.obj
 0001:00044110       _unpack_huff               10045110 f   mp3lib:KMp3Huf.obj
 0001:00044620       _unpack_huff_quad          10045620 f   mp3lib:KMp3Huf.obj
 0001:00044a50       _unpack_sf_sub_MPEG1       10045a50 f   mp3lib:KMp3Scale.obj
 0001:00044ce0       _unpack_sf_sub_MPEG2       10045ce0 f   mp3lib:KMp3Scale.obj
 0001:00045290       _L3table_init              10046290 f   mp3lib:KMp3Init.obj
 0001:00045400       _hwin_init                 10046400 f   mp3lib:KMp3Init.obj
 0001:000455e0       _imdct_init                100465e0 f   mp3lib:KMp3Init.obj
 0001:00045740       _msis_init                 10046740 f   mp3lib:KMp3Init.obj
 0001:000457f0       _msis_init_MPEG2           100467f0 f   mp3lib:KMp3Init.obj
 0001:00045990       _dct_coef_addr             10046990 f   mp3lib:KMp3Fdct.obj
 0001:000459a0       _fdct32                    100469a0 f   mp3lib:KMp3Fdct.obj
 0001:000459c0       _fdct16                    100469c0 f   mp3lib:KMp3Fdct.obj
 0001:00045c80       _fdct8                     10046c80 f   mp3lib:KMp3Fdct.obj
 0001:00045d50       _window                    10046d50 f   mp3lib:KMp3Win.obj
 0001:00045d70       _window_dual               10046d70 f   mp3lib:KMp3Win.obj
 0001:00045d90       _window16                  10046d90 f   mp3lib:KMp3Win.obj
 0001:00045db0       _window16_dual             10046db0 f   mp3lib:KMp3Win.obj
 0001:00045dd0       _window8                   10046dd0 f   mp3lib:KMp3Win.obj
 0001:00045df0       _window8_dual              10046df0 f   mp3lib:KMp3Win.obj
 0001:00045e10       _windowB                   10046e10 f   mp3lib:KMp3WinB.obj
 0001:00045e30       _windowB_dual              10046e30 f   mp3lib:KMp3WinB.obj
 0001:00045e50       _windowB16                 10046e50 f   mp3lib:KMp3WinB.obj
 0001:00045e70       _windowB16_dual            10046e70 f   mp3lib:KMp3WinB.obj
 0001:00045e90       _windowB8                  10046e90 f   mp3lib:KMp3WinB.obj
 0001:00045eb0       _windowB8_dual             10046eb0 f   mp3lib:KMp3WinB.obj
 0001:00045ed0       _imdct18_asm               10046ed0     mp3lib:mp3_mdct.obj
 0001:000462d6       _imdct6_3_asm              100472d6     mp3lib:mp3_mdct.obj
 0001:00046507       _hybrid_asm                10047507     mp3lib:mp3_mdct.obj
 0001:00047408       _FreqInvert_asm            10048408     mp3lib:mp3_mdct.obj
 0001:00047500       _imdct_init_addr_18        10048500 f   mp3lib:KMp3Mdct.obj
 0001:00047510       _imdct_init_addr_6         10048510 f   mp3lib:KMp3Mdct.obj
 0001:00047520       _imdct18                   10048520 f   mp3lib:KMp3Mdct.obj
 0001:00047530       _imdct6_3                  10048530 f   mp3lib:KMp3Mdct.obj
 0001:00047540       _antialias_asm             10048540     mp3lib:mp3_msis.obj
 0001:000476e0       _forward_bf_asm            100486e0     mp3lib:mp3_fdct.obj
 0001:00047767       _back_bf_asm               10048767     mp3lib:mp3_fdct.obj
 0001:000477da       _fdct32_asm                100487da     mp3lib:mp3_fdct.obj
 0001:00047ee4       _fdct32_dual_asm           10048ee4     mp3lib:mp3_fdct.obj
 0001:00048620       _window_mpg_asm            10049620     mp3lib:mp3_win.obj
 0001:00048985       _window_dual_asm           10049985     mp3lib:mp3_win.obj
 0001:00048cea       _window16_asm              10049cea     mp3lib:mp3_win.obj
 0001:00048fa7       _window16_dual_asm         10049fa7     mp3lib:mp3_win.obj
 0001:00049264       _window8_asm               1004a264     mp3lib:mp3_win.obj
 0001:000495c9       _window8_dual_asm          1004a5c9     mp3lib:mp3_win.obj
 0001:00049930       _windowB_asm               1004a930     mp3lib:mp3_winb.obj
 0001:00049caa       _windowB_dual_asm          1004acaa     mp3lib:mp3_winb.obj
 0001:0004a024       _windowB16_asm             1004b024     mp3lib:mp3_winb.obj
 0001:0004a2f6       _windowB16_dual_asm        1004b2f6     mp3lib:mp3_winb.obj
 0001:0004a5c8       _windowB8_asm              1004b5c8     mp3lib:mp3_winb.obj
 0001:0004a942       _windowB8_dual_asm         1004b942     mp3lib:mp3_winb.obj
 0001:0004acbc       ??3@YAXPAX@Z               1004bcbc f   MSVCRT:MSVCRT.dll
 0001:0004acc2       ??_M@YGXPAXIHP6EX0@Z@Z     1004bcc2 f   MSVCRT:ehvecdtr.obj
 0001:0004ad42       ?__ArrayUnwind@@YGXPAXIHP6EX0@Z@Z 1004bd42 f   MSVCRT:ehvecdtr.obj
 0001:0004adb6       ___CxxFrameHandler         1004bdb6 f   MSVCRT:MSVCRT.dll
 0001:0004adc0       _memcmp                    1004bdc0 f   MSVCRT:MSVCRT.dll
 0001:0004adc6       _memcpy                    1004bdc6 f   MSVCRT:MSVCRT.dll
 0001:0004adcc       ??2@YAPAXI@Z               1004bdcc f   MSVCRT:MSVCRT.dll
 0001:0004add2       _abs                       1004bdd2 f   MSVCRT:MSVCRT.dll
 0001:0004add8       _memset                    1004bdd8 f   MSVCRT:MSVCRT.dll
 0001:0004adde       _vsprintf                  1004bdde f   MSVCRT:MSVCRT.dll
 0001:0004ade4       _exit                      1004bde4 f   MSVCRT:MSVCRT.dll
 0001:0004adea       _sprintf                   1004bdea f   MSVCRT:MSVCRT.dll
 0001:0004adf0       _fopen                     1004bdf0 f   MSVCRT:MSVCRT.dll
 0001:0004adf6       _fclose                    1004bdf6 f   MSVCRT:MSVCRT.dll
 0001:0004adfc       _fflush                    1004bdfc f   MSVCRT:MSVCRT.dll
 0001:0004ae02       _fwrite                    1004be02 f   MSVCRT:MSVCRT.dll
 0001:0004ae08       _strlen                    1004be08 f   MSVCRT:MSVCRT.dll
 0001:0004ae0e       _strcat                    1004be0e f   MSVCRT:MSVCRT.dll
 0001:0004ae14       __onexit                   1004be14 f   MSVCRT:atonexit.obj
 0001:0004ae40       _atexit                    1004be40 f   MSVCRT:atonexit.obj
 0001:0004ae52       _strcpy                    1004be52 f   MSVCRT:MSVCRT.dll
 0001:0004ae58       _fread                     1004be58 f   MSVCRT:MSVCRT.dll
 0001:0004ae5e       _ftell                     1004be5e f   MSVCRT:MSVCRT.dll
 0001:0004ae64       _fseek                     1004be64 f   MSVCRT:MSVCRT.dll
 0001:0004ae6a       _memmove                   1004be6a f   MSVCRT:MSVCRT.dll
 0001:0004ae70       _strstr                    1004be70 f   MSVCRT:MSVCRT.dll
 0001:0004ae76       _free                      1004be76 f   MSVCRT:MSVCRT.dll
 0001:0004ae7c       _malloc                    1004be7c f   MSVCRT:MSVCRT.dll
 0001:0004ae82       ??_L@YGXPAXIHP6EX0@Z1@Z    1004be82 f   MSVCRT:ehvecctr.obj
 0001:0004af04       _atoi                      1004bf04 f   MSVCRT:MSVCRT.dll
 0001:0004af0a       _atof                      1004bf0a f   MSVCRT:MSVCRT.dll
 0001:0004af10       _sscanf                    1004bf10 f   MSVCRT:MSVCRT.dll
 0001:0004af16       _printf                    1004bf16 f   MSVCRT:MSVCRT.dll
 0001:0004af1c       __ftol                     1004bf1c f   MSVCRT:MSVCRT.dll
 0001:0004af22       _fprintf                   1004bf22 f   MSVCRT:MSVCRT.dll
 0001:0004af28       _strcmp                    1004bf28 f   MSVCRT:MSVCRT.dll
 0001:0004af2e       _isdigit                   1004bf2e f   MSVCRT:MSVCRT.dll
 0001:0004af34       _isspace                   1004bf34 f   MSVCRT:MSVCRT.dll
 0001:0004af3a       _time                      1004bf3a f   MSVCRT:MSVCRT.dll
 0001:0004af40       _pow                       1004bf40 f   MSVCRT:MSVCRT.dll
 0001:0004af46       __purecall                 1004bf46 f   MSVCRT:MSVCRT.dll
 0001:0004af50       __alloca_probe             1004bf50 f   MSVCRT:chkstk.obj
 0001:0004af50       __chkstk                   1004bf50 f   MSVCRT:chkstk.obj
 0001:0004af80       __beginthreadex            1004bf80 f   MSVCRT:MSVCRT.dll
 0001:0004af90       __alldiv                   1004bf90 f   MSVCRT:lldiv.obj
 0001:0004b040       __allmul                   1004c040 f   MSVCRT:llmul.obj
 0001:0004b074       __CRT_INIT@12              1004c074 f   MSVCRT:crtdll.obj
 0001:0004b11f       __DllMainCRTStartup@12     1004c11f f   MSVCRT:crtdll.obj
 0001:0004b1bc       __CIpow                    1004c1bc f   MSVCRT:MSVCRT.dll
 0001:0004b1c2       __except_handler3          1004c1c2 f   MSVCRT:MSVCRT.dll
 0001:0004b1c8       ?terminate@@YAXXZ          1004c1c8 f   MSVCRT:MSVCRT.dll
 0001:0004b1ce       ___dllonexit               1004c1ce f   MSVCRT:MSVCRT.dll
 0001:0004b1d4       __initterm                 1004c1d4 f   MSVCRT:MSVCRT.dll
 0001:0004b1da       _DllMain@12                1004c1da f   MSVCRT:dllmain.obj
 0001:0004b200       _ImmReleaseContext@8       1004c200 f   imm32:IMM32.dll
 0001:0004b206       _ImmGetOpenStatus@4        1004c206 f   imm32:IMM32.dll
 0001:0004b20c       _ImmGetContext@4           1004c20c f   imm32:IMM32.dll
 0001:0004b212       _ImmSimulateHotKey@8       1004c212 f   imm32:IMM32.dll
 0001:0004b218       _ImmIsIME@4                1004c218 f   imm32:IMM32.dll
 0001:0004b21e       _ImmSetConversionStatus@12 1004c21e f   imm32:IMM32.dll
 0001:0004b224       _ImmGetDefaultIMEWnd@4     1004c224 f   imm32:IMM32.dll
 0001:0004b22a       _ImmSetOpenStatus@8        1004c22a f   imm32:IMM32.dll
 0001:0004b230       _ImmGetConversionStatus@12 1004c230 f   imm32:IMM32.dll
 0001:0004b236       _ImmSetCompositionWindow@8 1004c236 f   imm32:IMM32.dll
 0001:0004b23c       _DisableThreadLibraryCalls@4 1004c23c f   kernel32:KERNEL32.dll
 0001:0004b242       __getcwd                   1004c242 f   MSVCRT:MSVCRT.dll
 0001:0004b248       __itoa                     1004c248 f   MSVCRT:MSVCRT.dll
 0001:0004b24e       __stricmp                  1004c24e f   MSVCRT:MSVCRT.dll
 0002:00000000       __imp__DirectDrawCreate@12 1004e000     ddraw:DDRAW.dll
 0002:00000004       \177DDRAW_NULL_THUNK_DATA  1004e004     ddraw:DDRAW.dll
 0002:00000008       __imp__DirectInput8Create@20 1004e008     dinput8:DINPUT8.dll
 0002:0000000c       \177DINPUT8_NULL_THUNK_DATA 1004e00c     dinput8:DINPUT8.dll
 0002:00000010       __imp__DirectSoundCreate@12 1004e010     dsound:DSOUND.dll
 0002:00000014       \177DSOUND_NULL_THUNK_DATA 1004e014     dsound:DSOUND.dll
 0002:00000018       __imp__GetStockObject@4    1004e018     gdi32:GDI32.dll
 0002:0000001c       \177GDI32_NULL_THUNK_DATA  1004e01c     gdi32:GDI32.dll
 0002:00000020       __imp__ImmReleaseContext@8 1004e020     imm32:IMM32.dll
 0002:00000024       __imp__ImmGetOpenStatus@4  1004e024     imm32:IMM32.dll
 0002:00000028       __imp__ImmGetContext@4     1004e028     imm32:IMM32.dll
 0002:0000002c       __imp__ImmSimulateHotKey@8 1004e02c     imm32:IMM32.dll
 0002:00000030       __imp__ImmIsIME@4          1004e030     imm32:IMM32.dll
 0002:00000034       __imp__ImmSetConversionStatus@12 1004e034     imm32:IMM32.dll
 0002:00000038       __imp__ImmGetDefaultIMEWnd@4 1004e038     imm32:IMM32.dll
 0002:0000003c       __imp__ImmSetOpenStatus@8  1004e03c     imm32:IMM32.dll
 0002:00000040       __imp__ImmGetConversionStatus@12 1004e040     imm32:IMM32.dll
 0002:00000044       __imp__ImmSetCompositionWindow@8 1004e044     imm32:IMM32.dll
 0002:00000048       \177IMM32_NULL_THUNK_DATA  1004e048     imm32:IMM32.dll
 0002:0000004c       __imp__WaitForMultipleObjects@16 1004e04c     kernel32:KERNEL32.dll
 0002:00000050       __imp__InitializeCriticalSection@4 1004e050     kernel32:KERNEL32.dll
 0002:00000054       __imp__DeleteCriticalSection@4 1004e054     kernel32:KERNEL32.dll
 0002:00000058       __imp__EnterCriticalSection@4 1004e058     kernel32:KERNEL32.dll
 0002:0000005c       __imp__LeaveCriticalSection@4 1004e05c     kernel32:KERNEL32.dll
 0002:00000060       __imp__SetCurrentDirectoryA@4 1004e060     kernel32:KERNEL32.dll
 0002:00000064       __imp__GetCurrentDirectoryA@8 1004e064     kernel32:KERNEL32.dll
 0002:00000068       __imp__TerminateThread@8   1004e068     kernel32:KERNEL32.dll
 0002:0000006c       __imp__SuspendThread@4     1004e06c     kernel32:KERNEL32.dll
 0002:00000070       __imp__ResumeThread@4      1004e070     kernel32:KERNEL32.dll
 0002:00000074       __imp__GetThreadPriority@4 1004e074     kernel32:KERNEL32.dll
 0002:00000078       __imp__SetThreadPriority@8 1004e078     kernel32:KERNEL32.dll
 0002:0000007c       __imp__QueryPerformanceFrequency@4 1004e07c     kernel32:KERNEL32.dll
 0002:00000080       __imp__QueryPerformanceCounter@4 1004e080     kernel32:KERNEL32.dll
 0002:00000084       __imp__SetFilePointer@16   1004e084     kernel32:KERNEL32.dll
 0002:00000088       __imp__ReadFile@20         1004e088     kernel32:KERNEL32.dll
 0002:0000008c       __imp__GetFileSize@8       1004e08c     kernel32:KERNEL32.dll
 0002:00000090       __imp__CreateFileA@28      1004e090     kernel32:KERNEL32.dll
 0002:00000094       __imp__DisableThreadLibraryCalls@4 1004e094     kernel32:KERNEL32.dll
 0002:00000098       __imp__GetTickCount@0      1004e098     kernel32:KERNEL32.dll
 0002:0000009c       __imp__Sleep@4             1004e09c     kernel32:KERNEL32.dll
 0002:000000a0       __imp__GetFileAttributesA@4 1004e0a0     kernel32:KERNEL32.dll
 0002:000000a4       __imp__CreateDirectoryA@8  1004e0a4     kernel32:KERNEL32.dll
 0002:000000a8       __imp__CopyFileA@12        1004e0a8     kernel32:KERNEL32.dll
 0002:000000ac       __imp__CompareFileTime@8   1004e0ac     kernel32:KERNEL32.dll
 0002:000000b0       __imp__FindFirstFileA@8    1004e0b0     kernel32:KERNEL32.dll
 0002:000000b4       __imp__FindNextFileA@8     1004e0b4     kernel32:KERNEL32.dll
 0002:000000b8       __imp__SetFileAttributesA@8 1004e0b8     kernel32:KERNEL32.dll
 0002:000000bc       __imp__DeleteFileA@4       1004e0bc     kernel32:KERNEL32.dll
 0002:000000c0       __imp__FindClose@4         1004e0c0     kernel32:KERNEL32.dll
 0002:000000c4       __imp__GetProcAddress@8    1004e0c4     kernel32:KERNEL32.dll
 0002:000000c8       __imp__GetModuleHandleA@4  1004e0c8     kernel32:KERNEL32.dll
 0002:000000cc       __imp__LoadLibraryA@4      1004e0cc     kernel32:KERNEL32.dll
 0002:000000d0       __imp__FreeLibrary@4       1004e0d0     kernel32:KERNEL32.dll
 0002:000000d4       __imp__CreateEventA@16     1004e0d4     kernel32:KERNEL32.dll
 0002:000000d8       __imp__CloseHandle@4       1004e0d8     kernel32:KERNEL32.dll
 0002:000000dc       __imp__SetEvent@4          1004e0dc     kernel32:KERNEL32.dll
 0002:000000e0       __imp__WaitForSingleObject@8 1004e0e0     kernel32:KERNEL32.dll
 0002:000000e4       \177KERNEL32_NULL_THUNK_DATA 1004e0e4     kernel32:KERNEL32.dll
 0002:000000e8       __imp__lua_close           1004e0e8     LuaLibDll:LuaLibDll.dll
 0002:000000ec       __imp__lua_baselibopen     1004e0ec     LuaLibDll:LuaLibDll.dll
 0002:000000f0       __imp__lua_iolibopen       1004e0f0     LuaLibDll:LuaLibDll.dll
 0002:000000f4       __imp__lua_strlibopen      1004e0f4     LuaLibDll:LuaLibDll.dll
 0002:000000f8       __imp__lua_mathlibopen     1004e0f8     LuaLibDll:LuaLibDll.dll
 0002:000000fc       __imp__lua_setglobal       1004e0fc     LuaLibDll:LuaLibDll.dll
 0002:00000100       __imp__lua_newtag          1004e100     LuaLibDll:LuaLibDll.dll
 0002:00000104       __imp__lua_gettop          1004e104     LuaLibDll:LuaLibDll.dll
 0002:00000108       __imp__lua_isnumber        1004e108     LuaLibDll:LuaLibDll.dll
 0002:0000010c       __imp__lua_tonumber        1004e10c     LuaLibDll:LuaLibDll.dll
 0002:00000110       __imp__lua_isstring        1004e110     LuaLibDll:LuaLibDll.dll
 0002:00000114       __imp__lua_outerrmsg       1004e114     LuaLibDll:LuaLibDll.dll
 0002:00000118       __imp__lua_gettopindex     1004e118     LuaLibDll:LuaLibDll.dll
 0002:0000011c       __imp__lua_tostring        1004e11c     LuaLibDll:LuaLibDll.dll
 0002:00000120       __imp__lua_getglobal       1004e120     LuaLibDll:LuaLibDll.dll
 0002:00000124       __imp__lua_pushnumber      1004e124     LuaLibDll:LuaLibDll.dll
 0002:00000128       __imp__lua_settop          1004e128     LuaLibDll:LuaLibDll.dll
 0002:0000012c       __imp__lua_newtable        1004e12c     LuaLibDll:LuaLibDll.dll
 0002:00000130       __imp__lua_setgcthreshold  1004e130     LuaLibDll:LuaLibDll.dll
 0002:00000134       __imp__lua_getgccount      1004e134     LuaLibDll:LuaLibDll.dll
 0002:00000138       __imp__lua_pushstring      1004e138     LuaLibDll:LuaLibDll.dll
 0002:0000013c       __imp__lua_pushnil         1004e13c     LuaLibDll:LuaLibDll.dll
 0002:00000140       __imp__lua_pushcclosure    1004e140     LuaLibDll:LuaLibDll.dll
 0002:00000144       __imp__lua_pushvalue       1004e144     LuaLibDll:LuaLibDll.dll
 0002:00000148       __imp__lua_dostring        1004e148     LuaLibDll:LuaLibDll.dll
 0002:0000014c       __imp__Lua_SetTable_StringFromId 1004e14c     LuaLibDll:LuaLibDll.dll
 0002:00000150       __imp__Lua_SetTable_DoubleFromId 1004e150     LuaLibDll:LuaLibDll.dll
 0002:00000154       __imp__Lua_SetTable_IntFromId 1004e154     LuaLibDll:LuaLibDll.dll
 0002:00000158       __imp__Lua_SetTable_CFunFromName 1004e158     LuaLibDll:LuaLibDll.dll
 0002:0000015c       __imp__Lua_SetTable_CFunFromId 1004e15c     LuaLibDll:LuaLibDll.dll
 0002:00000160       __imp__Lua_SetTable_StringFromName 1004e160     LuaLibDll:LuaLibDll.dll
 0002:00000164       __imp__Lua_SetTable_IntFromName 1004e164     LuaLibDll:LuaLibDll.dll
 0002:00000168       __imp__Lua_SetTable_DoubleFromName 1004e168     LuaLibDll:LuaLibDll.dll
 0002:0000016c       __imp__lua_open            1004e16c     LuaLibDll:LuaLibDll.dll
 0002:00000170       __imp__lua_compilebuffer   1004e170     LuaLibDll:LuaLibDll.dll
 0002:00000174       __imp__lua_execute         1004e174     LuaLibDll:LuaLibDll.dll
 0002:00000178       __imp__lua_call            1004e178     LuaLibDll:LuaLibDll.dll
 0002:0000017c       __imp__lua_pushusertag     1004e17c     LuaLibDll:LuaLibDll.dll
 0002:00000180       \177LuaLibDll_NULL_THUNK_DATA 1004e180     LuaLibDll:LuaLibDll.dll
 0002:00000184       __imp__fread               1004e184     MSVCRT:MSVCRT.dll
 0002:00000188       __imp___itoa               1004e188     MSVCRT:MSVCRT.dll
 0002:00000188       __imp__itoa                1004e188     MSVCRT:MSVCRT.dll
 0002:0000018c       __imp___getcwd             1004e18c     MSVCRT:MSVCRT.dll
 0002:0000018c       __imp__getcwd              1004e18c     MSVCRT:MSVCRT.dll
 0002:00000190       __imp___adjust_fdiv        1004e190     MSVCRT:MSVCRT.dll
 0002:00000194       __imp___initterm           1004e194     MSVCRT:MSVCRT.dll
 0002:00000198       __imp___onexit             1004e198     MSVCRT:MSVCRT.dll
 0002:0000019c       __imp____dllonexit         1004e19c     MSVCRT:MSVCRT.dll
 0002:000001a0       __imp_?terminate@@YAXXZ    1004e1a0     MSVCRT:MSVCRT.dll
 0002:000001a4       __imp___except_handler3    1004e1a4     MSVCRT:MSVCRT.dll
 0002:000001a8       __imp___CIpow              1004e1a8     MSVCRT:MSVCRT.dll
 0002:000001ac       __imp___beginthreadex      1004e1ac     MSVCRT:MSVCRT.dll
 0002:000001b0       __imp___purecall           1004e1b0     MSVCRT:MSVCRT.dll
 0002:000001b4       __imp__pow                 1004e1b4     MSVCRT:MSVCRT.dll
 0002:000001b8       __imp__time                1004e1b8     MSVCRT:MSVCRT.dll
 0002:000001bc       __imp__isspace             1004e1bc     MSVCRT:MSVCRT.dll
 0002:000001c0       __imp__isdigit             1004e1c0     MSVCRT:MSVCRT.dll
 0002:000001c4       __imp__strcmp              1004e1c4     MSVCRT:MSVCRT.dll
 0002:000001c8       __imp__fprintf             1004e1c8     MSVCRT:MSVCRT.dll
 0002:000001cc       __imp___ftol               1004e1cc     MSVCRT:MSVCRT.dll
 0002:000001d0       __imp__printf              1004e1d0     MSVCRT:MSVCRT.dll
 0002:000001d4       __imp__sscanf              1004e1d4     MSVCRT:MSVCRT.dll
 0002:000001d8       __imp__atof                1004e1d8     MSVCRT:MSVCRT.dll
 0002:000001dc       __imp__atoi                1004e1dc     MSVCRT:MSVCRT.dll
 0002:000001e0       __imp__malloc              1004e1e0     MSVCRT:MSVCRT.dll
 0002:000001e4       __imp__free                1004e1e4     MSVCRT:MSVCRT.dll
 0002:000001e8       __imp_??3@YAXPAX@Z         1004e1e8     MSVCRT:MSVCRT.dll
 0002:000001ec       __imp____CxxFrameHandler   1004e1ec     MSVCRT:MSVCRT.dll
 0002:000001f0       __imp__memcmp              1004e1f0     MSVCRT:MSVCRT.dll
 0002:000001f4       __imp__memcpy              1004e1f4     MSVCRT:MSVCRT.dll
 0002:000001f8       __imp_??2@YAPAXI@Z         1004e1f8     MSVCRT:MSVCRT.dll
 0002:000001fc       __imp__abs                 1004e1fc     MSVCRT:MSVCRT.dll
 0002:00000200       __imp__memset              1004e200     MSVCRT:MSVCRT.dll
 0002:00000204       __imp__vsprintf            1004e204     MSVCRT:MSVCRT.dll
 0002:00000208       __imp__exit                1004e208     MSVCRT:MSVCRT.dll
 0002:0000020c       __imp__sprintf             1004e20c     MSVCRT:MSVCRT.dll
 0002:00000210       __imp__fopen               1004e210     MSVCRT:MSVCRT.dll
 0002:00000214       __imp__fclose              1004e214     MSVCRT:MSVCRT.dll
 0002:00000218       __imp__fflush              1004e218     MSVCRT:MSVCRT.dll
 0002:0000021c       __imp__fwrite              1004e21c     MSVCRT:MSVCRT.dll
 0002:00000220       __imp__strlen              1004e220     MSVCRT:MSVCRT.dll
 0002:00000224       __imp__strcat              1004e224     MSVCRT:MSVCRT.dll
 0002:00000228       __imp__strcpy              1004e228     MSVCRT:MSVCRT.dll
 0002:0000022c       __imp___stricmp            1004e22c     MSVCRT:MSVCRT.dll
 0002:0000022c       __imp__stricmp             1004e22c     MSVCRT:MSVCRT.dll
 0002:00000230       __imp__ftell               1004e230     MSVCRT:MSVCRT.dll
 0002:00000234       __imp__fseek               1004e234     MSVCRT:MSVCRT.dll
 0002:00000238       __imp__memmove             1004e238     MSVCRT:MSVCRT.dll
 0002:0000023c       __imp__strstr              1004e23c     MSVCRT:MSVCRT.dll
 0002:00000240       \177MSVCRT_NULL_THUNK_DATA 1004e240     MSVCRT:MSVCRT.dll
 0002:00000244       __imp__DispatchMessageA@4  1004e244     user32:USER32.dll
 0002:00000248       __imp__PostQuitMessage@4   1004e248     user32:USER32.dll
 0002:0000024c       __imp__GetMessageA@16      1004e24c     user32:USER32.dll
 0002:00000250       __imp__WaitMessage@0       1004e250     user32:USER32.dll
 0002:00000254       __imp__PostMessageA@16     1004e254     user32:USER32.dll
 0002:00000258       __imp__RegisterClassA@4    1004e258     user32:USER32.dll
 0002:0000025c       __imp__LoadCursorA@8       1004e25c     user32:USER32.dll
 0002:00000260       __imp__LoadIconA@8         1004e260     user32:USER32.dll
 0002:00000264       __imp__SetFocus@4          1004e264     user32:USER32.dll
 0002:00000268       __imp__UpdateWindow@4      1004e268     user32:USER32.dll
 0002:0000026c       __imp__CreateWindowExA@48  1004e26c     user32:USER32.dll
 0002:00000270       __imp__TranslateMessage@4  1004e270     user32:USER32.dll
 0002:00000274       __imp__PeekMessageA@20     1004e274     user32:USER32.dll
 0002:00000278       __imp__SetCursor@4         1004e278     user32:USER32.dll
 0002:0000027c       __imp__DestroyWindow@4     1004e27c     user32:USER32.dll
 0002:00000280       __imp__GetClientRect@8     1004e280     user32:USER32.dll
 0002:00000284       __imp__ClientToScreen@8    1004e284     user32:USER32.dll
 0002:00000288       __imp__ScreenToClient@8    1004e288     user32:USER32.dll
 0002:0000028c       __imp__AdjustWindowRectEx@16 1004e28c     user32:USER32.dll
 0002:00000290       __imp__GetMenu@4           1004e290     user32:USER32.dll
 0002:00000294       __imp__GetWindowLongA@8    1004e294     user32:USER32.dll
 0002:00000298       __imp__SetWindowLongA@12   1004e298     user32:USER32.dll
 0002:0000029c       __imp__GetCursorPos@4      1004e29c     user32:USER32.dll
 0002:000002a0       __imp__DefWindowProcA@16   1004e2a0     user32:USER32.dll
 0002:000002a4       __imp__GetSystemMetrics@4  1004e2a4     user32:USER32.dll
 0002:000002a8       __imp__GetKeyboardLayout@4 1004e2a8     user32:USER32.dll
 0002:000002ac       __imp__MessageBoxA@16      1004e2ac     user32:USER32.dll
 0002:000002b0       __imp__SendMessageA@16     1004e2b0     user32:USER32.dll
 0002:000002b4       __imp__FindWindowA@8       1004e2b4     user32:USER32.dll
 0002:000002b8       __imp__SetWindowPos@28     1004e2b8     user32:USER32.dll
 0002:000002bc       \177USER32_NULL_THUNK_DATA 1004e2bc     user32:USER32.dll
 0002:000002c0       __imp__timeGetTime@0       1004e2c0     winmm:WINMM.dll
 0002:000002c4       __imp__timeKillEvent@4     1004e2c4     winmm:WINMM.dll
 0002:000002c8       __imp__timeSetEvent@20     1004e2c8     winmm:WINMM.dll
 0002:000002cc       \177WINMM_NULL_THUNK_DATA  1004e2cc     winmm:WINMM.dll
 0002:000002d0       __imp__GetSaveFileNameA@4  1004e2d0     comdlg32:comdlg32.dll
 0002:000002d4       __imp__GetOpenFileNameA@4  1004e2d4     comdlg32:comdlg32.dll
 0002:000002d8       \177comdlg32_NULL_THUNK_DATA 1004e2d8     comdlg32:comdlg32.dll
 0002:000002fc       ??_7KSG_LogFile@@6B@       1004e2fc     KAutoMutex.obj
 0002:00000300       ??_7KWin32App@@6B@         1004e300     KAutoMutex.obj
 0002:0000032c       ??_7KNode@@6B@             1004e32c     KCache.obj
 0002:00000330       ??_7KStrNode@@6B@          1004e330     KCache.obj
 0002:0000033c       ??_7KCache@@6B@            1004e33c     KCache.obj
 0002:00000354       ??_7KCacheNode@@6B@        1004e354     KCache.obj
 0002:00000360       ??_7KDrawNode@@6B@         1004e360     KCanvas.obj
 0002:00000364       ??_7KCodec@@6B@            1004e364     KCodec.obj
 0002:00000370       ??_7KCodecLzo@@6B@         1004e370     KCodec.obj
 0002:0000037c       ??_7KScript@@6B@           1004e37c     KEicScript.obj
 0002:0000039c       ??_7KEicScript@@6B@        1004e39c     KEicScript.obj
 0002:000003c0       ??_7KLuaScript@@6B@        1004e3c0     KEicScriptSet.obj
 0002:000003e4       ??_7KScriptSet@@6B@        1004e3e4     KEicScriptSet.obj
 0002:0000040c       ??_7KEicScriptSet@@6B@     1004e40c     KEicScriptSet.obj
 0002:00000434       ??_7KHashNode@@6B@         1004e434     KHashNode.obj
 0002:00000440       ??_7KStackNode@@6B@        1004e440     KLubCmpl_Blocker.obj
 0002:00000444       ??_7KLineNode@@6B@         1004e444     KLubCmpl_Blocker.obj
 0002:00000448       ??_7KMusic@@6B@            1004e448     KMp3Music.obj
 0002:00000498       ??_7KMp3Music@@6B@         1004e498     KMp3Music.obj
 0002:00000504       ??_7KMp4Audio@@6B@         1004e504     KMp4Audio.obj
 0002:00000570       ??_7KVideo@@6B@            1004e570     KMp4Movie.obj
 0002:000005a0       ??_7KMp4Video@@6B@         1004e5a0     KMp4Movie.obj
 0002:000005d0       ??_7KMpgMusic@@6B@         1004e5d0     KMpgMusic.obj
 0002:00000630       ??_7KMsgNode@@6B@          1004e630     KMsgNode.obj
 0002:00000634       ??_7KOctreeNode@@6B@       1004e634     KOctree.obj
 0002:00000638       ??_7KOctree@@6B@           1004e638     KOctree.obj
 0002:0000063c       ??_7KScriptCache@@6B@      1004e63c     KScriptCache.obj
 0002:00000654       ??_7KStepLuaScript@@6B@    1004e654     KScriptList.obj
 0002:00000678       ??_7KScriptNode@@6B@       1004e678     KScriptList.obj
 0002:0000067c       ??_7TBinTreeNode@@6B@      1004e67c     KSortBinTree.obj
 0002:00000688       ??_7KSoundCache@@6B@       1004e688     KSoundCache.obj
 0002:000006a0       ??_7KSpriteCache@@6B@      1004e6a0     KSpriteCache.obj
 0002:000006b8       ??_7KITabFile@@6B@         1004e6b8     KTabFile.obj
 0002:000006fc       ??_7KTabFile@@6B@          1004e6fc     KTabFile.obj
 0002:00000740       ??_7KTabFileCtrl@@6B@      1004e740     KTabFileCtrl.obj
 0002:00000784       ??_7TTabLineNode@@6B@      1004e784     KTabFileCtrl.obj
 0002:00000788       ??_7TTabColNode@@6B@       1004e788     KTabFileCtrl.obj
 0002:000008f0       ??_7KWavMusic@@6B@         1004e8f0     KWavMusic.obj
 0002:00000a84       __real@4@3ffefff9720000000000 1004ea84     Text.obj
 0002:00000a88       __real@4@4000c000000000000000 1004ea88     Text.obj
 0002:00000a8c       __real@4@00000000000000000000 1004ea8c     Text.obj
 0002:00000a90       __real@4@3fff8000000000000000 1004ea90     Text.obj
 0002:00000de0       __ucl_crc32_table          1004ede0     ucl_crc.obj
 0002:000011e0       ___ucl_copyright           1004f1e0     ucl_util.obj
 0002:00001388       _KSDATAFORMAT_SUBTYPE_DIRECTMUSIC 1004f388     dxguid:dxguid.obj
 0002:00001398       _KSDATAFORMAT_SUBTYPE_MIDI 1004f398     dxguid:dxguid.obj
 0002:000013a8       _IID_IKsControl            1004f3a8     dxguid:dxguid.obj
 0002:000013b8       _IID_IDirectMusicAudioPath 1004f3b8     dxguid:dxguid.obj
 0002:000013c8       _IID_IDirectMusicContainer 1004f3c8     dxguid:dxguid.obj
 0002:000013d8       _IID_IDirectMusicScript    1004f3d8     dxguid:dxguid.obj
 0002:000013e8       _IID_IDirectMusicPatternTrack 1004f3e8     dxguid:dxguid.obj
 0002:000013f8       _IID_IDirectMusicStyle8    1004f3f8     dxguid:dxguid.obj
 0002:00001408       _IID_IDirectMusicSegmentState8 1004f408     dxguid:dxguid.obj
 0002:00001418       _IID_IDirectMusicSegment8  1004f418     dxguid:dxguid.obj
 0002:00001428       _IID_IDirectMusicPerformance8 1004f428     dxguid:dxguid.obj
 0002:00001438       _IID_IDirectMusicLoader8   1004f438     dxguid:dxguid.obj
 0002:00001448       _IID_IDirectMusicSegment2  1004f448     dxguid:dxguid.obj
 0002:00001458       _IID_IDirectMusicPerformance2 1004f458     dxguid:dxguid.obj
 0002:00001468       _IID_IDirectMusicBand      1004f468     dxguid:dxguid.obj
 0002:00001478       _IID_IDirectMusicComposer  1004f478     dxguid:dxguid.obj
 0002:00001488       _IID_IDirectMusicChordMap  1004f488     dxguid:dxguid.obj
 0002:00001498       _IID_IDirectMusicStyle     1004f498     dxguid:dxguid.obj
 0002:000014a8       _IID_IDirectMusicGraph     1004f4a8     dxguid:dxguid.obj
 0002:000014b8       _IID_IDirectMusicPerformance 1004f4b8     dxguid:dxguid.obj
 0002:000014c8       _IID_IDirectMusicSegmentState 1004f4c8     dxguid:dxguid.obj
 0002:000014d8       _IID_IDirectMusicSegment   1004f4d8     dxguid:dxguid.obj
 0002:000014e8       _IID_IDirectMusicObject    1004f4e8     dxguid:dxguid.obj
 0002:000014f8       _IID_IDirectMusicGetLoader 1004f4f8     dxguid:dxguid.obj
 0002:00001508       _IID_IDirectMusicLoader    1004f508     dxguid:dxguid.obj
 0002:00001518       _GUID_Buffer_Mono          1004f518     dxguid:dxguid.obj
 0002:00001528       _GUID_Buffer_3D_Dry        1004f528     dxguid:dxguid.obj
 0002:00001538       _GUID_Buffer_Stereo        1004f538     dxguid:dxguid.obj
 0002:00001548       _GUID_Buffer_EnvReverb     1004f548     dxguid:dxguid.obj
 0002:00001558       _GUID_Buffer_Reverb        1004f558     dxguid:dxguid.obj
 0002:00001568       _GUID_Synth_Default        1004f568     dxguid:dxguid.obj
 0002:00001578       _GUID_DefaultGMCollection  1004f578     dxguid:dxguid.obj
 0002:00001588       _GUID_PerfAutoDownload     1004f588     dxguid:dxguid.obj
 0002:00001598       _GUID_PerfMasterGrooveLevel 1004f598     dxguid:dxguid.obj
 0002:000015a8       _GUID_PerfMasterVolume     1004f5a8     dxguid:dxguid.obj
 0002:000015b8       _GUID_PerfMasterTempo      1004f5b8     dxguid:dxguid.obj
 0002:000015c8       _GUID_UnloadFromAudioPath  1004f5c8     dxguid:dxguid.obj
 0002:000015d8       _GUID_DownloadToAudioPath  1004f5d8     dxguid:dxguid.obj
 0002:000015e8       _GUID_Variations           1004f5e8     dxguid:dxguid.obj
 0002:000015f8       _GUID_SeedVariations       1004f5f8     dxguid:dxguid.obj
 0002:00001608       _GUID_EnableTempo          1004f608     dxguid:dxguid.obj
 0002:00001618       _GUID_DisableTempo         1004f618     dxguid:dxguid.obj
 0002:00001628       _GUID_EnableTimeSig        1004f628     dxguid:dxguid.obj
 0002:00001638       _GUID_DisableTimeSig       1004f638     dxguid:dxguid.obj
 0002:00001648       _GUID_StandardMIDIFile     1004f648     dxguid:dxguid.obj
 0002:00001658       _GUID_Clear_All_Bands      1004f658     dxguid:dxguid.obj
 0002:00001668       _GUID_Disable_Auto_Download 1004f668     dxguid:dxguid.obj
 0002:00001678       _GUID_Enable_Auto_Download 1004f678     dxguid:dxguid.obj
 0002:00001688       _GUID_ConnectToDLSCollection 1004f688     dxguid:dxguid.obj
 0002:00001698       _GUID_Unload               1004f698     dxguid:dxguid.obj
 0002:000016a8       _GUID_Download             1004f6a8     dxguid:dxguid.obj
 0002:000016b8       _GUID_MuteParam            1004f6b8     dxguid:dxguid.obj
 0002:000016c8       _GUID_IDirectMusicChordMap 1004f6c8     dxguid:dxguid.obj
 0002:000016d8       _GUID_IDirectMusicBand     1004f6d8     dxguid:dxguid.obj
 0002:000016e8       _GUID_BandParam            1004f6e8     dxguid:dxguid.obj
 0002:000016f8       _GUID_Play_Marker          1004f6f8     dxguid:dxguid.obj
 0002:00001708       _GUID_Valid_Start_Time     1004f708     dxguid:dxguid.obj
 0002:00001718       _GUID_TempoParam           1004f718     dxguid:dxguid.obj
 0002:00001728       _GUID_TimeSignature        1004f728     dxguid:dxguid.obj
 0002:00001738       _GUID_IDirectMusicStyle    1004f738     dxguid:dxguid.obj
 0002:00001748       _GUID_RhythmParam          1004f748     dxguid:dxguid.obj
 0002:00001758       _GUID_ChordParam           1004f758     dxguid:dxguid.obj
 0002:00001768       _GUID_CommandParamNext     1004f768     dxguid:dxguid.obj
 0002:00001778       _GUID_CommandParam2        1004f778     dxguid:dxguid.obj
 0002:00001788       _GUID_CommandParam         1004f788     dxguid:dxguid.obj
 0002:00001798       _GUID_NOTIFICATION_RECOMPOSE 1004f798     dxguid:dxguid.obj
 0002:000017a8       _GUID_NOTIFICATION_COMMAND 1004f7a8     dxguid:dxguid.obj
 0002:000017b8       _GUID_NOTIFICATION_CHORD   1004f7b8     dxguid:dxguid.obj
 0002:000017c8       _GUID_NOTIFICATION_MEASUREANDBEAT 1004f7c8     dxguid:dxguid.obj
 0002:000017d8       _GUID_NOTIFICATION_PERFORMANCE 1004f7d8     dxguid:dxguid.obj
 0002:000017e8       _GUID_NOTIFICATION_SEGMENT 1004f7e8     dxguid:dxguid.obj
 0002:000017f8       _GUID_DirectMusicAllTypes  1004f7f8     dxguid:dxguid.obj
 0002:00001808       _CLSID_DirectMusicAudioPathConfig 1004f808     dxguid:dxguid.obj
 0002:00001818       _CLSID_DirectSoundWave     1004f818     dxguid:dxguid.obj
 0002:00001828       _CLSID_DirectMusicContainer 1004f828     dxguid:dxguid.obj
 0002:00001838       _CLSID_DirectMusicScript   1004f838     dxguid:dxguid.obj
 0002:00001848       _CLSID_DirectMusicPatternTrack 1004f848     dxguid:dxguid.obj
 0002:00001858       _CLSID_DirectMusicBand     1004f858     dxguid:dxguid.obj
 0002:00001868       _CLSID_DirectMusicLoader   1004f868     dxguid:dxguid.obj
 0002:00001878       _CLSID_DirectMusicComposer 1004f878     dxguid:dxguid.obj
 0002:00001888       _CLSID_DirectMusicChordMap 1004f888     dxguid:dxguid.obj
 0002:00001898       _CLSID_DirectMusicStyle    1004f898     dxguid:dxguid.obj
 0002:000018a8       _CLSID_DirectMusicGraph    1004f8a8     dxguid:dxguid.obj
 0002:000018b8       _CLSID_DirectMusicSegmentState 1004f8b8     dxguid:dxguid.obj
 0002:000018c8       _CLSID_DirectMusicSegment  1004f8c8     dxguid:dxguid.obj
 0002:000018d8       _CLSID_DirectMusicPerformance 1004f8d8     dxguid:dxguid.obj
 0002:000018e8       _IID_IDirectMusicTrack8    1004f8e8     dxguid:dxguid.obj
 0002:000018f8       _IID_IDirectMusicTool8     1004f8f8     dxguid:dxguid.obj
 0002:00001908       _IID_IDirectMusicTool      1004f908     dxguid:dxguid.obj
 0002:00001918       _IID_IDirectMusicTrack     1004f918     dxguid:dxguid.obj
 0002:00001928       _CLSID_DirectMusicWaveTrack 1004f928     dxguid:dxguid.obj
 0002:00001938       _CLSID_DirectMusicParamControlTrack 1004f938     dxguid:dxguid.obj
 0002:00001948       _CLSID_DirectMusicLyricsTrack 1004f948     dxguid:dxguid.obj
 0002:00001958       _CLSID_DirectMusicSegmentTriggerTrack 1004f958     dxguid:dxguid.obj
 0002:00001968       _CLSID_DirectMusicMarkerTrack 1004f968     dxguid:dxguid.obj
 0002:00001978       _CLSID_DirectMusicScriptTrack 1004f978     dxguid:dxguid.obj
 0002:00001988       _CLSID_DirectMusicMuteTrack 1004f988     dxguid:dxguid.obj
 0002:00001998       _CLSID_DirectMusicChordMapTrack 1004f998     dxguid:dxguid.obj
 0002:000019a8       _CLSID_DirectMusicBandTrack 1004f9a8     dxguid:dxguid.obj
 0002:000019b8       _CLSID_DirectMusicSignPostTrack 1004f9b8     dxguid:dxguid.obj
 0002:000019c8       _CLSID_DirectMusicMotifTrack 1004f9c8     dxguid:dxguid.obj
 0002:000019d8       _CLSID_DirectMusicStyleTrack 1004f9d8     dxguid:dxguid.obj
 0002:000019e8       _CLSID_DirectMusicCommandTrack 1004f9e8     dxguid:dxguid.obj
 0002:000019f8       _CLSID_DirectMusicChordTrack 1004f9f8     dxguid:dxguid.obj
 0002:00001a08       _CLSID_DirectMusicTimeSigTrack 1004fa08     dxguid:dxguid.obj
 0002:00001a18       _CLSID_DirectMusicSysExTrack 1004fa18     dxguid:dxguid.obj
 0002:00001a28       _CLSID_DirectMusicSeqTrack 1004fa28     dxguid:dxguid.obj
 0002:00001a38       _CLSID_DirectMusicTempoTrack 1004fa38     dxguid:dxguid.obj
 0002:00001a48       _GUID_DMUS_PROP_Volume     1004fa48     dxguid:dxguid.obj
 0002:00001a58       _GUID_DMUS_PROP_LegacyCaps 1004fa58     dxguid:dxguid.obj
 0002:00001a68       _GUID_DMUS_PROP_Effects    1004fa68     dxguid:dxguid.obj
 0002:00001a78       _GUID_DMUS_PROP_WavesReverb 1004fa78     dxguid:dxguid.obj
 0002:00001a88       _GUID_DMUS_PROP_MemorySize 1004fa88     dxguid:dxguid.obj
 0002:00001a98       _GUID_DMUS_PROP_WritePeriod 1004fa98     dxguid:dxguid.obj
 0002:00001aa8       _GUID_DMUS_PROP_WriteLatency 1004faa8     dxguid:dxguid.obj
 0002:00001ab8       _GUID_DMUS_PROP_SamplePlaybackRate 1004fab8     dxguid:dxguid.obj
 0002:00001ac8       _GUID_DMUS_PROP_SampleMemorySize 1004fac8     dxguid:dxguid.obj
 0002:00001ad8       _GUID_DMUS_PROP_SynthSink_WAVE 1004fad8     dxguid:dxguid.obj
 0002:00001ae8       _GUID_DMUS_PROP_SynthSink_DSOUND 1004fae8     dxguid:dxguid.obj
 0002:00001af8       _GUID_DMUS_PROP_INSTRUMENT2 1004faf8     dxguid:dxguid.obj
 0002:00001b08       _GUID_DMUS_PROP_DLS2       1004fb08     dxguid:dxguid.obj
 0002:00001b18       _GUID_DMUS_PROP_DLS1       1004fb18     dxguid:dxguid.obj
 0002:00001b28       _GUID_DMUS_PROP_GS_Capable 1004fb28     dxguid:dxguid.obj
 0002:00001b38       _GUID_DMUS_PROP_XG_Capable 1004fb38     dxguid:dxguid.obj
 0002:00001b48       _GUID_DMUS_PROP_XG_Hardware 1004fb48     dxguid:dxguid.obj
 0002:00001b58       _GUID_DMUS_PROP_GS_Hardware 1004fb58     dxguid:dxguid.obj
 0002:00001b68       _GUID_DMUS_PROP_GM_Hardware 1004fb68     dxguid:dxguid.obj
 0002:00001b78       _IID_IDirectMusic8         1004fb78     dxguid:dxguid.obj
 0002:00001b88       _IID_IDirectMusic2         1004fb88     dxguid:dxguid.obj
 0002:00001b98       _IID_IDirectMusicDownloadedInstrument 1004fb98     dxguid:dxguid.obj
 0002:00001ba8       _IID_IDirectMusicInstrument 1004fba8     dxguid:dxguid.obj
 0002:00001bb8       _IID_IDirectMusicCollection 1004fbb8     dxguid:dxguid.obj
 0002:00001bc8       _IID_IDirectMusicDownload  1004fbc8     dxguid:dxguid.obj
 0002:00001bd8       _IID_IDirectMusicPortDownload 1004fbd8     dxguid:dxguid.obj
 0002:00001be8       _IID_IDirectMusicThru      1004fbe8     dxguid:dxguid.obj
 0002:00001bf8       _IID_IDirectMusicPort      1004fbf8     dxguid:dxguid.obj
 0002:00001c08       _IID_IDirectMusicBuffer    1004fc08     dxguid:dxguid.obj
 0002:00001c18       _IID_IDirectMusic          1004fc18     dxguid:dxguid.obj
 0002:00001c28       _CLSID_DirectMusicSynth    1004fc28     dxguid:dxguid.obj
 0002:00001c38       _CLSID_DirectMusicCollection 1004fc38     dxguid:dxguid.obj
 0002:00001c48       _CLSID_DirectMusic         1004fc48     dxguid:dxguid.obj
 0002:00001c58       _IID_IDirectPlay8LobbyClient 1004fc58     dxguid:dxguid.obj
 0002:00001c68       _IID_IDirectPlay8LobbiedApplication 1004fc68     dxguid:dxguid.obj
 0002:00001c78       _CLSID_DirectPlay8LobbyClient 1004fc78     dxguid:dxguid.obj
 0002:00001c88       _CLSID_DirectPlay8LobbiedApplication 1004fc88     dxguid:dxguid.obj
 0002:00001c98       _CLSID_DP8SP_BLUETOOTH     1004fc98     dxguid:dxguid.obj
 0002:00001ca8       _CLSID_DP8SP_TCPIP         1004fca8     dxguid:dxguid.obj
 0002:00001cb8       _CLSID_DP8SP_SERIAL        1004fcb8     dxguid:dxguid.obj
 0002:00001cc8       _CLSID_DP8SP_MODEM         1004fcc8     dxguid:dxguid.obj
 0002:00001cd8       _CLSID_DP8SP_IPX           1004fcd8     dxguid:dxguid.obj
 0002:00001ce8       _IID_IDirectPlay8NATResolver 1004fce8     dxguid:dxguid.obj
 0002:00001cf8       _IID_IDirectPlay8ThreadPool 1004fcf8     dxguid:dxguid.obj
 0002:00001d08       _IID_IDirectPlay8Peer      1004fd08     dxguid:dxguid.obj
 0002:00001d18       _IID_IDirectPlay8Server    1004fd18     dxguid:dxguid.obj
 0002:00001d28       _IID_IDirectPlay8Client    1004fd28     dxguid:dxguid.obj
 0002:00001d38       _CLSID_DirectPlay8NATResolver 1004fd38     dxguid:dxguid.obj
 0002:00001d48       _CLSID_DirectPlay8ThreadPool 1004fd48     dxguid:dxguid.obj
 0002:00001d58       _CLSID_DirectPlay8Peer     1004fd58     dxguid:dxguid.obj
 0002:00001d68       _CLSID_DirectPlay8Server   1004fd68     dxguid:dxguid.obj
 0002:00001d78       _CLSID_DirectPlay8Client   1004fd78     dxguid:dxguid.obj
 0002:00001d88       _IID_IDirectPlay8AddressIP 1004fd88     dxguid:dxguid.obj
 0002:00001d98       _IID_IDirectPlay8Address   1004fd98     dxguid:dxguid.obj
 0002:00001da8       _CLSID_DirectPlay8Address  1004fda8     dxguid:dxguid.obj
 0002:00001db8       _DPVCTGUID_VR12            1004fdb8     dxguid:dxguid.obj
 0002:00001dc8       _DPVCTGUID_TRUESPEECH      1004fdc8     dxguid:dxguid.obj
 0002:00001dd8       _DPVCTGUID_SC06            1004fdd8     dxguid:dxguid.obj
 0002:00001de8       _DPVCTGUID_SC03            1004fde8     dxguid:dxguid.obj
 0002:00001df8       _DPVCTGUID_NONE            1004fdf8     dxguid:dxguid.obj
 0002:00001e08       _DPVCTGUID_GSM             1004fe08     dxguid:dxguid.obj
 0002:00001e18       _DPVCTGUID_ADPCM           1004fe18     dxguid:dxguid.obj
 0002:00001e28       _IID_IDirectPlayVoiceTest  1004fe28     dxguid:dxguid.obj
 0002:00001e38       _IID_IDirectPlayVoiceServer 1004fe38     dxguid:dxguid.obj
 0002:00001e48       _IID_IDirectPlayVoiceClient 1004fe48     dxguid:dxguid.obj
 0002:00001e58       _CLSID_DirectPlayVoiceTest 1004fe58     dxguid:dxguid.obj
 0002:00001e68       _CLSID_DirectPlayVoiceServer 1004fe68     dxguid:dxguid.obj
 0002:00001e78       _CLSID_DirectPlayVoiceClient 1004fe78     dxguid:dxguid.obj
 0002:00001e88       _GUID_DSCFX_SYSTEM_NS      1004fe88     dxguid:dxguid.obj
 0002:00001e98       _GUID_DSCFX_MS_NS          1004fe98     dxguid:dxguid.obj
 0002:00001ea8       _GUID_DSCFX_CLASS_NS       1004fea8     dxguid:dxguid.obj
 0002:00001eb8       _GUID_DSCFX_SYSTEM_AEC     1004feb8     dxguid:dxguid.obj
 0002:00001ec8       _GUID_DSCFX_MS_AEC         1004fec8     dxguid:dxguid.obj
 0002:00001ed8       _GUID_DSCFX_CLASS_AEC      1004fed8     dxguid:dxguid.obj
 0002:00001ee8       _GUID_DSFX_WAVES_REVERB    1004fee8     dxguid:dxguid.obj
 0002:00001ef8       _GUID_DSFX_STANDARD_I3DL2REVERB 1004fef8     dxguid:dxguid.obj
 0002:00001f08       _GUID_DSFX_STANDARD_PARAMEQ 1004ff08     dxguid:dxguid.obj
 0002:00001f18       _GUID_DSFX_STANDARD_COMPRESSOR 1004ff18     dxguid:dxguid.obj
 0002:00001f28       _GUID_DSFX_STANDARD_DISTORTION 1004ff28     dxguid:dxguid.obj
 0002:00001f38       _GUID_DSFX_STANDARD_ECHO   1004ff38     dxguid:dxguid.obj
 0002:00001f48       _GUID_DSFX_STANDARD_FLANGER 1004ff48     dxguid:dxguid.obj
 0002:00001f58       _GUID_DSFX_STANDARD_CHORUS 1004ff58     dxguid:dxguid.obj
 0002:00001f68       _GUID_DSFX_STANDARD_GARGLE 1004ff68     dxguid:dxguid.obj
 0002:00001f78       _DS3DALG_HRTF_LIGHT        1004ff78     dxguid:dxguid.obj
 0002:00001f88       _DS3DALG_HRTF_FULL         1004ff88     dxguid:dxguid.obj
 0002:00001f98       _DS3DALG_NO_VIRTUALIZATION 1004ff98     dxguid:dxguid.obj
 0002:00001fa8       _IID_IDirectSoundFullDuplex 1004ffa8     dxguid:dxguid.obj
 0002:00001fb8       _IID_IDirectSoundCaptureFXNoiseSuppress 1004ffb8     dxguid:dxguid.obj
 0002:00001fc8       _IID_IDirectSoundCaptureFXAec 1004ffc8     dxguid:dxguid.obj
 0002:00001fd8       _IID_IDirectSoundFXWavesReverb 1004ffd8     dxguid:dxguid.obj
 0002:00001fe8       _IID_IDirectSoundFXI3DL2Reverb 1004ffe8     dxguid:dxguid.obj
 0002:00001ff8       _IID_IDirectSoundFXParamEq 1004fff8     dxguid:dxguid.obj
 0002:00002008       _IID_IDirectSoundFXCompressor 10050008     dxguid:dxguid.obj
 0002:00002018       _IID_IDirectSoundFXDistortion 10050018     dxguid:dxguid.obj
 0002:00002028       _IID_IDirectSoundFXEcho    10050028     dxguid:dxguid.obj
 0002:00002038       _IID_IDirectSoundFXFlanger 10050038     dxguid:dxguid.obj
 0002:00002048       _IID_IDirectSoundFXChorus  10050048     dxguid:dxguid.obj
 0002:00002058       _IID_IDirectSoundFXGargle  10050058     dxguid:dxguid.obj
 0002:00002068       _IID_IKsPropertySet        10050068     dxguid:dxguid.obj
 0002:00002078       _IID_IDirectSoundNotify    10050078     dxguid:dxguid.obj
 0002:00002088       _IID_IDirectSoundCaptureBuffer8 10050088     dxguid:dxguid.obj
 0002:00002098       _IID_IDirectSoundCaptureBuffer 10050098     dxguid:dxguid.obj
 0002:000020a8       _IID_IDirectSoundCapture   100500a8     dxguid:dxguid.obj
 0002:000020b8       _IID_IDirectSound3DBuffer  100500b8     dxguid:dxguid.obj
 0002:000020c8       _IID_IDirectSound3DListener 100500c8     dxguid:dxguid.obj
 0002:000020d8       _GUID_All_Objects          100500d8     dxguid:dxguid.obj
 0002:000020e8       _IID_IDirectSoundBuffer8   100500e8     dxguid:dxguid.obj
 0002:000020f8       _IID_IDirectSoundBuffer    100500f8     dxguid:dxguid.obj
 0002:00002108       _IID_IDirectSound8         10050108     dxguid:dxguid.obj
 0002:00002118       _IID_IDirectSound          10050118     dxguid:dxguid.obj
 0002:00002128       _IID_IReferenceClock       10050128     dxguid:dxguid.obj
 0002:00002138       _DSDEVID_DefaultVoiceCapture 10050138     dxguid:dxguid.obj
 0002:00002148       _DSDEVID_DefaultVoicePlayback 10050148     dxguid:dxguid.obj
 0002:00002158       _DSDEVID_DefaultCapture    10050158     dxguid:dxguid.obj
 0002:00002168       _DSDEVID_DefaultPlayback   10050168     dxguid:dxguid.obj
 0002:00002178       _CLSID_DirectSoundFullDuplex 10050178     dxguid:dxguid.obj
 0002:00002188       _CLSID_DirectSoundCapture8 10050188     dxguid:dxguid.obj
 0002:00002198       _CLSID_DirectSoundCapture  10050198     dxguid:dxguid.obj
 0002:000021a8       _CLSID_DirectSound8        100501a8     dxguid:dxguid.obj
 0002:000021b8       _CLSID_DirectSound         100501b8     dxguid:dxguid.obj
 0002:000021c8       _DPAID_ComPort             100501c8     dxguid:dxguid.obj
 0002:000021d8       _DPAID_INetPort            100501d8     dxguid:dxguid.obj
 0002:000021e8       _DPAID_INetW               100501e8     dxguid:dxguid.obj
 0002:000021f8       _DPAID_INet                100501f8     dxguid:dxguid.obj
 0002:00002208       _DPAID_ModemW              10050208     dxguid:dxguid.obj
 0002:00002218       _DPAID_Modem               10050218     dxguid:dxguid.obj
 0002:00002228       _DPAID_PhoneW              10050228     dxguid:dxguid.obj
 0002:00002238       _DPAID_Phone               10050238     dxguid:dxguid.obj
 0002:00002248       _DPAID_LobbyProvider       10050248     dxguid:dxguid.obj
 0002:00002258       _DPAID_ServiceProvider     10050258     dxguid:dxguid.obj
 0002:00002268       _DPAID_TotalSize           10050268     dxguid:dxguid.obj
 0002:00002278       _DPLPROPERTY_PlayerScore   10050278     dxguid:dxguid.obj
 0002:00002288       _DPLPROPERTY_PlayerGuid    10050288     dxguid:dxguid.obj
 0002:00002298       _DPLPROPERTY_LobbyGuid     10050298     dxguid:dxguid.obj
 0002:000022a8       _DPLPROPERTY_MessagesSupported 100502a8     dxguid:dxguid.obj
 0002:000022b8       _CLSID_DirectPlayLobby     100502b8     dxguid:dxguid.obj
 0002:000022c8       _IID_IDirectPlayLobby3A    100502c8     dxguid:dxguid.obj
 0002:000022d8       _IID_IDirectPlayLobby3     100502d8     dxguid:dxguid.obj
 0002:000022e8       _IID_IDirectPlayLobby2A    100502e8     dxguid:dxguid.obj
 0002:000022f8       _IID_IDirectPlayLobby2     100502f8     dxguid:dxguid.obj
 0002:00002308       _IID_IDirectPlayLobbyA     10050308     dxguid:dxguid.obj
 0002:00002318       _IID_IDirectPlayLobby      10050318     dxguid:dxguid.obj
 0002:00002328       _IID_IDirectPlay           10050328     dxguid:dxguid.obj
 0002:00002338       _DPSPGUID_MODEM            10050338     dxguid:dxguid.obj
 0002:00002348       _DPSPGUID_SERIAL           10050348     dxguid:dxguid.obj
 0002:00002358       _DPSPGUID_TCPIP            10050358     dxguid:dxguid.obj
 0002:00002368       _DPSPGUID_IPX              10050368     dxguid:dxguid.obj
 0002:00002378       _CLSID_DirectPlay          10050378     dxguid:dxguid.obj
 0002:00002388       _IID_IDirectPlay4A         10050388     dxguid:dxguid.obj
 0002:00002398       _IID_IDirectPlay4          10050398     dxguid:dxguid.obj
 0002:000023a8       _IID_IDirectPlay3A         100503a8     dxguid:dxguid.obj
 0002:000023b8       _IID_IDirectPlay3          100503b8     dxguid:dxguid.obj
 0002:000023c8       _IID_IDirectPlay2A         100503c8     dxguid:dxguid.obj
 0002:000023d8       _IID_IDirectPlay2          100503d8     dxguid:dxguid.obj
 0002:000023e8       _GUID_HIDClass             100503e8     dxguid:dxguid.obj
 0002:000023f8       _GUID_MouseClass           100503f8     dxguid:dxguid.obj
 0002:00002408       _GUID_MediaClass           10050408     dxguid:dxguid.obj
 0002:00002418       _GUID_KeyboardClass        10050418     dxguid:dxguid.obj
 0002:00002428       _IID_IDirectInputJoyConfig8 10050428     dxguid:dxguid.obj
 0002:00002438       _IID_IDirectInputPIDDriver 10050438     dxguid:dxguid.obj
 0002:00002448       _IID_IDirectInputJoyConfig 10050448     dxguid:dxguid.obj
 0002:00002458       _IID_IDirectInputEffectDriver 10050458     dxguid:dxguid.obj
 0002:00002468       _GUID_CustomForce          10050468     dxguid:dxguid.obj
 0002:00002478       _GUID_Friction             10050478     dxguid:dxguid.obj
 0002:00002488       _GUID_Inertia              10050488     dxguid:dxguid.obj
 0002:00002498       _GUID_Damper               10050498     dxguid:dxguid.obj
 0002:000024a8       _GUID_Spring               100504a8     dxguid:dxguid.obj
 0002:000024b8       _GUID_SawtoothDown         100504b8     dxguid:dxguid.obj
 0002:000024c8       _GUID_SawtoothUp           100504c8     dxguid:dxguid.obj
 0002:000024d8       _GUID_Triangle             100504d8     dxguid:dxguid.obj
 0002:000024e8       _GUID_Sine                 100504e8     dxguid:dxguid.obj
 0002:000024f8       _GUID_Square               100504f8     dxguid:dxguid.obj
 0002:00002508       _GUID_RampForce            10050508     dxguid:dxguid.obj
 0002:00002518       _GUID_ConstantForce        10050518     dxguid:dxguid.obj
 0002:00002528       _GUID_SysKeyboardEm2       10050528     dxguid:dxguid.obj
 0002:00002538       _GUID_SysKeyboardEm        10050538     dxguid:dxguid.obj
 0002:00002548       _GUID_SysMouseEm2          10050548     dxguid:dxguid.obj
 0002:00002558       _GUID_SysMouseEm           10050558     dxguid:dxguid.obj
 0002:00002568       _GUID_Joystick             10050568     dxguid:dxguid.obj
 0002:00002578       _GUID_SysKeyboard          10050578     dxguid:dxguid.obj
 0002:00002588       _GUID_SysMouse             10050588     dxguid:dxguid.obj
 0002:00002598       _GUID_Unknown              10050598     dxguid:dxguid.obj
 0002:000025a8       _GUID_POV                  100505a8     dxguid:dxguid.obj
 0002:000025b8       _GUID_Key                  100505b8     dxguid:dxguid.obj
 0002:000025c8       _GUID_Button               100505c8     dxguid:dxguid.obj
 0002:000025d8       _GUID_Slider               100505d8     dxguid:dxguid.obj
 0002:000025e8       _GUID_RzAxis               100505e8     dxguid:dxguid.obj
 0002:000025f8       _GUID_RyAxis               100505f8     dxguid:dxguid.obj
 0002:00002608       _GUID_RxAxis               10050608     dxguid:dxguid.obj
 0002:00002618       _GUID_ZAxis                10050618     dxguid:dxguid.obj
 0002:00002628       _GUID_YAxis                10050628     dxguid:dxguid.obj
 0002:00002638       _GUID_XAxis                10050638     dxguid:dxguid.obj
 0002:00002648       _IID_IDirectInputEffect    10050648     dxguid:dxguid.obj
 0002:00002658       _IID_IDirectInputDevice8W  10050658     dxguid:dxguid.obj
 0002:00002668       _IID_IDirectInputDevice8A  10050668     dxguid:dxguid.obj
 0002:00002678       _IID_IDirectInputDevice7W  10050678     dxguid:dxguid.obj
 0002:00002688       _IID_IDirectInputDevice7A  10050688     dxguid:dxguid.obj
 0002:00002698       _IID_IDirectInputDevice2W  10050698     dxguid:dxguid.obj
 0002:000026a8       _IID_IDirectInputDevice2A  100506a8     dxguid:dxguid.obj
 0002:000026b8       _IID_IDirectInputDeviceW   100506b8     dxguid:dxguid.obj
 0002:000026c8       _IID_IDirectInputDeviceA   100506c8     dxguid:dxguid.obj
 0002:000026d8       _IID_IDirectInput8W        100506d8     dxguid:dxguid.obj
 0002:000026e8       _IID_IDirectInput8A        100506e8     dxguid:dxguid.obj
 0002:000026f8       _IID_IDirectInput7W        100506f8     dxguid:dxguid.obj
 0002:00002708       _IID_IDirectInput7A        10050708     dxguid:dxguid.obj
 0002:00002718       _IID_IDirectInput2W        10050718     dxguid:dxguid.obj
 0002:00002728       _IID_IDirectInput2A        10050728     dxguid:dxguid.obj
 0002:00002738       _IID_IDirectInputW         10050738     dxguid:dxguid.obj
 0002:00002748       _IID_IDirectInputA         10050748     dxguid:dxguid.obj
 0002:00002758       _CLSID_DirectInputDevice8  10050758     dxguid:dxguid.obj
 0002:00002768       _CLSID_DirectInput8        10050768     dxguid:dxguid.obj
 0002:00002778       _CLSID_DirectInputDevice   10050778     dxguid:dxguid.obj
 0002:00002788       _CLSID_DirectInput         10050788     dxguid:dxguid.obj
 0002:00002798       _TID_DXFILEHeader          10050798     dxguid:dxguid.obj
 0002:000027a8       _IID_IDirectXFileBinary    100507a8     dxguid:dxguid.obj
 0002:000027b8       _IID_IDirectXFileDataReference 100507b8     dxguid:dxguid.obj
 0002:000027c8       _IID_IDirectXFileData      100507c8     dxguid:dxguid.obj
 0002:000027d8       _IID_IDirectXFileObject    100507d8     dxguid:dxguid.obj
 0002:000027e8       _IID_IDirectXFileSaveObject 100507e8     dxguid:dxguid.obj
 0002:000027f8       _IID_IDirectXFileEnumObject 100507f8     dxguid:dxguid.obj
 0002:00002808       _IID_IDirectXFile          10050808     dxguid:dxguid.obj
 0002:00002818       _CLSID_CDirectXFile        10050818     dxguid:dxguid.obj
 0002:00002828       _TID_D3DRMRightHanded      10050828     dxguid:dxguid.obj
 0002:00002838       _TID_D3DRMPropertyBag      10050838     dxguid:dxguid.obj
 0002:00002848       _TID_D3DRMStringProperty   10050848     dxguid:dxguid.obj
 0002:00002858       _TID_D3DRMExternalVisual   10050858     dxguid:dxguid.obj
 0002:00002868       _TID_D3DRMProgressiveMesh  10050868     dxguid:dxguid.obj
 0002:00002878       _TID_D3DRMUrl              10050878     dxguid:dxguid.obj
 0002:00002888       _TID_D3DRMInlineData       10050888     dxguid:dxguid.obj
 0002:00002898       _TID_D3DRMLightAttenuation 10050898     dxguid:dxguid.obj
 0002:000028a8       _TID_D3DRMLightPenumbra    100508a8     dxguid:dxguid.obj
 0002:000028b8       _TID_D3DRMLightRange       100508b8     dxguid:dxguid.obj
 0002:000028c8       _TID_D3DRMLightUmbra       100508c8     dxguid:dxguid.obj
 0002:000028d8       _TID_D3DRMAppData          100508d8     dxguid:dxguid.obj
 0002:000028e8       _TID_D3DRMCamera           100508e8     dxguid:dxguid.obj
 0002:000028f8       _TID_D3DRMLight            100508f8     dxguid:dxguid.obj
 0002:00002908       _TID_D3DRMFrameRotation    10050908     dxguid:dxguid.obj
 0002:00002918       _TID_D3DRMFrameVelocity    10050918     dxguid:dxguid.obj
 0002:00002928       _TID_D3DRMFramePosition    10050928     dxguid:dxguid.obj
 0002:00002938       _TID_D3DRMAnimationOptions 10050938     dxguid:dxguid.obj
 0002:00002948       _TID_D3DRMTimedFloatKeys   10050948     dxguid:dxguid.obj
 0002:00002958       _TID_D3DRMBoolean2d        10050958     dxguid:dxguid.obj
 0002:00002968       _TID_D3DRMMeshFaceWraps    10050968     dxguid:dxguid.obj
 0002:00002978       _TID_D3DRMBoolean          10050978     dxguid:dxguid.obj
 0002:00002988       _TID_D3DRMMaterialWrap     10050988     dxguid:dxguid.obj
 0002:00002998       _TID_D3DRMMeshVertexColors 10050998     dxguid:dxguid.obj
 0002:000029a8       _TID_D3DRMIndexedColor     100509a8     dxguid:dxguid.obj
 0002:000029b8       _TID_D3DRMTextureReference 100509b8     dxguid:dxguid.obj
 0002:000029c8       _TID_D3DRMTextureFilename  100509c8     dxguid:dxguid.obj
 0002:000029d8       _TID_D3DRMGuid             100509d8     dxguid:dxguid.obj
 0002:000029e8       _TID_D3DRMColorRGB         100509e8     dxguid:dxguid.obj
 0002:000029f8       _TID_D3DRMColorRGBA        100509f8     dxguid:dxguid.obj
 0002:00002a08       _TID_D3DRMMaterialPower    10050a08     dxguid:dxguid.obj
 0002:00002a18       _TID_D3DRMMaterialEmissiveColor 10050a18     dxguid:dxguid.obj
 0002:00002a28       _TID_D3DRMMaterialSpecularColor 10050a28     dxguid:dxguid.obj
 0002:00002a38       _TID_D3DRMMaterialDiffuseColor 10050a38     dxguid:dxguid.obj
 0002:00002a48       _TID_D3DRMMaterialAmbientColor 10050a48     dxguid:dxguid.obj
 0002:00002a58       _TID_D3DRMFloatKeys        10050a58     dxguid:dxguid.obj
 0002:00002a68       _TID_D3DRMAnimationKey     10050a68     dxguid:dxguid.obj
 0002:00002a78       _TID_D3DRMAnimationSet     10050a78     dxguid:dxguid.obj
 0002:00002a88       _TID_D3DRMAnimation        10050a88     dxguid:dxguid.obj
 0002:00002a98       _TID_D3DRMMatrix4x4        10050a98     dxguid:dxguid.obj
 0002:00002aa8       _TID_D3DRMCoords2d         10050aa8     dxguid:dxguid.obj
 0002:00002ab8       _TID_D3DRMMeshNormals      10050ab8     dxguid:dxguid.obj
 0002:00002ac8       _TID_D3DRMMeshTextureCoords 10050ac8     dxguid:dxguid.obj
 0002:00002ad8       _TID_D3DRMMeshMaterialList 10050ad8     dxguid:dxguid.obj
 0002:00002ae8       _TID_D3DRMFrameTransformMatrix 10050ae8     dxguid:dxguid.obj
 0002:00002af8       _TID_D3DRMFrame            10050af8     dxguid:dxguid.obj
 0002:00002b08       _TID_D3DRMMaterialArray    10050b08     dxguid:dxguid.obj
 0002:00002b18       _TID_D3DRMMaterial         10050b18     dxguid:dxguid.obj
 0002:00002b28       _TID_D3DRMMeshFace         10050b28     dxguid:dxguid.obj
 0002:00002b38       _TID_D3DRMVector           10050b38     dxguid:dxguid.obj
 0002:00002b48       _TID_D3DRMMesh             10050b48     dxguid:dxguid.obj
 0002:00002b58       _TID_D3DRMInfo             10050b58     dxguid:dxguid.obj
 0002:00002b68       _IID_IDirect3DRMWinDevice  10050b68     dxguid:dxguid.obj
 0002:00002b78       _CLSID_CDirect3DRM         10050b78     dxguid:dxguid.obj
 0002:00002b88       _IID_IDirect3DRM3          10050b88     dxguid:dxguid.obj
 0002:00002b98       _IID_IDirect3DRM2          10050b98     dxguid:dxguid.obj
 0002:00002ba8       _IID_IDirect3DRM           10050ba8     dxguid:dxguid.obj
 0002:00002bb8       _IID_IDirect3DRMClippedVisual 10050bb8     dxguid:dxguid.obj
 0002:00002bc8       _IID_IDirect3DRMPicked2Array 10050bc8     dxguid:dxguid.obj
 0002:00002bd8       _IID_IDirect3DRMProgressiveMesh 10050bd8     dxguid:dxguid.obj
 0002:00002be8       _IID_IDirect3DRMInterpolator 10050be8     dxguid:dxguid.obj
 0002:00002bf8       _IID_IDirect3DRMShadow2    10050bf8     dxguid:dxguid.obj
 0002:00002c08       _IID_IDirect3DRMShadow     10050c08     dxguid:dxguid.obj
 0002:00002c18       _IID_IDirect3DRMUserVisual 10050c18     dxguid:dxguid.obj
 0002:00002c28       _IID_IDirect3DRMAnimationArray 10050c28     dxguid:dxguid.obj
 0002:00002c38       _IID_IDirect3DRMFaceArray  10050c38     dxguid:dxguid.obj
 0002:00002c48       _IID_IDirect3DRMPickedArray 10050c48     dxguid:dxguid.obj
 0002:00002c58       _IID_IDirect3DRMLightArray 10050c58     dxguid:dxguid.obj
 0002:00002c68       _IID_IDirect3DRMVisualArray 10050c68     dxguid:dxguid.obj
 0002:00002c78       _IID_IDirect3DRMFrameArray 10050c78     dxguid:dxguid.obj
 0002:00002c88       _IID_IDirect3DRMViewportArray 10050c88     dxguid:dxguid.obj
 0002:00002c98       _IID_IDirect3DRMDeviceArray 10050c98     dxguid:dxguid.obj
 0002:00002ca8       _IID_IDirect3DRMObjectArray 10050ca8     dxguid:dxguid.obj
 0002:00002cb8       _IID_IDirect3DRMAnimationSet2 10050cb8     dxguid:dxguid.obj
 0002:00002cc8       _IID_IDirect3DRMAnimationSet 10050cc8     dxguid:dxguid.obj
 0002:00002cd8       _IID_IDirect3DRMAnimation2 10050cd8     dxguid:dxguid.obj
 0002:00002ce8       _IID_IDirect3DRMAnimation  10050ce8     dxguid:dxguid.obj
 0002:00002cf8       _IID_IDirect3DRMMaterial2  10050cf8     dxguid:dxguid.obj
 0002:00002d08       _IID_IDirect3DRMMaterial   10050d08     dxguid:dxguid.obj
 0002:00002d18       _IID_IDirect3DRMWrap       10050d18     dxguid:dxguid.obj
 0002:00002d28       _IID_IDirect3DRMTexture3   10050d28     dxguid:dxguid.obj
 0002:00002d38       _IID_IDirect3DRMTexture2   10050d38     dxguid:dxguid.obj
 0002:00002d48       _IID_IDirect3DRMTexture    10050d48     dxguid:dxguid.obj
 0002:00002d58       _IID_IDirect3DRMLight      10050d58     dxguid:dxguid.obj
 0002:00002d68       _IID_IDirect3DRMFace2      10050d68     dxguid:dxguid.obj
 0002:00002d78       _IID_IDirect3DRMFace       10050d78     dxguid:dxguid.obj
 0002:00002d88       _IID_IDirect3DRMMeshBuilder3 10050d88     dxguid:dxguid.obj
 0002:00002d98       _IID_IDirect3DRMMeshBuilder2 10050d98     dxguid:dxguid.obj
 0002:00002da8       _IID_IDirect3DRMMeshBuilder 10050da8     dxguid:dxguid.obj
 0002:00002db8       _IID_IDirect3DRMMesh       10050db8     dxguid:dxguid.obj
 0002:00002dc8       _IID_IDirect3DRMVisual     10050dc8     dxguid:dxguid.obj
 0002:00002dd8       _IID_IDirect3DRMFrame3     10050dd8     dxguid:dxguid.obj
 0002:00002de8       _IID_IDirect3DRMFrame2     10050de8     dxguid:dxguid.obj
 0002:00002df8       _IID_IDirect3DRMFrame      10050df8     dxguid:dxguid.obj
 0002:00002e08       _IID_IDirect3DRMViewport2  10050e08     dxguid:dxguid.obj
 0002:00002e18       _IID_IDirect3DRMViewport   10050e18     dxguid:dxguid.obj
 0002:00002e28       _IID_IDirect3DRMDevice3    10050e28     dxguid:dxguid.obj
 0002:00002e38       _IID_IDirect3DRMDevice2    10050e38     dxguid:dxguid.obj
 0002:00002e48       _IID_IDirect3DRMDevice     10050e48     dxguid:dxguid.obj
 0002:00002e58       _IID_IDirect3DRMObject2    10050e58     dxguid:dxguid.obj
 0002:00002e68       _IID_IDirect3DRMObject     10050e68     dxguid:dxguid.obj
 0002:00002e78       _CLSID_CDirect3DRMClippedVisual 10050e78     dxguid:dxguid.obj
 0002:00002e88       _CLSID_CDirect3DRMProgressiveMesh 10050e88     dxguid:dxguid.obj
 0002:00002e98       _CLSID_CDirect3DRMTextureInterpolator 10050e98     dxguid:dxguid.obj
 0002:00002ea8       _CLSID_CDirect3DRMMaterialInterpolator 10050ea8     dxguid:dxguid.obj
 0002:00002eb8       _CLSID_CDirect3DRMLightInterpolator 10050eb8     dxguid:dxguid.obj
 0002:00002ec8       _CLSID_CDirect3DRMMeshInterpolator 10050ec8     dxguid:dxguid.obj
 0002:00002ed8       _CLSID_CDirect3DRMFrameInterpolator 10050ed8     dxguid:dxguid.obj
 0002:00002ee8       _CLSID_CDirect3DRMViewportInterpolator 10050ee8     dxguid:dxguid.obj
 0002:00002ef8       _CLSID_CDirect3DRMShadow   10050ef8     dxguid:dxguid.obj
 0002:00002f08       _CLSID_CDirect3DRMUserVisual 10050f08     dxguid:dxguid.obj
 0002:00002f18       _CLSID_CDirect3DRMAnimationSet 10050f18     dxguid:dxguid.obj
 0002:00002f28       _CLSID_CDirect3DRMAnimation 10050f28     dxguid:dxguid.obj
 0002:00002f38       _CLSID_CDirect3DRMMaterial 10050f38     dxguid:dxguid.obj
 0002:00002f48       _CLSID_CDirect3DRMWrap     10050f48     dxguid:dxguid.obj
 0002:00002f58       _CLSID_CDirect3DRMTexture  10050f58     dxguid:dxguid.obj
 0002:00002f68       _CLSID_CDirect3DRMLight    10050f68     dxguid:dxguid.obj
 0002:00002f78       _CLSID_CDirect3DRMFace     10050f78     dxguid:dxguid.obj
 0002:00002f88       _CLSID_CDirect3DRMMeshBuilder 10050f88     dxguid:dxguid.obj
 0002:00002f98       _CLSID_CDirect3DRMMesh     10050f98     dxguid:dxguid.obj
 0002:00002fa8       _CLSID_CDirect3DRMFrame    10050fa8     dxguid:dxguid.obj
 0002:00002fb8       _CLSID_CDirect3DRMViewport 10050fb8     dxguid:dxguid.obj
 0002:00002fc8       _CLSID_CDirect3DRMDevice   10050fc8     dxguid:dxguid.obj
 0002:00002fd8       _IID_ID3DXAnimationController 10050fd8     dxguid:dxguid.obj
 0002:00002fe8       _IID_ID3DXAnimationMixer   10050fe8     dxguid:dxguid.obj
 0002:00002ff8       _IID_ID3DXAnimationSet     10050ff8     dxguid:dxguid.obj
 0002:00003008       _IID_ID3DXKeyFrameInterpolator 10051008     dxguid:dxguid.obj
 0002:00003018       _IID_ID3DXInterpolator     10051018     dxguid:dxguid.obj
 0002:00003028       _IID_ID3DXBuffer           10051028     dxguid:dxguid.obj
 0002:00003038       _IID_ID3DXEffect           10051038     dxguid:dxguid.obj
 0002:00003048       _IID_ID3DXTechnique        10051048     dxguid:dxguid.obj
 0002:00003058       _IID_ID3DXMatrixStack      10051058     dxguid:dxguid.obj
 0002:00003068       _IID_ID3DXSkinMesh         10051068     dxguid:dxguid.obj
 0002:00003078       _IID_ID3DXSPMesh           10051078     dxguid:dxguid.obj
 0002:00003088       _IID_ID3DXPMesh            10051088     dxguid:dxguid.obj
 0002:00003098       _IID_ID3DXMesh             10051098     dxguid:dxguid.obj
 0002:000030a8       _IID_ID3DXBaseMesh         100510a8     dxguid:dxguid.obj
 0002:000030b8       _IID_IDirect3DSwapChain8   100510b8     dxguid:dxguid.obj
 0002:000030c8       _IID_IDirect3DVolume8      100510c8     dxguid:dxguid.obj
 0002:000030d8       _IID_IDirect3DSurface8     100510d8     dxguid:dxguid.obj
 0002:000030e8       _IID_IDirect3DIndexBuffer8 100510e8     dxguid:dxguid.obj
 0002:000030f8       _IID_IDirect3DVertexBuffer8 100510f8     dxguid:dxguid.obj
 0002:00003108       _IID_IDirect3DVolumeTexture8 10051108     dxguid:dxguid.obj
 0002:00003118       _IID_IDirect3DCubeTexture8 10051118     dxguid:dxguid.obj
 0002:00003128       _IID_IDirect3DTexture8     10051128     dxguid:dxguid.obj
 0002:00003138       _IID_IDirect3DBaseTexture8 10051138     dxguid:dxguid.obj
 0002:00003148       _IID_IDirect3DResource8    10051148     dxguid:dxguid.obj
 0002:00003158       _IID_IDirect3DDevice8      10051158     dxguid:dxguid.obj
 0002:00003168       _IID_IDirect3D8            10051168     dxguid:dxguid.obj
 0002:00003178       _IID_IDirect3DVertexBuffer7 10051178     dxguid:dxguid.obj
 0002:00003188       _IID_IDirect3DVertexBuffer 10051188     dxguid:dxguid.obj
 0002:00003198       _IID_IDirect3DViewport3    10051198     dxguid:dxguid.obj
 0002:000031a8       _IID_IDirect3DViewport2    100511a8     dxguid:dxguid.obj
 0002:000031b8       _IID_IDirect3DViewport     100511b8     dxguid:dxguid.obj
 0002:000031c8       _IID_IDirect3DExecuteBuffer 100511c8     dxguid:dxguid.obj
 0002:000031d8       _IID_IDirect3DMaterial3    100511d8     dxguid:dxguid.obj
 0002:000031e8       _IID_IDirect3DMaterial2    100511e8     dxguid:dxguid.obj
 0002:000031f8       _IID_IDirect3DMaterial     100511f8     dxguid:dxguid.obj
 0002:00003208       _IID_IDirect3DLight        10051208     dxguid:dxguid.obj
 0002:00003218       _IID_IDirect3DTexture2     10051218     dxguid:dxguid.obj
 0002:00003228       _IID_IDirect3DTexture      10051228     dxguid:dxguid.obj
 0002:00003238       _IID_IDirect3DDevice7      10051238     dxguid:dxguid.obj
 0002:00003248       _IID_IDirect3DDevice3      10051248     dxguid:dxguid.obj
 0002:00003258       _IID_IDirect3DDevice2      10051258     dxguid:dxguid.obj
 0002:00003268       _IID_IDirect3DDevice       10051268     dxguid:dxguid.obj
 0002:00003278       _IID_IDirect3DTnLHalDevice 10051278     dxguid:dxguid.obj
 0002:00003288       _IID_IDirect3DNullDevice   10051288     dxguid:dxguid.obj
 0002:00003298       _IID_IDirect3DRefDevice    10051298     dxguid:dxguid.obj
 0002:000032a8       _IID_IDirect3DMMXDevice    100512a8     dxguid:dxguid.obj
 0002:000032b8       _IID_IDirect3DHALDevice    100512b8     dxguid:dxguid.obj
 0002:000032c8       _IID_IDirect3DRGBDevice    100512c8     dxguid:dxguid.obj
 0002:000032d8       _IID_IDirect3DRampDevice   100512d8     dxguid:dxguid.obj
 0002:000032e8       _IID_IDirect3D7            100512e8     dxguid:dxguid.obj
 0002:000032f8       _IID_IDirect3D3            100512f8     dxguid:dxguid.obj
 0002:00003308       _IID_IDirect3D2            10051308     dxguid:dxguid.obj
 0002:00003318       _IID_IDirect3D             10051318     dxguid:dxguid.obj
 0002:00003328       _DDVPTYPE_PHILIPS          10051328     dxguid:dxguid.obj
 0002:00003338       _DDVPTYPE_BROOKTREE        10051338     dxguid:dxguid.obj
 0002:00003348       _DDVPTYPE_CCIR656          10051348     dxguid:dxguid.obj
 0002:00003358       _DDVPTYPE_E_HREFL_VREFL    10051358     dxguid:dxguid.obj
 0002:00003368       _DDVPTYPE_E_HREFL_VREFH    10051368     dxguid:dxguid.obj
 0002:00003378       _DDVPTYPE_E_HREFH_VREFL    10051378     dxguid:dxguid.obj
 0002:00003388       _DDVPTYPE_E_HREFH_VREFH    10051388     dxguid:dxguid.obj
 0002:00003398       _IID_IDirectDrawVideoPortNotify 10051398     dxguid:dxguid.obj
 0002:000033a8       _IID_IDirectDrawVideoPort  100513a8     dxguid:dxguid.obj
 0002:000033b8       _IID_IDDVideoPortContainer 100513b8     dxguid:dxguid.obj
 0002:000033c8       _GUID_DDMoreCaps           100513c8     dxguid:dxguid.obj
 0002:000033d8       _GUID_Miscellaneous2Callbacks 100513d8     dxguid:dxguid.obj
 0002:000033e8       _GUID_NTCallbacks          100513e8     dxguid:dxguid.obj
 0002:000033f8       _GUID_MotionCompCallbacks  100513f8     dxguid:dxguid.obj
 0002:00003408       _GUID_D3DParseUnknownCommandCallback 10051408     dxguid:dxguid.obj
 0002:00003418       _GUID_UserModeDriverPassword 10051418     dxguid:dxguid.obj
 0002:00003428       _GUID_UserModeDriverInfo   10051428     dxguid:dxguid.obj
 0002:00003438       _GUID_OptSurfaceUmodeInfo  10051438     dxguid:dxguid.obj
 0002:00003448       _GUID_OptSurfaceKmodeInfo  10051448     dxguid:dxguid.obj
 0002:00003458       _GUID_DDStereoMode         10051458     dxguid:dxguid.obj
 0002:00003468       _GUID_DDMoreSurfaceCaps    10051468     dxguid:dxguid.obj
 0002:00003478       _GUID_ZPixelFormats        10051478     dxguid:dxguid.obj
 0002:00003488       _GUID_D3DExtendedCaps      10051488     dxguid:dxguid.obj
 0002:00003498       _GUID_KernelCaps           10051498     dxguid:dxguid.obj
 0002:000034a8       _GUID_KernelCallbacks      100514a8     dxguid:dxguid.obj
 0002:000034b8       _GUID_NonLocalVidMemCaps   100514b8     dxguid:dxguid.obj
 0002:000034c8       _GUID_D3DCallbacks3        100514c8     dxguid:dxguid.obj
 0002:000034d8       _GUID_D3DCallbacks2        100514d8     dxguid:dxguid.obj
 0002:000034e8       _GUID_VideoPortCaps        100514e8     dxguid:dxguid.obj
 0002:000034f8       _GUID_ColorControlCallbacks 100514f8     dxguid:dxguid.obj
 0002:00003508       _GUID_VideoPortCallbacks   10051508     dxguid:dxguid.obj
 0002:00003518       _GUID_MiscellaneousCallbacks 10051518     dxguid:dxguid.obj
 0002:00003528       _IID_IDirectDrawGammaControl 10051528     dxguid:dxguid.obj
 0002:00003538       _IID_IDirectDrawColorControl 10051538     dxguid:dxguid.obj
 0002:00003548       _IID_IDirectDrawClipper    10051548     dxguid:dxguid.obj
 0002:00003558       _IID_IDirectDrawPalette    10051558     dxguid:dxguid.obj
 0002:00003568       _IID_IDirectDrawPalette2   10051568     dxguid:dxguid.obj
 0002:00003578       _IID_IDirectDrawOptSurface 10051578     dxguid:dxguid.obj
 0002:00003588       _GUID_DirectDrawPaletteStream 10051588     dxguid:dxguid.obj
 0002:00003598       _GUID_DirectDrawSurfaceStream 10051598     dxguid:dxguid.obj
 0002:000035a8       _IID_IDirectDrawFactory2   100515a8     dxguid:dxguid.obj
 0002:000035b8       _CLSID_DirectDrawFactory2  100515b8     dxguid:dxguid.obj
 0002:000035c8       _IID_IDirectDrawSurfaceNew 100515c8     dxguid:dxguid.obj
 0002:000035d8       _IID_IDirectDrawSurface7   100515d8     dxguid:dxguid.obj
 0002:000035e8       _IID_IDirectDrawSurface4   100515e8     dxguid:dxguid.obj
 0002:000035f8       _IID_IDirectDrawSurface3   100515f8     dxguid:dxguid.obj
 0002:00003608       _IID_IDirectDrawSurface2   10051608     dxguid:dxguid.obj
 0002:00003618       _IID_IDirectDrawSurface    10051618     dxguid:dxguid.obj
 0002:00003628       _IID_IDirectDraw7          10051628     dxguid:dxguid.obj
 0002:00003638       _IID_IDirectDraw4          10051638     dxguid:dxguid.obj
 0002:00003648       _IID_IDirectDraw2          10051648     dxguid:dxguid.obj
 0002:00003658       _IID_IDirectDraw           10051658     dxguid:dxguid.obj
 0002:00003668       _CLSID_DirectDrawClipper   10051668     dxguid:dxguid.obj
 0002:00003678       _CLSID_DirectDraw7         10051678     dxguid:dxguid.obj
 0002:00003688       _CLSID_DirectDraw          10051688     dxguid:dxguid.obj
 0002:00003884       _c_dfDIMouse               10051884     dinput8:dilib1.obj
 0002:00003a8c       _c_dfDIKeyboard            10051a8c     dinput8:dilib2.obj
 0002:00003aa8       __real@8@3fffe2d0e56041893800 10051aa8     JpgLib:KJpegColor.obj
 0002:00003ab0       __real@8@3ffeb6d1e108c3f3e000 10051ab0     JpgLib:KJpegColor.obj
 0002:00003ab8       __real@8@3ffdb0331e3a7daa5000 10051ab8     JpgLib:KJpegColor.obj
 0002:00003ac0       __real@8@3fff8000000000000000 10051ac0     JpgLib:KJpegColor.obj
 0002:00003ac8       __real@8@3fffb374bc6a7ef9d800 10051ac8     JpgLib:KJpegColor.obj
 0002:00004028       __real@8@3ffe8000000000000000 10052028     mp3lib:KMp3Sbt.obj
 0002:00004030       __real@8@40018000000000000000 10052030     mp3lib:KMp3Sbt.obj
 0002:00004038       __real@8@3ffdaaaaab0000000000 10052038     mp3lib:KMp3Quant.obj
 0002:00004200       __real@8@c0008000000000000000 10052200     mp3lib:KMp3Init.obj
 0002:00004208       __real@8@3ffdaaaaaaaaaaaaa800 10052208     mp3lib:KMp3Init.obj
 0002:00004210       __real@8@bffe8000000000000000 10052210     mp3lib:KMp3Init.obj
 0002:00004218       __real@8@3ffd8000000000000000 10052218     mp3lib:KMp3Init.obj
 0002:00004220       __real@8@40008000000000000000 10052220     mp3lib:KMp3Init.obj
 0002:00004228       __real@8@4001c000000000000000 10052228     mp3lib:KMp3Init.obj
 0002:00004230       __real@8@3ffbaaaaaaaaaaaaa800 10052230     mp3lib:KMp3Init.obj
 0002:00004238       __real@8@40039000000000000000 10052238     mp3lib:KMp3Init.obj
 0002:00004240       __real@8@3ff9e38e38e38e38e000 10052240     mp3lib:KMp3Init.obj
 0002:00004248       __real@4@3ffe8000000000000000 10052248     mp3lib:KMp3Init.obj
 0002:00004250       __real@8@3ffaaaaaaaaaaaaaa800 10052250     mp3lib:KMp3Init.obj
 0002:00004258       __real@8@3ff8e38e38e38e38e000 10052258     mp3lib:KMp3Init.obj
 0002:00004260       __real@8@bffd8000000000000000 10052260     mp3lib:KMp3Init.obj
 0002:00005c68       __IMPORT_DESCRIPTOR_KERNEL32 10053c68     kernel32:KERNEL32.dll
 0002:00005c7c       __IMPORT_DESCRIPTOR_USER32 10053c7c     user32:USER32.dll
 0002:00005c90       __IMPORT_DESCRIPTOR_GDI32  10053c90     gdi32:GDI32.dll
 0002:00005ca4       __IMPORT_DESCRIPTOR_comdlg32 10053ca4     comdlg32:comdlg32.dll
 0002:00005cb8       __IMPORT_DESCRIPTOR_DDRAW  10053cb8     ddraw:DDRAW.dll
 0002:00005ccc       __IMPORT_DESCRIPTOR_DSOUND 10053ccc     dsound:DSOUND.dll
 0002:00005ce0       __IMPORT_DESCRIPTOR_WINMM  10053ce0     winmm:WINMM.dll
 0002:00005cf4       __IMPORT_DESCRIPTOR_DINPUT8 10053cf4     dinput8:DINPUT8.dll
 0002:00005d08       __IMPORT_DESCRIPTOR_LuaLibDll 10053d08     LuaLibDll:LuaLibDll.dll
 0002:00005d1c       __IMPORT_DESCRIPTOR_MSVCRT 10053d1c     MSVCRT:MSVCRT.dll
 0002:00005d30       __IMPORT_DESCRIPTOR_IMM32  10053d30     imm32:IMM32.dll
 0002:00005d44       __NULL_IMPORT_DESCRIPTOR   10053d44     kernel32:KERNEL32.dll
 0003:00000000       ___xc_a                    10062000     MSVCRT:cinitexe.obj
 0003:00000014       ___xc_z                    10062014     MSVCRT:cinitexe.obj
 0003:00000018       ___xi_a                    10062018     MSVCRT:cinitexe.obj
 0003:0000001c       ___xi_z                    1006201c     MSVCRT:cinitexe.obj
 0003:00000098       ?g_RGB@@3P6AGHHH@ZA        10062098     KColors.obj
 0003:00001e94       ?s_NotAllowAtLineHeadA1Characters@@3PAEA 10063e94     Text.obj
 0003:00001ea0       ?s_NotAllowAtLineHeadA3Characters@@3PAEA 10063ea0     Text.obj
 0003:00001eac       ?s_NotAllowAtLineHead00Characters@@3PAEA 10063eac     Text.obj
 0003:00001eb4       _ucl_alloc_hook            10063eb4     alloc.obj
 0003:00001eb8       _ucl_free_hook             10063eb8     alloc.obj
 0003:00001f00       _jpeg_zigzag               10063f00     JpgLib:KJpegDecode.obj
 0003:00002230       _band_limit_nsb            10064230     mp3lib:KMp3Decode.obj
 0003:000067b8       _wincoef                   100687b8     mp3lib:KMp3Win.obj
 0003:000081f0       ?g_pCanvas@@3PAVKCanvas@@A 1006a1f0     KCanvas.obj
 0003:000081f8       ?g_pDirectDraw@@3PAVKDirectDraw@@A 1006a1f8     KDDraw.obj
 0003:00008200       ?g_pDirectInput@@3PAVKDirectInput@@A 1006a200     KDInput.obj
 0003:00008210       ?g_pDirectSound@@3PAVKDirectSound@@A 1006a210     KDSound.obj
 0003:00008224       ?g_pIme@@3PAVKIme@@A       1006a224     Kime.obj
 0003:00008234       ?g_pKeyboard@@3PAVKKeyboard@@A 1006a234     KKeyboard.obj
 0003:00008260       ?g_MemManager@@3VKMemManager@@A 1006a260     KMemManager.obj
 0003:000082cc       ?g_pMouse@@3PAVKMouse@@A   1006a2cc     KMouse.obj
 0003:000082ec       ?g_pPakList@@3PAVKPakList@@A 1006a2ec     KPakList.obj
 0003:00008670       ?sout@@3PAU_iobuf@@A       1006a670     KWin32App.obj
 0003:00008674       ?serr@@3PAU_iobuf@@A       1006a674     KWin32App.obj
 0003:00008688       ?g_pZipList@@3PAVKZipList@@A 1006a688     KZipList.obj
 0003:00008698       ?ms_ElemFileCache@XPackFile@@0PAUXPackElemFileCache@1@A 1006a698     XPackFile.obj
 0003:00008788       ?ms_nNumElemFileCache@XPackFile@@0HA 1006a788     XPackFile.obj
 0003:000087a4       ?g_pIInlinePicSink@@3PAUIInlinePicEngineSink@@A 1006a7a4     Text.obj
 0003:000087b8       ___ucl_init_done           1006a7b8     ucl_init.obj
 0003:000087bc       _jpeg_stream               1006a7bc     JpgLib:KJpegLib.obj
 0003:000087c0       _jpeg_IDCT                 1006a7c0     JpgLib:KJpegLib.obj
 0003:000087c4       _jpeg_Y2RGB                1006a7c4     JpgLib:KJpegLib.obj
 0003:000087c8       _jpeg_YCbCr411             1006a7c8     JpgLib:KJpegLib.obj
 0003:000087cc       _jpeg_YCbCr111             1006a7cc     JpgLib:KJpegLib.obj
 0003:00010a80       _jpeg_qtable               10072a80     <common>
 0003:00010aa0       _jpeg_ybuf                 10072aa0     <common>
 0003:00010ca0       _jpeg_crbuf                10072ca0     <common>
 0003:00010d20       _jpeg_htable               10072d20     <common>
 0003:00010d60       _jpeg_cbbuf                10072d60     <common>
 0003:00010de0       _jpeg_head                 10072de0     <common>
 0003:00010df8       _jpeg_DC                   10072df8     <common>
 0003:00010dfe       _jpeg_bit                  10072dfe     <common>
 0003:00010e00       _mdct6_3v                  10072e00     <common>
 0003:00010e20       _mdct6_3v2                 10072e20     <common>
 0003:00010e40       _mdct18w                   10072e40     <common>
 0003:00010ea0       _mdct18w2                  10072ea0     <common>
 0003:00010ee0       _coef                      10072ee0     <common>
 0003:00010f70       _coef87                    10072f70     <common>
 0003:00010f80       _coef32                    10072f80     <common>
 0003:00011000       _csa                       10073000     <common>
 0003:00011040       _win                       10073040     <common>
 0003:00011280       _sfBandIndex               10073280     <common>
 0003:00011340       _bitdat                    10073340     <common>
 0003:00011360       _nBand                     10073360     <common>
 0003:00011410       __adjust_fdiv              10073410     <common>
 0003:00011414       __pRawDllMain              10073414     <common>
 0003:00011418       ___onexitend               10073418     <common>
 0003:0001141c       ___onexitbegin             1007341c     <common>

 entry point at        0001:0004b11f

 Static symbols

 0001:0003d74e       _basic_integral_check      1003e74e f   ucl_init.obj
 0001:0003d859       _basic_ptr_check           1003e859 f   ucl_init.obj
 0001:0003d8ef       _ptr_check                 1003e8ef f   ucl_init.obj
 0001:0003dbee       _schedule_insns_bug        1003ebee f   ucl_init.obj
 0001:0003dc1e       _strength_reduce_bug       1003ec1e f   ucl_init.obj
 0001:00038d7f       _swd_exit                  10039d7f f   n2e_99.obj
 0001:00038e1a       _init_match                10039e1a f   n2e_99.obj
 0001:00038edc       _swd_init                  10039edc f   n2e_99.obj
 0001:0003921c       _swd_initdict              1003a21c f   n2e_99.obj
 0001:000392ad       _swd_insertdict            1003a2ad f   n2e_99.obj
 0001:000393b2       _find_match                1003a3b2 f   n2e_99.obj
 0001:000394d1       _swd_getbyte               1003a4d1 f   n2e_99.obj
 0001:000395ea       _swd_accept                1003a5ea f   n2e_99.obj
 0001:0003970a       _swd_remove_node           1003a70a f   n2e_99.obj
 0001:000397c8       _swd_findbest              1003a7c8 f   n2e_99.obj
 0001:000399db       _swd_search                1003a9db f   n2e_99.obj
 0001:00039b6b       _swd_search2               1003ab6b f   n2e_99.obj
 0001:00039bbc       _bbConfig                  1003abbc f   n2e_99.obj
 0001:00039c3d       _bbPutBit                  1003ac3d f   n2e_99.obj
 0001:00039cd7       _bbWriteBits               1003acd7 f   n2e_99.obj
 0001:00039d31       _bbPutByte                 1003ad31 f   n2e_99.obj
 0001:00039d50       _bbFlushBits               1003ad50 f   n2e_99.obj
 0001:00039d9e       _code_prefix_ss12          1003ad9e f   n2e_99.obj
 0001:00039e44       _code_match                1003ae44 f   n2e_99.obj
 0001:00039fed       _code_prefix_ss11          1003afed f   n2e_99.obj
 0001:0003a079       _code_run                  1003b079 f   n2e_99.obj
 0001:0003a0f8       _len_of_coded_match        1003b0f8 f   n2e_99.obj
 0001:000348bf       _swd_exit                  100358bf f   n2d_99.obj
 0001:0003495a       _init_match                1003595a f   n2d_99.obj
 0001:00034a1c       _swd_init                  10035a1c f   n2d_99.obj
 0001:00034d5c       _swd_initdict              10035d5c f   n2d_99.obj
 0001:00034ded       _swd_insertdict            10035ded f   n2d_99.obj
 0001:00034ef2       _find_match                10035ef2 f   n2d_99.obj
 0001:00035011       _swd_getbyte               10036011 f   n2d_99.obj
 0001:0003512a       _swd_accept                1003612a f   n2d_99.obj
 0001:0003524a       _swd_remove_node           1003624a f   n2d_99.obj
 0001:00035308       _swd_findbest              10036308 f   n2d_99.obj
 0001:0003551b       _swd_search                1003651b f   n2d_99.obj
 0001:000356ab       _swd_search2               100366ab f   n2d_99.obj
 0001:000356fc       _bbConfig                  100366fc f   n2d_99.obj
 0001:0003577d       _bbPutBit                  1003677d f   n2d_99.obj
 0001:00035817       _bbWriteBits               10036817 f   n2d_99.obj
 0001:00035871       _bbPutByte                 10036871 f   n2d_99.obj
 0001:00035890       _bbFlushBits               10036890 f   n2d_99.obj
 0001:000358de       _code_prefix_ss12          100368de f   n2d_99.obj
 0001:00035984       _code_match                10036984 f   n2d_99.obj
 0001:00035b13       _code_prefix_ss11          10036b13 f   n2d_99.obj
 0001:00035b9f       _code_run                  10036b9f f   n2d_99.obj
 0001:00035c1e       _len_of_coded_match        10036c1e f   n2d_99.obj
 0001:0003087f       _swd_exit                  1003187f f   n2b_99.obj
 0001:0003091a       _init_match                1003191a f   n2b_99.obj
 0001:000309dc       _swd_init                  100319dc f   n2b_99.obj
 0001:00030d1c       _swd_initdict              10031d1c f   n2b_99.obj
 0001:00030dad       _swd_insertdict            10031dad f   n2b_99.obj
 0001:00030eb2       _find_match                10031eb2 f   n2b_99.obj
 0001:00030fd1       _swd_getbyte               10031fd1 f   n2b_99.obj
 0001:000310ea       _swd_accept                100320ea f   n2b_99.obj
 0001:0003120a       _swd_remove_node           1003220a f   n2b_99.obj
 0001:000312c8       _swd_findbest              100322c8 f   n2b_99.obj
 0001:000314db       _swd_search                100324db f   n2b_99.obj
 0001:0003166b       _swd_search2               1003266b f   n2b_99.obj
 0001:000316bc       _bbConfig                  100326bc f   n2b_99.obj
 0001:0003173d       _bbPutBit                  1003273d f   n2b_99.obj
 0001:000317d7       _bbWriteBits               100327d7 f   n2b_99.obj
 0001:00031831       _bbPutByte                 10032831 f   n2b_99.obj
 0001:00031850       _bbFlushBits               10032850 f   n2b_99.obj
 0001:0003189e       _code_prefix_ss11          1003289e f   n2b_99.obj
 0001:0003192a       _code_match                1003292a f   n2b_99.obj
 0001:00031aa6       _code_run                  10032aa6 f   n2b_99.obj
 0001:00031b25       _len_of_coded_match        10032b25 f   n2b_99.obj
 0001:00030100       _ucl_alloc_internal        10031100 f   alloc.obj
 0001:00030154       _ucl_free_internal         10031154 f   alloc.obj
 0001:0002e69c       ?TEncodeCtrl@@YA_NPADHAAH1@Z 1002f69c f   Text.obj
 0001:0002e877       ?TEncodeCtrl@@YAHHPADH0@Z  1002f877 f   Text.obj
 0001:0002bc12       ?md5_process@@YAXPAUmd5_state_s@@PBE@Z 1002cc12 f   md5.obj
 0001:00029067       ?WndProc@@YGJPAUHWND__@@IIJ@Z 1002a067 f   KWin32App.obj
 0001:00027f9a       ?ImaInitTable@@YAXXZ       10028f9a f   KWavCodec.obj
 0001:0002803e       ?ImaDecodeBlock@@YAXPAEPAFH@Z 1002903e f   KWavCodec.obj
 0001:00028080       ?ImaDecodeSample@@YAXHHPAEPAFHH@Z 10029080 f   KWavCodec.obj
 0001:0001915d       ?LoadMpgLib@@YAHXZ         1001a15d f   KMpgMusic.obj
 0001:00019247       ?FreeMpgLib@@YAXXZ         1001a247 f   KMpgMusic.obj
 0001:00018a32       ?LoadMp4Lib@@YAHXZ         10019a32 f   KMp4Video.obj
 0001:00018ada       ?FreeMp4Lib@@YAXXZ         10019ada f   KMp4Video.obj
 0001:00016c10       _$E6                       10017c10 f   KMessage.obj
 0001:00016c1f       _$E3                       10017c1f f   KMessage.obj
 0001:00016c2e       _$E5                       10017c2e f   KMessage.obj
 0001:00016c40       _$E4                       10017c40 f   KMessage.obj
 0001:00016540       _$E6                       10017540 f   KMemManager.obj
 0001:0001654f       _$E3                       1001754f f   KMemManager.obj
 0001:0001655e       _$E5                       1001755e f   KMemManager.obj
 0001:00016570       _$E4                       10017570 f   KMemManager.obj
 0001:00016070       _$E4                       10017070 f   KMemBase.obj
 0001:0001607f       _$E1                       1001707f f   KMemBase.obj
 0001:0001608e       _$E3                       1001708e f   KMemBase.obj
 0001:000160a0       _$E2                       100170a0 f   KMemBase.obj
 0001:0000bf89       ?LoadEicLib@@YAHXZ         1000cf89 f   KEicScript.obj
 0001:0000c073       ?FreeEicLib@@YAXXZ         1000d073 f   KEicScript.obj
 0001:0000a44b       _$E4                       1000b44b f   KDrawSprite.obj
 0001:0000a45a       _$E1                       1000b45a f   KDrawSprite.obj
 0001:0000a469       _$E3                       1000b469 f   KDrawSprite.obj
 0001:0000a47b       _$E2                       1000b47b f   KDrawSprite.obj
 0001:00001444       ?str2ulong@@YAKPAD@Z       10002444 f   KAviFile.obj
 0001:0003fbb0       _Y2RGB                     10040bb0 f   JpgLib:KJpegColor.obj
 0001:0003fc00       _YCbCr411_565              10040c00 f   JpgLib:KJpegColor.obj
 0001:0003feb0       _YCbCr411_555              10040eb0 f   JpgLib:KJpegColor.obj
 0001:00040150       _RGB16_555                 10041150 f   JpgLib:KJpegColor.obj
 0001:000401e0       _RGB16_565                 100411e0 f   JpgLib:KJpegColor.obj
 0001:00040270       _YCbCr411_nommx            10041270 f   JpgLib:KJpegColor.obj
 0001:00040420       _YCbCr111                  10041420 f   JpgLib:KJpegColor.obj
 0001:00045ac0       _forward_bf                10046ac0 f   mp3lib:KMp3Fdct.obj
 0001:00045b80       _back_bf                   10046b80 f   mp3lib:KMp3Fdct.obj
 0001:00044550       _bitget_lb                 10045550 f   mp3lib:KMp3Huf.obj
 0001:000445c0       _bitget2                   100455c0 f   mp3lib:KMp3Huf.obj
 0001:00042df0       _gencoef                   10043df0 f   mp3lib:KMp3Sbt.obj
 0001:00041710       _Xform_mono                10042710 f   mp3lib:KMp3Decode.obj
 0001:000417c0       _Xform_dual_right          100427c0 f   mp3lib:KMp3Decode.obj
 0001:00041870       _Xform_dual                10042870 f   mp3lib:KMp3Decode.obj
 0001:00041990       _Xform_dual_mono           10042990 f   mp3lib:KMp3Decode.obj
 0001:00041b50       _L3audio_decode_MPEG1      10042b50 f   mp3lib:KMp3Decode.obj
 0001:00041cd0       _bitget_init               10042cd0 f   mp3lib:KMp3Decode.obj
 0001:00041cf0       _unpack_side_MPEG1         10042cf0 f   mp3lib:KMp3Decode.obj
 0001:00041fc0       _unpack_main               10042fc0 f   mp3lib:KMp3Decode.obj
 0001:00042510       _bitget_init_end           10043510 f   mp3lib:KMp3Decode.obj
 0001:00042520       _bitget_bits_used          10043520 f   mp3lib:KMp3Decode.obj
 0001:00042910       _L3audio_decode_MPEG2      10043910 f   mp3lib:KMp3Decode.obj
 0001:00042aa0       _unpack_side_MPEG2         10043aa0 f   mp3lib:KMp3Decode.obj
 0001:0004ada0       ?ArrayUnwindFilter@@YAHPAU_EXCEPTION_POINTERS@@@Z 1004bda0 f   MSVCRT:ehvecdtr.obj
