 Game

 Timestamp is 65410c31 (Tue Oct 31 21:16:17 2023)

 Preferred load address is 00400000

 Start         Length     Name                   Class
 0001:00000000 000a281aH .text                   CODE
 0001:000a2820 000091d7H .text$x                 CODE
 0002:00000000 000003d4H .idata$5                DATA
 0002:000003d8 0000214cH .rdata                  DATA
 0002:00002528 00008450H .xdata$x                DATA
 0002:0000a978 000000c8H .idata$2                DATA
 0002:0000aa40 00000014H .idata$3                DATA
 0002:0000aa54 000003d4H .idata$4                DATA
 0002:0000ae28 00001844H .idata$6                DATA
 0002:0000c66c 00000000H .edata                  DATA
 0003:00000000 00000004H .CRT$XCA                DATA
 0003:00000004 00000074H .CRT$XCU                DATA
 0003:00000078 00000004H .CRT$XCZ                DATA
 0003:0000007c 00000004H .CRT$XIA                DATA
 0003:00000080 00000004H .CRT$XIZ                DATA
 0003:00000090 0000e394H .data                   DATA
 0003:0000e428 00006698H .bss                    DATA
 0004:00000000 000000a0H .rsrc$01                DATA
 0004:000000a0 000008c0H .rsrc$02                DATA

  Address         Publics by Value              Rva+Base     Lib:Object

 0001:00000000       ?ALW_GetWndPosition@@YAXAAH0HH_N1@Z 00401000 f   AutoLocateWnd.obj
 0001:00000119       ?gGetComClassFactory@@YAPAVKComClassFactory@@XZ 00401119 f   ComWindow.obj
 0001:00000123       ??0KComClassFactory@@QAE@XZ 00401123 f   ComWindow.obj
 0001:0000013b       ?FindComClass@KComClassFactory@@QAEPAUKComClassInfo@@PBD@Z 0040113b f   ComWindow.obj
 0001:00000195       ?FindComClass@KComClassFactory@@QAEPAUKComClassInfo@@PBU2@@Z 00401195 f   ComWindow.obj
 0001:000001b8       ?RegisterComClass@KComClassFactory@@QAEHABUKComClassInfo@@@Z 004011b8 f   ComWindow.obj
 0001:00000213       ?CreateComObject@KComClassFactory@@QAEPAVKWndWindow@@PBD@Z 00401213 f   ComWindow.obj
 0001:00000269       ?SetHoverObjDescColor@@YAXI@Z 00401269 f   MouseHover.obj
 0001:00000276       ?SetMouseHoverObjectDesc@@YAXPAXHIIHHH_N@Z 00401276 f   MouseHover.obj
 0001:000004ce       ?DrawDraggingGameObjFunc@@YAHHHABUKUiDraggedObject@@H@Z 004014ce f   MouseHover.obj
 0001:00000500       ??0KMouseOver@@QAE@XZ      00401500 f   MouseHover.obj
 0001:000006af       ?IsMoseHoverWndObj@KMouseOver@@QAEHPAXH@Z 004016af f   MouseHover.obj
 0001:000006ed       ?CancelMouseHoverInfo@KMouseOver@@QAEXXZ 004016ed f   MouseHover.obj
 0001:0000077d       ?SetMouseHoverInfo@KMouseOver@@QAEXPAXHHH_N11@Z 0040177d f   MouseHover.obj
 0001:0000082a       ?SetMouseHoverImage@KMouseOver@@QAEX_N@Z 0040182a f   MouseHover.obj
 0001:0000095f       ?SetMouseHoverTitle@KMouseOver@@QAEXPBDHI@Z 0040195f f   MouseHover.obj
 0001:000009df       ?SetMouseHoverProp@KMouseOver@@QAEXPBDHI@Z 004019df f   MouseHover.obj
 0001:00000a5f       ?SetMouseHoverDesc@KMouseOver@@QAEXPBDHI@Z 00401a5f f   MouseHover.obj
 0001:00000adf       ?Update@KMouseOver@@AAEXHH@Z 00401adf f   MouseHover.obj
 0001:00000d7f       ?UpdateCursorPos@KMouseOver@@QAEXHH@Z 00401d7f f   MouseHover.obj
 0001:00000dbf       ?OnWndClosed@KMouseOver@@QAEXPAX@Z 00401dbf f   MouseHover.obj
 0001:00000de8       ?LoadScheme@KMouseOver@@QAEXPBD@Z 00401de8 f   MouseHover.obj
 0001:00001223       ?PaintMouseHoverInfo@KMouseOver@@QAEXXZ 00402223 f   MouseHover.obj
 0001:000017f0       ?GetStatus@KUiBase@@QAE?AW4UISYS_STATUS@@XZ 004027f0 f i MouseHover.obj
 0001:00001810       ??0KOutputTextParam@@QAE@XZ 00402810 f i MouseHover.obj
 0001:00001870       ?OnWndDelete@KPopupMenu@@SAXPAVKWndWindow@@@Z 00402870 f   PopupMenu.obj
 0001:00001885       ?Popup@KPopupMenu@@SAXPAUKPopupMenuData@@PAVKWndWindow@@I@Z 00402885 f   PopupMenu.obj
 0001:00001d26       ?PaintMenu@KPopupMenu@@SAXXZ 00402d26 f   PopupMenu.obj
 0001:000025e8       ?HandleInput@KPopupMenu@@SAHIIH@Z 004035e8 f   PopupMenu.obj
 0001:00002765       ?SelectItem@KPopupMenu@@CA_NH_N@Z 00403765 f   PopupMenu.obj
 0001:0000284f       ?SelectItem@KPopupMenu@@CA_NHH_N0@Z 0040384f f   PopupMenu.obj
 0001:00002a3d       ?Cancel@KPopupMenu@@SAXXZ  00403a3d f   PopupMenu.obj
 0001:00002a81       ?InitMenuData@KPopupMenu@@SAXPAUKPopupMenuData@@H@Z 00403a81 f   PopupMenu.obj
 0001:00002bcc       ?LoadTheme@KPopupMenu@@SAXPBD@Z 00403bcc f   PopupMenu.obj
 0001:00002fa9       ?SetSpaceOverObjDescColor@@YAXI@Z 00403fa9 f   SpaceOver.obj
 0001:00002fb6       ?SetSpaceOverObjectDesc@@YAXPAXHIIHHHI_N@Z 00403fb6 f   SpaceOver.obj
 0001:0000313c       ??0KSpaceOver@@QAE@XZ      0040413c f   SpaceOver.obj
 0001:0000327e       ?IsSpaceOverWndObj@KSpaceOver@@QAEHPAXH@Z 0040427e f   SpaceOver.obj
 0001:000032bc       ?CancelSpaceOverInfo@KSpaceOver@@QAEXXZ 004042bc f   SpaceOver.obj
 0001:0000331e       ?SetSpaceOverInfo@KSpaceOver@@QAEXPAXHHHI_N1@Z 0040431e f   SpaceOver.obj
 0001:000033ab       ?SetSpaceOverImage@KSpaceOver@@QAEX_N@Z 004043ab f   SpaceOver.obj
 0001:000034e0       ?SetSpaceOverTitle@KSpaceOver@@QAEXPBDHI@Z 004044e0 f   SpaceOver.obj
 0001:00003560       ?Update@KSpaceOver@@AAEXHH@Z 00404560 f   SpaceOver.obj
 0001:000036f5       ?UpdateCursorPos@KSpaceOver@@QAEXHH@Z 004046f5 f   SpaceOver.obj
 0001:00003734       ?OnWndClosed@KSpaceOver@@QAEXPAX@Z 00404734 f   SpaceOver.obj
 0001:0000375d       ?LoadScheme@KSpaceOver@@QAEXPBD@Z 0040475d f   SpaceOver.obj
 0001:000039f2       ?PaintSpaceOverInfo@KSpaceOver@@QAEXXZ 004049f2 f   SpaceOver.obj
 0001:00003dd0       ?OutputTabSplitText@@YAHPBDHHHPAUKOutputTextParam@@@Z 00404dd0 f   SpecialFuncs.obj
 0001:00003fb5       ?SetScrPicPath@@YA_NPBD@Z  00404fb5 f   SpecialFuncs.obj
 0001:00004062       ?GetAPrintScreenFileName@@YA_NPADH@Z 00405062 f   SpecialFuncs.obj
 0001:000040b3       ?SaveScreenToFile@@YAXW4ScreenFileType@@I@Z 004050b3 f   SpecialFuncs.obj
 0001:000041e0       ??0KInlinePicSink@@QAE@XZ  004051e0 f   TextPic.obj
 0001:0000427c       ?Init@KInlinePicSink@@QAEHPAUiRepresentShell@@@Z 0040527c f   TextPic.obj
 0001:00004505       ?UnInit@KInlinePicSink@@QAEHXZ 00405505 f   TextPic.obj
 0001:00004553       ?GetPicSize@KInlinePicSink@@UAEJGAAH0@Z 00405553 f   TextPic.obj
 0001:00004681       ?DrawPic@KInlinePicSink@@UAEJGHH@Z 00405681 f   TextPic.obj
 0001:000047a9       ?AddCustomInlinePic@KInlinePicSink@@UAEJAAGPBD@Z 004057a9 f   TextPic.obj
 0001:000049a4       ?RemoveCustomInlinePic@KInlinePicSink@@UAEJG@Z 004059a4 f   TextPic.obj
 0001:00004a40       ??0IInlinePicEngineSink@@QAE@XZ 00405a40 f i TextPic.obj
 0001:00004a60       ??0?$vector@UKUiImageRef@@V?$allocator@UKUiImageRef@@@std@@@std@@QAE@ABV?$allocator@UKUiImageRef@@@1@@Z 00405a60 f i TextPic.obj
 0001:00004aa0       ??1?$vector@UKUiImageRef@@V?$allocator@UKUiImageRef@@@std@@@std@@QAE@XZ 00405aa0 f i TextPic.obj
 0001:00004b10       ?size@?$vector@UKUiImageRef@@V?$allocator@UKUiImageRef@@@std@@@std@@QBEIXZ 00405b10 f i TextPic.obj
 0001:00004b50       ??A?$vector@UKUiImageRef@@V?$allocator@UKUiImageRef@@@std@@@std@@QAEAAUKUiImageRef@@I@Z 00405b50 f i TextPic.obj
 0001:00004b70       ?push_back@?$vector@UKUiImageRef@@V?$allocator@UKUiImageRef@@@std@@@std@@QAEXABUKUiImageRef@@@Z 00405b70 f i TextPic.obj
 0001:00004ba0       ??0?$vector@UKImageParam@@V?$allocator@UKImageParam@@@std@@@std@@QAE@ABV?$allocator@UKImageParam@@@1@@Z 00405ba0 f i TextPic.obj
 0001:00004be0       ??1?$vector@UKImageParam@@V?$allocator@UKImageParam@@@std@@@std@@QAE@XZ 00405be0 f i TextPic.obj
 0001:00004c50       ??A?$vector@UKImageParam@@V?$allocator@UKImageParam@@@std@@@std@@QAEAAUKImageParam@@I@Z 00405c50 f i TextPic.obj
 0001:00004c70       ?push_back@?$vector@UKImageParam@@V?$allocator@UKImageParam@@@std@@@std@@QAEXABUKImageParam@@@Z 00405c70 f i TextPic.obj
 0001:00004ca0       ?begin@?$vector@UKUiImageRef@@V?$allocator@UKUiImageRef@@@std@@@std@@QAEPAUKUiImageRef@@XZ 00405ca0 f i TextPic.obj
 0001:00004cc0       ?end@?$vector@UKUiImageRef@@V?$allocator@UKUiImageRef@@@std@@@std@@QAEPAUKUiImageRef@@XZ 00405cc0 f i TextPic.obj
 0001:00004ce0       ?insert@?$vector@UKUiImageRef@@V?$allocator@UKUiImageRef@@@std@@@std@@QAEPAUKUiImageRef@@PAU3@ABU3@@Z 00405ce0 f i TextPic.obj
 0001:00004d30       ?_Destroy@?$vector@UKUiImageRef@@V?$allocator@UKUiImageRef@@@std@@@std@@IAEXPAUKUiImageRef@@0@Z 00405d30 f i TextPic.obj
 0001:00004d60       ?deallocate@?$allocator@UKUiImageRef@@@std@@QAEXPAXI@Z 00405d60 f i TextPic.obj
 0001:00004d80       ?begin@?$vector@UKImageParam@@V?$allocator@UKImageParam@@@std@@@std@@QAEPAUKImageParam@@XZ 00405d80 f i TextPic.obj
 0001:00004da0       ?end@?$vector@UKImageParam@@V?$allocator@UKImageParam@@@std@@@std@@QAEPAUKImageParam@@XZ 00405da0 f i TextPic.obj
 0001:00004dc0       ?insert@?$vector@UKImageParam@@V?$allocator@UKImageParam@@@std@@@std@@QAEPAUKImageParam@@PAU3@ABU3@@Z 00405dc0 f i TextPic.obj
 0001:00004e10       ?_Destroy@?$vector@UKImageParam@@V?$allocator@UKImageParam@@@std@@@std@@IAEXPAUKImageParam@@0@Z 00405e10 f i TextPic.obj
 0001:00004e40       ?deallocate@?$allocator@UKImageParam@@@std@@QAEXPAXI@Z 00405e40 f i TextPic.obj
 0001:00004e60       ?insert@?$vector@UKUiImageRef@@V?$allocator@UKUiImageRef@@@std@@@std@@QAEXPAUKUiImageRef@@IABU3@@Z 00405e60 f i TextPic.obj
 0001:000050c0       ?destroy@?$allocator@UKUiImageRef@@@std@@QAEXPAUKUiImageRef@@@Z 004060c0 f i TextPic.obj
 0001:000050e0       ?insert@?$vector@UKImageParam@@V?$allocator@UKImageParam@@@std@@@std@@QAEXPAUKImageParam@@IABU3@@Z 004060e0 f i TextPic.obj
 0001:00005320       ?destroy@?$allocator@UKImageParam@@@std@@QAEXPAUKImageParam@@@Z 00406320 f i TextPic.obj
 0001:00005340       ?_Ucopy@?$vector@UKUiImageRef@@V?$allocator@UKUiImageRef@@@std@@@std@@IAEPAUKUiImageRef@@PBU3@0PAU3@@Z 00406340 f i TextPic.obj
 0001:00005390       ?_Ufill@?$vector@UKUiImageRef@@V?$allocator@UKUiImageRef@@@std@@@std@@IAEXPAUKUiImageRef@@IABU3@@Z 00406390 f i TextPic.obj
 0001:000053d0       ?allocate@?$allocator@UKUiImageRef@@@std@@QAEPAUKUiImageRef@@IPBX@Z 004063d0 f i TextPic.obj
 0001:000053f0       ?size@?$vector@UKImageParam@@V?$allocator@UKImageParam@@@std@@@std@@QBEIXZ 004063f0 f i TextPic.obj
 0001:00005430       ?_Ucopy@?$vector@UKImageParam@@V?$allocator@UKImageParam@@@std@@@std@@IAEPAUKImageParam@@PBU3@0PAU3@@Z 00406430 f i TextPic.obj
 0001:00005470       ?_Ufill@?$vector@UKImageParam@@V?$allocator@UKImageParam@@@std@@@std@@IAEXPAUKImageParam@@IABU3@@Z 00406470 f i TextPic.obj
 0001:000054b0       ?allocate@?$allocator@UKImageParam@@@std@@QAEPAUKImageParam@@IPBX@Z 004064b0 f i TextPic.obj
 0001:000054d0       ?construct@?$allocator@UKUiImageRef@@@std@@QAEXPAUKUiImageRef@@ABU3@@Z 004064d0 f i TextPic.obj
 0001:000054f0       ?construct@?$allocator@UKImageParam@@@std@@QAEXPAUKImageParam@@ABU3@@Z 004064f0 f i TextPic.obj
 0001:00005510       ?fill@std@@YAXPAUKUiImageRef@@0ABU2@@Z 00406510 f i TextPic.obj
 0001:00005540       ?copy_backward@std@@YAPAUKUiImageRef@@PAU2@00@Z 00406540 f i TextPic.obj
 0001:00005580       ?_Destroy@std@@YAXPAUKUiImageRef@@@Z 00406580 f i TextPic.obj
 0001:00005590       ?fill@std@@YAXPAUKImageParam@@0ABU2@@Z 00406590 f i TextPic.obj
 0001:000055d0       ?copy_backward@std@@YAPAUKImageParam@@PAU2@00@Z 004065d0 f i TextPic.obj
 0001:00005620       ?_Destroy@std@@YAXPAUKImageParam@@@Z 00406620 f i TextPic.obj
 0001:00005630       ?_Allocate@std@@YAPAUKUiImageRef@@HPAU2@@Z 00406630 f i TextPic.obj
 0001:00005660       ?_Allocate@std@@YAPAUKImageParam@@HPAU2@@Z 00406660 f i TextPic.obj
 0001:00005690       ?_Construct@std@@YAXPAUKUiImageRef@@ABU2@@Z 00406690 f i TextPic.obj
 0001:000056e0       ??2@YAPAXIPAX@Z            004066e0 f i TextPic.obj
 0001:000056f0       ?_Construct@std@@YAXPAUKImageParam@@ABU2@@Z 004066f0 f i TextPic.obj
 0001:00005740       ??0KUiCursor@@QAE@XZ       00406740 f   UiCursor.obj
 0001:0000579f       ?Cleanup@KUiCursor@@QAEXXZ 0040679f f   UiCursor.obj
 0001:000057e8       ??1KUiCursor@@QAE@XZ       004067e8 f   UiCursor.obj
 0001:000057fb       ?SetPosition@KUiCursor@@QAEXHH@Z 004067fb f   UiCursor.obj
 0001:0000581a       ?GetPosition@KUiCursor@@QAEXAAH0@Z 0040681a f   UiCursor.obj
 0001:0000583d       ?KUiLoadCursor@@YAHPBDAAPAUHICON__@@@Z 0040683d f   UiCursor.obj
 0001:00005b27       ?SetImage@KUiCursor@@QAEXHPBD@Z 00406b27 f   UiCursor.obj
 0001:00005b7c       ?SwitchImage@KUiCursor@@QAEHH@Z 00406b7c f   UiCursor.obj
 0001:00005bf4       ?RestoreCursor@KUiCursor@@QAEXXZ 00406bf4 f   UiCursor.obj
 0001:00005c0e       ?Paint@KUiCursor@@QAEXXZ   00406c0e f   UiCursor.obj
 0001:00005c19       ?Show@KUiCursor@@QAEXH@Z   00406c19 f   UiCursor.obj
 0001:00005c40       ?IR_GetCurrentTime@@YAIXZ  00406c40 f   UiImage.obj
 0001:00005c4a       ?IR_UpdateTime@@YAXXZ      00406c4a f   UiImage.obj
 0001:00005c5a       ?IR_InitUiImageRef@@YAXAAUKUiImageRef@@@Z 00406c5a f   UiImage.obj
 0001:00005c79       ?IR_InitUiImagePartRef@@YAXAAUKUiImagePartRef@@@Z 00406c79 f   UiImage.obj
 0001:00005c98       ?IR_IsTimePassed@@YAHIAAI@Z 00406c98 f   UiImage.obj
 0001:00005cc3       ?IR_GetRemainTime@@YAIII@Z 00406cc3 f   UiImage.obj
 0001:00005ce8       ?IR_NextFrame@@YAHAAUKUiImageRef@@_N@Z 00406ce8 f   UiImage.obj
 0001:00005e79       ?IR_UpdateImagePart@@YAXAAUKUiImagePartRef@@HH@Z 00406e79 f   UiImage.obj
 0001:00006159       ?IR_DrawImage@@YAXPAUKUiImageRef@@@Z 00407159 f   UiImage.obj
 0001:00006182       ?IR_DrawImagePart@@YAXPAUKUiImagePartRef@@@Z 00407182 f   UiImage.obj
 0001:000061ab       ?IR_GetSpritePixcelAlpha@@YAHAAUKUiImageRef@@HH@Z 004071ab f   UiImage.obj
 0001:000061f0       ?IR_GetReferenceSpot@@YAXAAUKUiImageRef@@AAH1@Z 004071f0 f   UiImage.obj
 0001:00006260       ?get_VS_ColorRGB@@YAPAHPAH0HH@Z 00407260 f   WndBorder.obj
 0001:0000633e       ?_DrawBorder@@YAXPAUKRUPoint@@HAAHAAEHHHHH@Z 0040733e f   WndBorder.obj
 0001:0000671a       ?DrawBorder@@YAXAAE0AAH00HHHHH@Z 0040771a f   WndBorder.obj
 0001:00006a50       ?SetAllButtonTipTextColor@KWndButton@@SAXI@Z 00407a50 f   WndButton.obj
 0001:00006a5d       ?EnableAllButtonTip@KWndButton@@SAXH@Z 00407a5d f   WndButton.obj
 0001:00006a70       ??0KWndButton@@QAE@XZ      00407a70 f   WndButton.obj
 0001:00006af8       ?Clone@KWndButton@@QAEXPAV1@@Z 00407af8 f   WndButton.obj
 0001:00006bde       ?Init@KWndButton@@UAEHPAVKIniFile@@PBD@Z 00407bde f   WndButton.obj
 0001:00006f05       ?IsButtonChecked@KWndButton@@QAEHXZ 00407f05 f   WndButton.obj
 0001:00006f2f       ?CheckButton@KWndButton@@QAEXH@Z 00407f2f f   WndButton.obj
 0001:00006f99       ?IsButtonActive@KWndButton@@QAEHXZ 00407f99 f   WndButton.obj
 0001:00006fb7       ?WndProc@KWndButton@@UAEHIIH@Z 00407fb7 f   WndButton.obj
 0001:00007509       ?GetToolTipInfo@KWndButton@@UAEHPADH@Z 00408509 f   WndButton.obj
 0001:000075dc       ?SetToolTipInfo@KWndButton@@QAEHPADH@Z 004085dc f   WndButton.obj
 0001:0000767b       ?PaintWindow@KWndButton@@UAEXXZ 0040867b f   WndButton.obj
 0001:000076db       ?OnLBtnDown@KWndButton@@AAEX_N@Z 004086db f   WndButton.obj
 0001:000078a6       ?OnRButtonDown@KWndButton@@AAEXXZ 004088a6 f   WndButton.obj
 0001:000078f2       ?OnLBtnUp@KWndButton@@AAEXXZ 004088f2 f   WndButton.obj
 0001:00007997       ?OnLBtnDownMove@KWndButton@@AAEXXZ 00408997 f   WndButton.obj
 0001:000079ec       ?Enable@KWndButton@@UAEXH@Z 004089ec f   WndButton.obj
 0001:00007a71       ??0KWndImageTextButton@@QAE@XZ 00408a71 f   WndButton.obj
 0001:00007afc       ?Init@KWndImageTextButton@@UAEHPAVKIniFile@@PBD@Z 00408afc f   WndButton.obj
 0001:00007c63       ?Set2IntText@KWndImageTextButton@@QAEXHHD@Z 00408c63 f   WndButton.obj
 0001:00007c8a       ?Set5IntText@KWndImageTextButton@@QAEXH@Z 00408c8a f   WndButton.obj
 0001:00007cab       ?Set6IntText@KWndImageTextButton@@QAEXHD@Z 00408cab f   WndButton.obj
 0001:00007cce       ?SetText@KWndImageTextButton@@QAEXPBDH@Z 00408cce f   WndButton.obj
 0001:00007cf1       ?GetText@KWndImageTextButton@@QAEHPADH@Z 00408cf1 f   WndButton.obj
 0001:00007d14       ?Set2IntValue@KWndImageTextButton@@QAEXHH@Z 00408d14 f   WndButton.obj
 0001:00007d5b       ?SetImage@KWndImageTextButton@@QAEXFPBD_N@Z 00408d5b f   WndButton.obj
 0001:00007db0       ?UpdateData@KWndWindow@@UAEXXZ 00408db0 f i WndButton.obj
 0001:00007dc0       ?CloseWindow@KWndWindow@@UAEH_N@Z 00408dc0 f i WndButton.obj
 0001:00007dd0       ?Breathe@KWndWindow@@EAEXXZ 00408dd0 f i WndButton.obj
 0001:00007de0       ?GetShortKey@KWndButton@@UAEPBDXZ 00408de0 f i WndButton.obj
 0001:00007df0       ?OnButtonClick@KWndButton@@UAEXXZ 00408df0 f i WndButton.obj
 0001:00007e00       ??_GKWndButton@@UAEPAXI@Z  00408e00 f i WndButton.obj
 0001:00007e00       ??_EKWndButton@@UAEPAXI@Z  00408e00 f i WndButton.obj
 0001:00007e30       ??1KWndButton@@UAE@XZ      00408e30 f i WndButton.obj
 0001:00007e50       ??1KWndImage@@UAE@XZ       00408e50 f i WndButton.obj
 0001:00007e70       ?IsDisable@KWndWindow@@QAEHXZ 00408e70 f i WndButton.obj
 0001:00007e90       ??_EKWndImageTextButton@@UAEPAXI@Z 00408e90 f i WndButton.obj
 0001:00007e90       ??_GKWndImageTextButton@@UAEPAXI@Z 00408e90 f i WndButton.obj
 0001:00007ec0       ??1KWndMovingImage@@UAE@XZ 00408ec0 f i WndButton.obj
 0001:00007ee0       ??1KWndImagePart@@UAE@XZ   00408ee0 f i WndButton.obj
 0001:00007f00       ??1KWndImageTextButton@@UAE@XZ 00408f00 f i WndButton.obj
 0001:00007f80       ??1KWndText32@@UAE@XZ      00408f80 f i WndButton.obj
 0001:00007fa0       ??1KWndText@@UAE@XZ        00408fa0 f i WndButton.obj
 0001:00008001       ?SetAllButtonTipTextColor@KWndEdit@@SAXI@Z 00409001 f   WndEdit.obj
 0001:0000800e       ?EnableAllButtonTip@KWndEdit@@SAXH@Z 0040900e f   WndEdit.obj
 0001:00008021       ??0KWndEdit@@QAE@XZ        00409021 f   WndEdit.obj
 0001:000080d9       ??1KWndEdit@@UAE@XZ        004090d9 f   WndEdit.obj
 0001:000080f5       ?Clone@KWndEdit@@QAEXPAV1@@Z 004090f5 f   WndEdit.obj
 0001:000081b3       ?Init@KWndEdit@@UAEHPAVKIniFile@@PBD@Z 004091b3 f   WndEdit.obj
 0001:0000856f       ?Enable@KWndEdit@@UAEXH@Z  0040956f f   WndEdit.obj
 0001:000085c1       ?WndProc@KWndEdit@@UAEHIIH@Z 004095c1 f   WndEdit.obj
 0001:00008c06       ?SetColor@KWndEdit@@QAEXI@Z 00409c06 f   WndEdit.obj
 0001:00008c1c       ?GetToolTipInfo@KWndEdit@@UAEHPADH@Z 00409c1c f   WndEdit.obj
 0001:00008cef       ?SetToolTipInfo@KWndEdit@@QAEHPADH@Z 00409cef f   WndEdit.obj
 0001:00008d8e       ?InsertString@KWndEdit@@QAEHPBDH@Z 00409d8e f   WndEdit.obj
 0001:00008e61       ?Copy@KWndEdit@@AAEHXZ     00409e61 f   WndEdit.obj
 0001:00008ee2       ?Paste@KWndEdit@@AAEHXZ    00409ee2 f   WndEdit.obj
 0001:00008f40       ?OnKeyDown@KWndEdit@@IAEHHH@Z 00409f40 f   WndEdit.obj
 0001:000094f1       ?InsertChar@KWndEdit@@IAEHH@Z 0040a4f1 f   WndEdit.obj
 0001:00009601       ?InsertChar@KWndEdit@@IAEHDD@Z 0040a601 f   WndEdit.obj
 0001:00009712       ?UpdateData@KWndEdit@@EAEXXZ 0040a712 f   WndEdit.obj
 0001:0000974a       ?FmtForShow@KWndEdit@@AAEXXZ 0040a74a f   WndEdit.obj
 0001:00009a7a       ?SplitStringLine@@YAHPADHH@Z 0040aa7a f   WndEdit.obj
 0001:00009aeb       ?PaintWindow@KWndEdit@@UAEXXZ 0040aaeb f   WndEdit.obj
 0001:00009ffa       ?SetTextPtr@KWndEdit@@IAEXPADH@Z 0040affa f   WndEdit.obj
 0001:0000a055       ?SetText@KWndEdit@@QAEXPBDH@Z 0040b055 f   WndEdit.obj
 0001:0000a106       ?Clear@KWndEdit@@QAEX_N@Z  0040b106 f   WndEdit.obj
 0001:0000a16a       ?SetIntText@KWndEdit@@QAEXH@Z 0040b16a f   WndEdit.obj
 0001:0000a19d       ?GetIntNumber@KWndEdit@@QAEKXZ 0040b19d f   WndEdit.obj
 0001:0000a1c5       ?GetText@KWndEdit@@QAEHPADH_N@Z 0040b1c5 f   WndEdit.obj
 0001:0000a29d       ?GetCaretPosition@KWndEdit@@QAEXPAH0@Z 0040b29d f   WndEdit.obj
 0001:0000a2e5       ??0KWndEdit80@@QAE@XZ      0040b2e5 f   WndEdit.obj
 0001:0000a358       ??0KWndEdit32@@QAE@XZ      0040b358 f   WndEdit.obj
 0001:0000a3cb       ??0KWndEdit512@@QAE@XZ     0040b3cb f   WndEdit.obj
 0001:0000a450       ?GetShortKey@KWndEdit@@UAEPBDXZ 0040b450 f i WndEdit.obj
 0001:0000a460       ?OnButtonClick@KWndEdit@@UAEXXZ 0040b460 f i WndEdit.obj
 0001:0000a470       ??_EKWndEdit@@UAEPAXI@Z    0040b470 f i WndEdit.obj
 0001:0000a470       ??_GKWndEdit@@UAEPAXI@Z    0040b470 f i WndEdit.obj
 0001:0000a4a0       ??_EKWndEdit80@@UAEPAXI@Z  0040b4a0 f i WndEdit.obj
 0001:0000a4a0       ??_GKWndEdit80@@UAEPAXI@Z  0040b4a0 f i WndEdit.obj
 0001:0000a4d0       ??1KWndEdit80@@UAE@XZ      0040b4d0 f i WndEdit.obj
 0001:0000a4f0       ??_EKWndEdit32@@UAEPAXI@Z  0040b4f0 f i WndEdit.obj
 0001:0000a4f0       ??_GKWndEdit32@@UAEPAXI@Z  0040b4f0 f i WndEdit.obj
 0001:0000a520       ??1KWndEdit32@@UAE@XZ      0040b520 f i WndEdit.obj
 0001:0000a540       ??_EKWndEdit512@@UAEPAXI@Z 0040b540 f i WndEdit.obj
 0001:0000a540       ??_GKWndEdit512@@UAEPAXI@Z 0040b540 f i WndEdit.obj
 0001:0000a570       ??1KWndEdit512@@UAE@XZ     0040b570 f i WndEdit.obj
 0001:0000a590       ??0KWndImage@@QAE@XZ       0040b590 f   WndImage.obj
 0001:0000a5fd       ?Clone@KWndImage@@QAEXPAV1@@Z 0040b5fd f   WndImage.obj
 0001:0000a64c       ?Init@KWndImage@@UAEHPAVKIniFile@@PBD@Z 0040b64c f   WndImage.obj
 0001:0000a89e       ?PtInWindow@KWndImage@@UAEHHH@Z 0040b89e f   WndImage.obj
 0001:0000a956       ?SetFrame@KWndImage@@QAEXH@Z 0040b956 f   WndImage.obj
 0001:0000a971       ?SetImage@KWndImage@@QAEXFPBD_N@Z 0040b971 f   WndImage.obj
 0001:0000aa43       ?GetImage@KWndImage@@QAEPADXZ 0040ba43 f   WndImage.obj
 0001:0000aa54       ?RemoveImage@KWndImage@@QAEXXZ 0040ba54 f   WndImage.obj
 0001:0000aa9d       ?UpdateTimer@KWndImage@@QAEXXZ 0040ba9d f   WndImage.obj
 0001:0000aab6       ?SetMaxFrame@KWndImage@@QAEXH@Z 0040bab6 f   WndImage.obj
 0001:0000aacf       ?GetMaxFrame@KWndImage@@QAEHXZ 0040bacf f   WndImage.obj
 0001:0000aae3       ?NextFrame@KWndImage@@QAEHXZ 0040bae3 f   WndImage.obj
 0001:0000aaff       ?PaintWindow@KWndImage@@UAEXXZ 0040baff f   WndImage.obj
 0001:0000ab60       ??_EKWndImage@@UAEPAXI@Z   0040bb60 f i WndImage.obj
 0001:0000ab60       ??_GKWndImage@@UAEPAXI@Z   0040bb60 f i WndImage.obj
 0001:0000ab90       ??0KWndImagePart@@QAE@XZ   0040bb90 f   WndImagePart.obj
 0001:0000abf8       ?Clone@KWndImagePart@@IAEXPAV1@@Z 0040bbf8 f   WndImagePart.obj
 0001:0000ac3a       ?Init@KWndImagePart@@UAEHPAVKIniFile@@PBD@Z 0040bc3a f   WndImagePart.obj
 0001:0000ad29       ?SetImage@KWndImagePart@@QAEXFPBD_N@Z 0040bd29 f   WndImagePart.obj
 0001:0000adc7       ?PaintWindow@KWndImagePart@@UAEXXZ 0040bdc7 f   WndImagePart.obj
 0001:0000ae22       ?SetPart@KWndImagePart@@QAEXHH@Z 0040be22 f   WndImagePart.obj
 0001:0000aea0       ??_EKWndImagePart@@UAEPAXI@Z 0040bea0 f i WndImagePart.obj
 0001:0000aea0       ??_GKWndImagePart@@UAEPAXI@Z 0040bea0 f i WndImagePart.obj
 0001:0000aed0       ??0KWndLabeledButton@@QAE@XZ 0040bed0 f   WndLabeledButton.obj
 0001:0000af9f       ?Clone@KWndLabeledButton@@QAEXPAV1@@Z 0040bf9f f   WndLabeledButton.obj
 0001:0000b080       ?Init@KWndLabeledButton@@UAEHPAVKIniFile@@PBD@Z 0040c080 f   WndLabeledButton.obj
 0001:0000b2a1       ?SetLabel@KWndLabeledButton@@QAEXPBD@Z 0040c2a1 f   WndLabeledButton.obj
 0001:0000b316       ?Set3IntLabel@KWndLabeledButton@@QAEXHD@Z 0040c316 f   WndLabeledButton.obj
 0001:0000b3d7       ?Enable@KWndLabeledButton@@UAEXH@Z 0040c3d7 f   WndLabeledButton.obj
 0001:0000b488       ?GetLabel@KWndLabeledButton@@QAEHPADH@Z 0040c488 f   WndLabeledButton.obj
 0001:0000b4f3       ?SetLabelColor@KWndLabeledButton@@QAEXI@Z 0040c4f3 f   WndLabeledButton.obj
 0001:0000b50c       ?SetLabelBorderColor@KWndLabeledButton@@QAEXI@Z 0040c50c f   WndLabeledButton.obj
 0001:0000b525       ?PaintWindow@KWndLabeledButton@@UAEXXZ 0040c525 f   WndLabeledButton.obj
 0001:0000b660       ??_GKWndLabeledButton@@UAEPAXI@Z 0040c660 f i WndLabeledButton.obj
 0001:0000b660       ??_EKWndLabeledButton@@UAEPAXI@Z 0040c660 f i WndLabeledButton.obj
 0001:0000b690       ??1KWndLabeledButton@@UAE@XZ 0040c690 f i WndLabeledButton.obj
 0001:0000b6b0       ??0KWndList@@QAE@XZ        0040c6b0 f   WndList.obj
 0001:0000b795       ?Clone@KWndList@@IAEXPAV1@@Z 0040c795 f   WndList.obj
 0001:0000b85f       ??1KWndList@@UAE@XZ        0040c85f f   WndList.obj
 0001:0000b8b2       ?SetScrollbar@KWndList@@QAEXPAVKWndScrollBar@@@Z 0040c8b2 f   WndList.obj
 0001:0000b940       ?Init@KWndList@@UAEHPAVKIniFile@@PBD@Z 0040c940 f   WndList.obj
 0001:0000bc85       ?EnableMultiSel@KWndList@@QAEXH@Z 0040cc85 f   WndList.obj
 0001:0000bdcd       ?SetCustomColorOffset@KWndList@@QAEXH@Z 0040cdcd f   WndList.obj
 0001:0000bdf5       ?WndProc@KWndList@@UAEHIIH@Z 0040cdf5 f   WndList.obj
 0001:0000bf7d       ?GetIemIndexAtPoint@KWndList@@AAEHHH@Z 0040cf7d f   WndList.obj
 0001:0000c016       ?OnLButtonDown@KWndList@@AAEXHH@Z 0040d016 f   WndList.obj
 0001:0000c131       ?IsItemSel@KWndList@@QAEHH@Z 0040d131 f   WndList.obj
 0001:0000c1a8       ?OnRButtonDown@KWndList@@AAEXHH@Z 0040d1a8 f   WndList.obj
 0001:0000c1f7       ?OnLButtonDClick@KWndList@@AAEXHH@Z 0040d1f7 f   WndList.obj
 0001:0000c246       ?SetCurSel@KWndList@@QAEHH@Z 0040d246 f   WndList.obj
 0001:0000c347       ?UpdateData@KWndList@@EAEXXZ 0040d347 f   WndList.obj
 0001:0000c3db       ?OnMouseMove@KWndList@@AAEXHH@Z 0040d3db f   WndList.obj
 0001:0000c43b       ?PaintWindow@KWndList@@UAEXXZ 0040d43b f   WndList.obj
 0001:0000c888       ?SetContent@KWndList@@QAEXPAEHHH@Z 0040d888 f   WndList.obj
 0001:0000c9ee       ?FindString@KWndList@@QAEHHPBD@Z 0040d9ee f   WndList.obj
 0001:0000ca5b       ?GetItemDataInt@KWndList@@QAEHHH@Z 0040da5b f   WndList.obj
 0001:0000caa7       ?GetString@KWndList@@QAEXHPAD@Z 0040daa7 f   WndList.obj
 0001:0000caf8       ?GetStrignLen@KWndList@@QAEHH@Z 0040daf8 f   WndList.obj
 0001:0000cb3b       ?SetTopItemIndex@KWndList@@QAEXH@Z 0040db3b f   WndList.obj
 0001:0000cb62       ?GetVisibleItemCount@KWndList@@QBEHXZ 0040db62 f   WndList.obj
 0001:0000cb90       ??_EKWndList@@UAEPAXI@Z    0040db90 f i WndList.obj
 0001:0000cb90       ??_GKWndList@@UAEPAXI@Z    0040db90 f i WndList.obj
 0001:0000cbc0       ?GetStyle@KWndWindow@@QAEHXZ 0040dbc0 f i WndList.obj
 0001:0000cbe0       ?SetStyle@KWndWindow@@QAEHI@Z 0040dbe0 f i WndList.obj
 0001:0000cc00       ?GetScrollPos@KWndScrollBar@@QAEHXZ 0040dc00 f i WndList.obj
 0001:0000cc20       ?SetAllButtonTipTextColor@KWndList2@@SAXI@Z 0040dc20 f   WndList2.obj
 0001:0000cc2d       ?EnableAllButtonTip@KWndList2@@SAXH@Z 0040dc2d f   WndList2.obj
 0001:0000cc40       ??0KWndList2@@QAE@XZ       0040dc40 f   WndList2.obj
 0001:0000cd08       ??1KWndList2@@UAE@XZ       0040dd08 f   WndList2.obj
 0001:0000cd59       ?Clone@KWndList2@@IAEXPAV1@@Z 0040dd59 f   WndList2.obj
 0001:0000ce18       ?Init@KWndList2@@UAEHPAVKIniFile@@PBD@Z 0040de18 f   WndList2.obj
 0001:0000d0e2       ?SetScrollbar@KWndList2@@QAEXPAVKWndScrollBar@@@Z 0040e0e2 f   WndList2.obj
 0001:0000d198       ?WndProc@KWndList2@@UAEHIIH@Z 0040e198 f   WndList2.obj
 0001:0000d2ed       ?SetCurSel@KWndList2@@QAEHH@Z 0040e2ed f   WndList2.obj
 0001:0000d5b1       ?OnLButtonDown@KWndList2@@AAEXHH@Z 0040e5b1 f   WndList2.obj
 0001:0000d8f2       ?OnLButtonDClick@KWndList2@@AAEXHH@Z 0040e8f2 f   WndList2.obj
 0001:0000dafd       ?OnMouseMove@KWndList2@@AAEXHH@Z 0040eafd f   WndList2.obj
 0001:0000dd09       ?GetToolTipInfo@KWndList2@@UAEHHPADH@Z 0040ed09 f   WndList2.obj
 0001:0000dd87       ?SetToolTipInfo@KWndList2@@QAEHHPADH@Z 0040ed87 f   WndList2.obj
 0001:0000de52       ?AddString@KWndList2@@QAEHHPBD_N@Z 0040ee52 f   WndList2.obj
 0001:0000e0d8       ?DeleteString@KWndList2@@QAEHH@Z 0040f0d8 f   WndList2.obj
 0001:0000e265       ?ResetContent@KWndList2@@QAEXXZ 0040f265 f   WndList2.obj
 0001:0000e339       ?PaintWindow@KWndList2@@UAEXXZ 0040f339 f   WndList2.obj
 0001:0000eaaa       ?FindString@KWndList2@@QAEHPBD@Z 0040faaa f   WndList2.obj
 0001:0000eb2f       ?SetItemData@KWndList2@@QAEHHH@Z 0040fb2f f   WndList2.obj
 0001:0000eb65       ?GetCurCount@KWndList2@@QAEHXZ 0040fb65 f   WndList2.obj
 0001:0000ec19       ?GetItemData@KWndList2@@QAEHH@Z 0040fc19 f   WndList2.obj
 0001:0000ec4a       ?SetItemColor@KWndList2@@QAEHHI@Z 0040fc4a f   WndList2.obj
 0001:0000ec84       ?GetItemColor@KWndList2@@QAEIH@Z 0040fc84 f   WndList2.obj
 0001:0000ecb9       ?GetString@KWndList2@@QAEHHPADI@Z 0040fcb9 f   WndList2.obj
 0001:0000ed3a       ?SetTopItemIndex@KWndList2@@QAEXH@Z 0040fd3a f   WndList2.obj
 0001:0000ee0a       ?GetVisibleLineCount@KWndList2@@QBEHXZ 0040fe0a f   WndList2.obj
 0001:0000ee31       ?GetVisibleNodeCount@KWndList2@@QBEHH@Z 0040fe31 f   WndList2.obj
 0001:0000eee0       ?GetShortKey@KWndList2@@UAEPBDXZ 0040fee0 f i WndList2.obj
 0001:0000eef0       ??_GKWndList2@@UAEPAXI@Z   0040fef0 f i WndList2.obj
 0001:0000eef0       ??_EKWndList2@@UAEPAXI@Z   0040fef0 f i WndList2.obj
 0001:0000ef20       ??0KWndMessageListBox@@QAE@XZ 0040ff20 f   WndMessageListBox.obj
 0001:0000f002       ??1KWndMessageListBox@@UAE@XZ 00410002 f   WndMessageListBox.obj
 0001:0000f055       ?SetItemActived@KWndMessageListBox@@QAEXH@Z 00410055 f   WndMessageListBox.obj
 0001:0000f0e6       ?SetCapability@KWndMessageListBox@@QAEHH@Z 004100e6 f   WndMessageListBox.obj
 0001:0000f28b       ?SetScrollbar@KWndMessageListBox@@QAEXPAVKWndScrollBar@@@Z 0041028b f   WndMessageListBox.obj
 0001:0000f2b2       ?AddOneMessage@KWndMessageListBox@@QAEHPBDHIHPAUKItemBtn@@@Z 004102b2 f   WndMessageListBox.obj
 0001:0000f519       ?RemoveAMessage@KWndMessageListBox@@QAEXH@Z 00410519 f   WndMessageListBox.obj
 0001:0000f66c       ?Clear@KWndMessageListBox@@QAEXXZ 0041066c f   WndMessageListBox.obj
 0001:0000f6dd       ?Clone@KWndMessageListBox@@QAEXPAV1@@Z 004106dd f   WndMessageListBox.obj
 0001:0000f7c3       ?Init@KWndMessageListBox@@UAEHPAVKIniFile@@PBD@Z 004107c3 f   WndMessageListBox.obj
 0001:0000fc38       ?SetSize@KWndMessageListBox@@UAEXHH@Z 00410c38 f   WndMessageListBox.obj
 0001:0000fe1e       ?SetFontSize@KWndMessageListBox@@QAEXH@Z 00410e1e f   WndMessageListBox.obj
 0001:0000fe68       ?UpdateData@KWndMessageListBox@@EAEXXZ 00410e68 f   WndMessageListBox.obj
 0001:0000ffa5       ?GetFirstShowLine@KWndMessageListBox@@QAEHXZ 00410fa5 f   WndMessageListBox.obj
 0001:0000fff5       ?SetFirstShowLine@KWndMessageListBox@@QAEXH@Z 00410ff5 f   WndMessageListBox.obj
 0001:0001015a       ?GetItemLineCount@KWndMessageListBox@@QAEHH@Z 0041115a f   WndMessageListBox.obj
 0001:000101bf       ?PaintWindow@KWndMessageListBox@@EAEXXZ 004111bf f   WndMessageListBox.obj
 0001:0001069d       ?WndProc@KWndMessageListBox@@EAEHIIH@Z 0041169d f   WndMessageListBox.obj
 0001:00010815       ?GetMsgAtPoint@KWndMessageListBox@@AAEHHH@Z 00411815 f   WndMessageListBox.obj
 0001:00010916       ?HitTextAtPoint@KWndMessageListBox@@QAEHHH@Z 00411916 f   WndMessageListBox.obj
 0001:00010a51       ?OnLButtonDown@KWndMessageListBox@@AAEXHH@Z 00411a51 f   WndMessageListBox.obj
 0001:00010aaf       ?OnLButtonDClick@KWndMessageListBox@@AAEXHH@Z 00411aaf f   WndMessageListBox.obj
 0001:00010afe       ?SetCurSel@KWndMessageListBox@@QAEHH@Z 00411afe f   WndMessageListBox.obj
 0001:00010b57       ?OnMouseMove@KWndMessageListBox@@AAEXHH@Z 00411b57 f   WndMessageListBox.obj
 0001:00010bb7       ?GetOneMessage@KWndMessageListBox@@QAEHHPADH_N@Z 00411bb7 f   WndMessageListBox.obj
 0001:00010c69       ?GetOneMessageData@KWndMessageListBox@@QAEHH@Z 00411c69 f   WndMessageListBox.obj
 0001:00010cad       ?SplitData@KWndMessageListBox@@QAEIXZ 00411cad f   WndMessageListBox.obj
 0001:00010dca       ?BindData@KWndMessageListBox@@QAEII@Z 00411dca f   WndMessageListBox.obj
 0001:00010f7d       ?FreeData@KWndMessageListBox@@SAXI@Z 00411f7d f   WndMessageListBox.obj
 0001:00010fac       ?GetOffsetTextHeight@KWndMessageListBox@@AAEIXZ 00411fac f   WndMessageListBox.obj
 0001:00010ff1       ?PtInWindow@KWndMessageListBox@@UAEHHH@Z 00411ff1 f   WndMessageListBox.obj
 0001:00011039       ?ClearHideLine@KWndMessageListBox@@QAEXXZ 00412039 f   WndMessageListBox.obj
 0001:0001104e       ?HideNextLine@KWndMessageListBox@@QAEXXZ 0041204e f   WndMessageListBox.obj
 0001:00011133       ?HideAllLine@KWndMessageListBox@@QAEXXZ 00412133 f   WndMessageListBox.obj
 0001:0001114a       ?GetMinHeight@KWndMessageListBox@@QAEHXZ 0041214a f   WndMessageListBox.obj
 0001:0001117c       ??0KScrollMessageListBox@@QAE@XZ 0041217c f   WndMessageListBox.obj
 0001:0001123d       ?Init@KScrollMessageListBox@@UAEHPAVKIniFile@@PBD@Z 0041223d f   WndMessageListBox.obj
 0001:000113c0       ?WndProc@KScrollMessageListBox@@UAEHIIH@Z 004123c0 f   WndMessageListBox.obj
 0001:0001156a       ?InitMinMaxLineCount@KScrollMessageListBox@@IAEXHH@Z 0041256a f   WndMessageListBox.obj
 0001:000115d1       ?HeightToLineHeight@KScrollMessageListBox@@QAEHH@Z 004125d1 f   WndMessageListBox.obj
 0001:00011605       ?WidthToCharWidth@KScrollMessageListBox@@QAEHH@Z 00412605 f   WndMessageListBox.obj
 0001:00011639       ?GetMinHeight@KScrollMessageListBox@@QAEHXZ 00412639 f   WndMessageListBox.obj
 0001:0001168b       ?MsgListBox_LoadContent@@YA_NPAVKWndMessageListBox@@PAVKIniFile@@PBD@Z 0041268b f   WndMessageListBox.obj
 0001:000117f0       ??_EKWndMessageListBox@@UAEPAXI@Z 004127f0 f i WndMessageListBox.obj
 0001:000117f0       ??_GKWndMessageListBox@@UAEPAXI@Z 004127f0 f i WndMessageListBox.obj
 0001:00011820       ?Release@KItemBtn@@QAEXXZ  00412820 f i WndMessageListBox.obj
 0001:00011870       ??_EKScrollMessageListBox@@UAEPAXI@Z 00412870 f i WndMessageListBox.obj
 0001:00011870       ??_GKScrollMessageListBox@@UAEPAXI@Z 00412870 f i WndMessageListBox.obj
 0001:000118a0       ??1KWndScrollBar@@UAE@XZ   004128a0 f i WndMessageListBox.obj
 0001:000118f0       ??1KScrollMessageListBox@@UAE@XZ 004128f0 f i WndMessageListBox.obj
 0001:00011950       ?GetMaxShowLine@KWndMessageListBox@@QAEHXZ 00412950 f i WndMessageListBox.obj
 0001:00011970       ??0KWndMovingImage@@QAE@XZ 00412970 f   WndMovingImage.obj
 0001:000119c3       ?Clone@KWndMovingImage@@IAEXPAV1@@Z 004129c3 f   WndMovingImage.obj
 0001:00011a3a       ?Init@KWndMovingImage@@UAEHPAVKIniFile@@PBD@Z 00412a3a f   WndMovingImage.obj
 0001:00011b21       ?SetMoveValue@KWndMovingImage@@QAEXHH@Z 00412b21 f   WndMovingImage.obj
 0001:00011c00       ??_GKWndMovingImage@@UAEPAXI@Z 00412c00 f i WndMovingImage.obj
 0001:00011c00       ??_EKWndMovingImage@@UAEPAXI@Z 00412c00 f i WndMovingImage.obj
 0001:00011c30       ?WndObjContainerInit@@YAXPAVKIniFile@@@Z 00412c30 f   WndObjContainer.obj
 0001:00011dd5       ??0KWndObjectBox@@QAE@XZ   00412dd5 f   WndObjContainer.obj
 0001:00011e4c       ?SetContainerId@KWndObjectBox@@QAEXH@Z 00412e4c f   WndObjContainer.obj
 0001:00011e62       ?SetObjectGenre@KWndObjectBox@@QAEXI@Z 00412e62 f   WndObjContainer.obj
 0001:00011e78       ?Celar@KWndObjectBox@@QAEXXZ 00412e78 f   WndObjContainer.obj
 0001:00011e8d       ?GetObjectA@KWndObjectBox@@QBEHAAUKUiDraggedObject@@@Z 00412e8d f   WndObjContainer.obj
 0001:00011eca       ?HoldObject@KWndObjectBox@@QAEXIIHH@Z 00412eca f   WndObjContainer.obj
 0001:00011f63       ?PaintWindow@KWndObjectBox@@MAEXXZ 00412f63 f   WndObjContainer.obj
 0001:0001222d       ?Clone@KWndObjectBox@@QAEXPAV1@@Z 0041322d f   WndObjContainer.obj
 0001:00012258       ?Init@KWndObjectBox@@UAEHPAVKIniFile@@PBD@Z 00413258 f   WndObjContainer.obj
 0001:00012304       ?EnablePickPut@KWndObjectBox@@QAEX_N@Z 00413304 f   WndObjContainer.obj
 0001:0001233d       ?EnableMouseHover@KWndObjectBox@@QAEX_N@Z 0041333d f   WndObjContainer.obj
 0001:00012376       ?WndProc@KWndObjectBox@@MAEHIIH@Z 00413376 f   WndObjContainer.obj
 0001:0001262b       ?DropObject@KWndObjectBox@@IAEH_N@Z 0041362b f   WndObjContainer.obj
 0001:0001271b       ??0KWndObjectMatrix@@QAE@XZ 0041371b f   WndObjContainer.obj
 0001:00012794       ?SetContainerId@KWndObjectMatrix@@QAEXH@Z 00413794 f   WndObjContainer.obj
 0001:000127aa       ??1KWndObjectMatrix@@UAE@XZ 004137aa f   WndObjContainer.obj
 0001:000127fb       ?Clone@KWndObjectMatrix@@IAEXPAV1@@Z 004137fb f   WndObjContainer.obj
 0001:0001284a       ?Init@KWndObjectMatrix@@UAEHPAVKIniFile@@PBD@Z 0041384a f   WndObjContainer.obj
 0001:00012a12       ?PaintWindow@KWndObjectMatrix@@EAEXXZ 00413a12 f   WndObjContainer.obj
 0001:00012ede       ?AddObject@KWndObjectMatrix@@QAEHPAUKUiDraggedObject@@H@Z 00413ede f   WndObjContainer.obj
 0001:0001305f       ?RemoveObject@KWndObjectMatrix@@QAEHPAUKUiDraggedObject@@@Z 0041405f f   WndObjContainer.obj
 0001:0001315d       ?GetObjectA@KWndObjectMatrix@@QBEHAAUKUiDraggedObject@@HH@Z 0041415d f   WndObjContainer.obj
 0001:000131cc       ?Clear@KWndObjectMatrix@@QAEXXZ 004141cc f   WndObjContainer.obj
 0001:0001320e       ?WndProc@KWndObjectMatrix@@EAEHIIH@Z 0041420e f   WndObjContainer.obj
 0001:0001359d       ?GetObjectAt@KWndObjectMatrix@@AAEHHH@Z 0041459d f   WndObjContainer.obj
 0001:00013646       ?PickUpObjectAt@KWndObjectMatrix@@AAEHHH@Z 00414646 f   WndObjContainer.obj
 0001:000136c6       ?DropObject@KWndObjectMatrix@@AAEHHH_N@Z 004146c6 f   WndObjContainer.obj
 0001:00013956       ?TryDropObjAtPos@KWndObjectMatrix@@AAEHABUtagRECT@@AAPAUKUiDraggedObject@@@Z 00414956 f   WndObjContainer.obj
 0001:00013a05       ?DropObject@KWndObjectMatrix@@AAEXHHPAUKUiDraggedObject@@@Z 00414a05 f   WndObjContainer.obj
 0001:00013a8e       ?EnableTracePutPos@KWndObjectMatrix@@QAEX_N@Z 00414a8e f   WndObjContainer.obj
 0001:00013ac7       ?EnablePickPut@KWndObjectMatrix@@QAEX_N@Z 00414ac7 f   WndObjContainer.obj
 0001:00013b00       ?EnableMouseHover@KWndObjectMatrix@@QAEX_N@Z 00414b00 f   WndObjContainer.obj
 0001:00013b39       ?GetObjectById@KWndObjectMatrix@@QAEXAAUKUiDraggedObject@@H@Z 00414b39 f   WndObjContainer.obj
 0001:00013b6a       ?GetObjectNum@KWndObjectMatrix@@QAEHXZ 00414b6a f   WndObjContainer.obj
 0001:00013b7b       ?GetObjectByIndex@KWndObjectMatrix@@QAEPAUKUiDraggedObject@@H@Z 00414b7b f   WndObjContainer.obj
 0001:00013bb0       ??_GKWndObjectBox@@UAEPAXI@Z 00414bb0 f i WndObjContainer.obj
 0001:00013bb0       ??_EKWndObjectBox@@UAEPAXI@Z 00414bb0 f i WndObjContainer.obj
 0001:00013be0       ??1KWndObjectBox@@UAE@XZ   00414be0 f i WndObjContainer.obj
 0001:00013c00       ??_EKWndObjectMatrix@@UAEPAXI@Z 00414c00 f i WndObjContainer.obj
 0001:00013c00       ??_GKWndObjectMatrix@@UAEPAXI@Z 00414c00 f i WndObjContainer.obj
 0001:00013c30       ?WndProc@KWndPage@@UAEHIIH@Z 00414c30 f   WndPage.obj
 0001:00013c9d       ??0KWndPageSet@@QAE@XZ     00414c9d f   WndPage.obj
 0001:00013ce3       ??1KWndPageSet@@UAE@XZ     00414ce3 f   WndPage.obj
 0001:00013d38       ?WndProc@KWndPageSet@@UAEHIIH@Z 00414d38 f   WndPage.obj
 0001:00013d72       ?AddPage@KWndPageSet@@QAE_NPAVKWndPage@@PAVKWndButton@@@Z 00414d72 f   WndPage.obj
 0001:00013e72       ?ActivePage@KWndPageSet@@QAE_NH@Z 00414e72 f   WndPage.obj
 0001:00013f9c       ?OnPageBtnClick@KWndPageSet@@AAEXPAVKWndWindow@@@Z 00414f9c f   WndPage.obj
 0001:00014055       ?GetActivePage@KWndPageSet@@QAEPAVKWndPage@@XZ 00415055 f   WndPage.obj
 0001:00014090       ??_GKWndPageSet@@UAEPAXI@Z 00415090 f i WndPage.obj
 0001:00014090       ??_EKWndPageSet@@UAEPAXI@Z 00415090 f i WndPage.obj
 0001:000140c0       ??1KWndShowAnimate@@UAE@XZ 004150c0 f i WndPage.obj
 0001:000140e0       ??0KWndPureTextBtn@@QAE@XZ 004150e0 f   WndPureTextBtn.obj
 0001:000141bd       ?Clone@KWndPureTextBtn@@QAEXPAV1@@Z 004151bd f   WndPureTextBtn.obj
 0001:0001425e       ?Init@KWndPureTextBtn@@UAEHPAVKIniFile@@PBD@Z 0041525e f   WndPureTextBtn.obj
 0001:00014574       ?AdjustPosition@KWndPureTextBtn@@AAEXXZ 00415574 f   WndPureTextBtn.obj
 0001:000145e7       ?PaintWindow@KWndPureTextBtn@@UAEXXZ 004155e7 f   WndPureTextBtn.obj
 0001:0001471a       ?SetText@KWndPureTextBtn@@QAEXPBDH@Z 0041571a f   WndPureTextBtn.obj
 0001:00014795       ?GetTextLen@KWndPureTextBtn@@QAEHXZ 00415795 f   WndPureTextBtn.obj
 0001:000147c2       ?CheckButton@KWndPureTextBtn@@QAEXH@Z 004157c2 f   WndPureTextBtn.obj
 0001:000147f5       ?WndProc@KWndPureTextBtn@@UAEHIIH@Z 004157f5 f   WndPureTextBtn.obj
 0001:00014add       ?GetToolTipInfo@KWndPureTextBtn@@UAEHPADH@Z 00415add f   WndPureTextBtn.obj
 0001:00014bb0       ?SetToolTipInfo@KWndPureTextBtn@@QAEHPADH@Z 00415bb0 f   WndPureTextBtn.obj
 0001:00014c4f       ?IsChecked@KWndPureTextBtn@@QAEHXZ 00415c4f f   WndPureTextBtn.obj
 0001:00014c70       ?Set3IntText@KWndPureTextBtn@@QAEXHHDPAD@Z 00415c70 f   WndPureTextBtn.obj
 0001:00014cc0       ?GetShortKey@KWndPureTextBtn@@UAEPBDXZ 00415cc0 f i WndPureTextBtn.obj
 0001:00014cd0       ??_EKWndPureTextBtn@@UAEPAXI@Z 00415cd0 f i WndPureTextBtn.obj
 0001:00014cd0       ??_GKWndPureTextBtn@@UAEPAXI@Z 00415cd0 f i WndPureTextBtn.obj
 0001:00014d00       ??1KWndPureTextBtn@@UAE@XZ 00415d00 f i WndPureTextBtn.obj
 0001:00014d5f       ?Wnd_Cleanup@@YAXXZ        00415d5f f   Wnds.obj
 0001:00014dcd       ?Wnd_RenderWindows@@YAXXZ  00415dcd f   Wnds.obj
 0001:00014eac       ?Wnd_Heartbeat@@YAXXZ      00415eac f   Wnds.obj
 0001:00014ee3       ?Wnd_AddWindow@@YAXPAVKWndWindow@@W4WND_LAYER_LIST@@@Z 00415ee3 f   Wnds.obj
 0001:00014f22       ?Wnd_SetGameSpaceWnd@@YAXPAVKWndWindow@@@Z 00415f22 f   Wnds.obj
 0001:00014f2f       ?Wnd_GameSpaceHandleInput@@YAX_N@Z 00415f2f f   Wnds.obj
 0001:00014f46       ?Wnd_ShowHideGameSpace@@YAX_N@Z 00415f46 f   Wnds.obj
 0001:00014f53       ?Wnd_OnWindowDelete@@YAXPAVKWndWindow@@@Z 00415f53 f   Wnds.obj
 0001:0001504a       ?Wnd_DragBegin@@YAHPBUKUiDraggedObject@@P6AHHHABU1@H@Z@Z 0041604a f   Wnds.obj
 0001:00015095       ?Wnd_GetDragObj@@YAHPAUKUiDraggedObject@@@Z 00416095 f   Wnds.obj
 0001:000150d3       ?Wnd_DragFinished@@YAXXZ   004160d3 f   Wnds.obj
 0001:000150e2       ?Wnd_ProcessInput@@YAXIIH@Z 004160e2 f   Wnds.obj
 0001:00015775       ?Wnd_TransmitInputToGameSpace@@YAXIIH@Z 00416775 f   Wnds.obj
 0001:0001586a       ?Wnd_ShowCursor@@YAXH@Z    0041686a f   Wnds.obj
 0001:0001587d       ?Wnd_SetCursorPos@@YAXHH@Z 0041687d f   Wnds.obj
 0001:000158ca       ?Wnd_GetCursorPos@@YAXPAH0@Z 004168ca f   Wnds.obj
 0001:00015902       ?Wnd_GetCursorPos@@YAXHHPAH0@Z 00416902 f   Wnds.obj
 0001:00015907       ?Wnd_GetFocusWnd@@YAPAVKWndWindow@@XZ 00416907 f   Wnds.obj
 0001:00015911       ?Wnd_SetFocusWnd@@YAXPAVKWndWindow@@@Z 00416911 f   Wnds.obj
 0001:0001596d       ?Wnd_SetCapture@@YAXPAVKWndWindow@@@Z 0041696d f   Wnds.obj
 0001:0001598a       ?Wnd_ReleaseCapture@@YAXXZ 0041698a f   Wnds.obj
 0001:000159bb       ?Wnd_SetExclusive@@YAXPAVKWndWindow@@@Z 004169bb f   Wnds.obj
 0001:00015a88       ?Wnd_ReleaseExclusive@@YAXPAVKWndWindow@@@Z 00416a88 f   Wnds.obj
 0001:00015af8       ?Wnd_LoadCursor@@YAXHPBD@Z 00416af8 f   Wnds.obj
 0001:00015b0f       ?Wnd_SwitchCursor@@YAHH@Z  00416b0f f   Wnds.obj
 0001:00015b22       ?Wnd_SetScreenSize@@YAXHH@Z 00416b22 f   Wnds.obj
 0001:00015b38       ?Wnd_GetScreenSize@@YAXAAH0@Z 00416b38 f   Wnds.obj
 0001:00015b52       ?Wnd_RestoreCursor@@YAXXZ  00416b52 f   Wnds.obj
 0001:00015b70       ??0KWndStation@@QAE@XZ     00416b70 f i Wnds.obj
 0001:00015ce0       ??1KWndStation@@QAE@XZ     00416ce0 f i Wnds.obj
 0001:00015d50       ?GetNextWnd@KWndWindow@@QBEPAV1@XZ 00416d50 f i Wnds.obj
 0001:00015d70       ?GetParent@KWndWindow@@QBEPAV1@XZ 00416d70 f i Wnds.obj
 0001:00015d90       ?GetPreWnd@KWndWindow@@QBEPAV1@XZ 00416d90 f i Wnds.obj
 0001:00015db0       ??0KWndScrollBar@@QAE@XZ   00416db0 f   WndScrollBar.obj
 0001:00015e87       ?Clone@KWndScrollBar@@QAEXPAV1@@Z 00416e87 f   WndScrollBar.obj
 0001:00015f6a       ?Init@KWndScrollBar@@UAEHPAVKIniFile@@PBD@Z 00416f6a f   WndScrollBar.obj
 0001:000161a1       ?SetSize@KWndScrollBar@@UAEXHH@Z 004171a1 f   WndScrollBar.obj
 0001:00016238       ?WndProc@KWndScrollBar@@UAEHIIH@Z 00417238 f   WndScrollBar.obj
 0001:000163c7       ?PaintWindow@KWndScrollBar@@UAEXXZ 004173c7 f   WndScrollBar.obj
 0001:000164a9       ?SetValueRange@KWndScrollBar@@QAEXHH@Z 004174a9 f   WndScrollBar.obj
 0001:000164e8       ?SetScrollPos@KWndScrollBar@@QAEXH@Z 004174e8 f   WndScrollBar.obj
 0001:0001658a       ?SetSlideBtnPos@KWndScrollBar@@AAEXXZ 0041758a f   WndScrollBar.obj
 0001:00016695       ?OnLButtonDown@KWndScrollBar@@AAEXHH@Z 00417695 f   WndScrollBar.obj
 0001:00016776       ?ScrollLine@KWndScrollBar@@QAEH_N@Z 00417776 f   WndScrollBar.obj
 0001:000167b9       ?ScrollPage@KWndScrollBar@@QAEH_N@Z 004177b9 f   WndScrollBar.obj
 0001:00016814       ?OnSlideBtnPressed@KWndScrollBar@@AAEXXZ 00417814 f   WndScrollBar.obj
 0001:00016840       ?OnDraggingSlide@KWndScrollBar@@AAEXHH@Z 00417840 f   WndScrollBar.obj
 0001:0001691c       ?GetMinHeight@KWndScrollBar@@QAEHXZ 0041791c f   WndScrollBar.obj
 0001:00016990       ??_EKWndScrollBar@@UAEPAXI@Z 00417990 f i WndScrollBar.obj
 0001:00016990       ??_GKWndScrollBar@@UAEPAXI@Z 00417990 f i WndScrollBar.obj
 0001:000169c0       ?Clone@KWndShadow@@QAEXPAV1@@Z 004179c0 f   WndShadow.obj
 0001:000169eb       ?Init@KWndShadow@@UAEHPAVKIniFile@@PBD@Z 004179eb f   WndShadow.obj
 0001:00016aab       ?PaintWindow@KWndShadow@@MAEXXZ 00417aab f   WndShadow.obj
 0001:00016b26       ?PtInWindow@KWndShadow@@UAEHHH@Z 00417b26 f   WndShadow.obj
 0001:00016b35       ?SetColor@KWndShadow@@QAEXI@Z 00417b35 f   WndShadow.obj
 0001:00016b50       ??0KWndShowAnimate@@QAE@XZ 00417b50 f   WndShowAnimate.obj
 0001:00016b89       ?Clone@KWndShowAnimate@@QAEXPAV1@@Z 00417b89 f   WndShowAnimate.obj
 0001:00016be4       ?Init@KWndShowAnimate@@UAEHPAVKIniFile@@PBD@Z 00417be4 f   WndShowAnimate.obj
 0001:00016cc0       ?Show@KWndShowAnimate@@UAEXXZ 00417cc0 f   WndShowAnimate.obj
 0001:00016d8a       ?Hide@KWndShowAnimate@@UAEXXZ 00417d8a f   WndShowAnimate.obj
 0001:00016e39       ?SetMoveSpeed@KWndShowAnimate@@SAXHH@Z 00417e39 f   WndShowAnimate.obj
 0001:00016e84       ?SetInterval@KWndShowAnimate@@SAXI@Z 00417e84 f   WndShowAnimate.obj
 0001:00016ea3       ?ShowCompleted@KWndShowAnimate@@UAEXXZ 00417ea3 f   WndShowAnimate.obj
 0001:00016eae       ?PaintWindow@KWndShowAnimate@@MAEXXZ 00417eae f   WndShowAnimate.obj
 0001:00016fc0       ??_EKWndShowAnimate@@UAEPAXI@Z 00417fc0 f i WndShowAnimate.obj
 0001:00016fc0       ??_GKWndShowAnimate@@UAEPAXI@Z 00417fc0 f i WndShowAnimate.obj
 0001:00016ff0       ?SetAllButtonTipTextColor@KWndText@@SAXI@Z 00417ff0 f   WndText.obj
 0001:00016ffd       ?EnableAllButtonTip@KWndText@@SAXH@Z 00417ffd f   WndText.obj
 0001:00017010       ??0KWndText@@QAE@XZ        00418010 f   WndText.obj
 0001:00017075       ?SetText@KWndText@@QAEXPBDH@Z 00418075 f   WndText.obj
 0001:00017191       ?GetText@KWndText@@QAEHPADH@Z 00418191 f   WndText.obj
 0001:000171fb       ?Clear@KWndText@@QAEX_N@Z  004181fb f   WndText.obj
 0001:0001724e       ?SetTopLine@KWndText@@QAEHH@Z 0041824e f   WndText.obj
 0001:00017277       ?SetTextPtr@KWndText@@IAEXPADH@Z 00418277 f   WndText.obj
 0001:000172d2       ?Clone@KWndText@@QAEXPAV1@@Z 004182d2 f   WndText.obj
 0001:00017354       ?SetFontSize@KWndText@@QAEXH@Z 00418354 f   WndText.obj
 0001:00017385       ?Init@KWndText@@UAEHPAVKIniFile@@PBD@Z 00418385 f   WndText.obj
 0001:00017747       ?WndProc@KWndText@@UAEHIIH@Z 00418747 f   WndText.obj
 0001:000179bc       ?GetToolTipInfo@KWndText@@UAEHPADH@Z 004189bc f   WndText.obj
 0001:00017a8c       ?SetToolTipInfo@KWndText@@QAEHPADH@Z 00418a8c f   WndText.obj
 0001:00017b20       ?PaintWindow@KWndText@@UAEXXZ 00418b20 f   WndText.obj
 0001:00017cd3       ?SetTextColor@KWndText@@QAEXI@Z 00418cd3 f   WndText.obj
 0001:00017ce9       ?SetBorderTextColor@KWndText@@QAEXI@Z 00418ce9 f   WndText.obj
 0001:00017cff       ?SetIntText@KWndText@@QAEXHD@Z 00418cff f   WndText.obj
 0001:00017d68       ?SetExtPointText@KWndText@@QAEXH@Z 00418d68 f   WndText.obj
 0001:00017da9       ?SetMoneyUnitText@KWndText@@QAEXH@Z 00418da9 f   WndText.obj
 0001:00017e9e       ?SetMoneyUnitPrice@KWndText@@QAEXHH@Z 00418e9e f   WndText.obj
 0001:00017faf       ?Set3IntText@KWndText@@QAEXH_NPBD@Z 00418faf f   WndText.obj
 0001:00018091       ?Set4IntText@KWndText@@QAEXH@Z 00419091 f   WndText.obj
 0001:000180fc       ?Set5IntText@KWndText@@QAEXH_N@Z 004190fc f   WndText.obj
 0001:000181aa       ?Set6IntText@KWndText@@QAEXHD@Z 004191aa f   WndText.obj
 0001:00018230       ?Set6IntText@KWndText@@QAEXHHDD@Z 00419230 f   WndText.obj
 0001:000182ab       ?SetResistPlus@KWndText@@QAEXHD@Z 004192ab f   WndText.obj
 0001:000182ff       ?Set2IntText@KWndText@@QAEXHHD@Z 004192ff f   WndText.obj
 0001:00018349       ?Set2IntText2@KWndText@@QAEXHHDD@Z 00419349 f   WndText.obj
 0001:00018419       ??0KWndText32@@QAE@XZ      00419419 f   WndText.obj
 0001:0001848c       ??0KWndText80@@QAE@XZ      0041948c f   WndText.obj
 0001:000184ff       ??0KWndText256@@QAE@XZ     004194ff f   WndText.obj
 0001:00018575       ??0KWndText512@@QAE@XZ     00419575 f   WndText.obj
 0001:000185f0       ?GetShortKey@KWndText@@UAEPBDXZ 004195f0 f i WndText.obj
 0001:00018600       ??_EKWndText@@UAEPAXI@Z    00419600 f i WndText.obj
 0001:00018600       ??_GKWndText@@UAEPAXI@Z    00419600 f i WndText.obj
 0001:00018630       ??_GKWndText32@@UAEPAXI@Z  00419630 f i WndText.obj
 0001:00018630       ??_EKWndText32@@UAEPAXI@Z  00419630 f i WndText.obj
 0001:00018660       ??_GKWndText80@@UAEPAXI@Z  00419660 f i WndText.obj
 0001:00018660       ??_EKWndText80@@UAEPAXI@Z  00419660 f i WndText.obj
 0001:00018690       ??1KWndText80@@UAE@XZ      00419690 f i WndText.obj
 0001:000186b0       ??_EKWndText256@@UAEPAXI@Z 004196b0 f i WndText.obj
 0001:000186b0       ??_GKWndText256@@UAEPAXI@Z 004196b0 f i WndText.obj
 0001:000186e0       ??1KWndText256@@UAE@XZ     004196e0 f i WndText.obj
 0001:00018700       ??_GKWndText512@@UAEPAXI@Z 00419700 f i WndText.obj
 0001:00018700       ??_EKWndText512@@UAEPAXI@Z 00419700 f i WndText.obj
 0001:00018730       ??1KWndText512@@UAE@XZ     00419730 f i WndText.obj
 0001:00018750       ??0KWndToolBar@@QAE@XZ     00419750 f   WndToolBar.obj
 0001:00018789       ??1KWndToolBar@@UAE@XZ     00419789 f   WndToolBar.obj
 0001:000187da       ?Clone@KWndToolBar@@QAEXPAV1@@Z 004197da f   WndToolBar.obj
 0001:0001881b       ?Init@KWndToolBar@@UAEHPAVKIniFile@@PBD@Z 0041981b f   WndToolBar.obj
 0001:000188ac       ?WndProc@KWndToolBar@@UAEHIIH@Z 004198ac f   WndToolBar.obj
 0001:000188fb       ?PaintWindow@KWndToolBar@@UAEXXZ 004198fb f   WndToolBar.obj
 0001:0001890e       ?AddOneWindow@KWndToolBar@@IAEXPAVKIniFile@@PBD@Z 0041990e f   WndToolBar.obj
 0001:00018a6d       ?FreeAllWindow@KWndToolBar@@IAEXXZ 00419a6d f   WndToolBar.obj
 0001:00018b37       ?UpdateData@KWndToolBar@@UAEXXZ 00419b37 f   WndToolBar.obj
 0001:00018bb0       ??_GKWndToolBar@@UAEPAXI@Z 00419bb0 f i WndToolBar.obj
 0001:00018bb0       ??_EKWndToolBar@@UAEPAXI@Z 00419bb0 f i WndToolBar.obj
 0001:00018be0       ??0KWndValueImage@@QAE@XZ  00419be0 f   WndValueImage.obj
 0001:00018c19       ?Clone@KWndValueImage@@QAEXPAV1@@Z 00419c19 f   WndValueImage.obj
 0001:00018c6e       ?Init@KWndValueImage@@UAEHPAVKIniFile@@PBD@Z 00419c6e f   WndValueImage.obj
 0001:00018d05       ?SetValue@KWndValueImage@@QAEXHH@Z 00419d05 f   WndValueImage.obj
 0001:00018d90       ??_GKWndValueImage@@UAEPAXI@Z 00419d90 f i WndValueImage.obj
 0001:00018d90       ??_EKWndValueImage@@UAEPAXI@Z 00419d90 f i WndValueImage.obj
 0001:00018dc0       ??1KWndValueImage@@UAE@XZ  00419dc0 f i WndValueImage.obj
 0001:00018de0       ??0KWndWindow@@QAE@XZ      00419de0 f   WndWindow.obj
 0001:00018e8d       ??1KWndWindow@@UAE@XZ      00419e8d f   WndWindow.obj
 0001:00018ec3       ?BringToTop@KWndWindow@@QAEXXZ 00419ec3 f   WndWindow.obj
 0001:00018f65       ?GetPosition@KWndWindow@@QAEXPAH0@Z 00419f65 f   WndWindow.obj
 0001:00018f94       ?SetPosition@KWndWindow@@QAEXHH@Z 00419f94 f   WndWindow.obj
 0001:00018fcf       ?GetAbsolutePos@KWndWindow@@QAEXPAH0@Z 00419fcf f   WndWindow.obj
 0001:00018ffe       ?GetSize@KWndWindow@@QAEXPAH0@Z 00419ffe f   WndWindow.obj
 0001:0001902d       ?SetSize@KWndWindow@@UAEXHH@Z 0041a02d f   WndWindow.obj
 0001:0001916f       ?AbsoluteMove@KWndWindow@@AAEXHH@Z 0041a16f f   WndWindow.obj
 0001:000191c6       ?Show@KWndWindow@@UAEXXZ   0041a1c6 f   WndWindow.obj
 0001:000191e3       ?Hide@KWndWindow@@UAEXXZ   0041a1e3 f   WndWindow.obj
 0001:0001924b       ?IsVisible@KWndWindow@@QAEHXZ 0041a24b f   WndWindow.obj
 0001:00019261       ?IsEnable@KWndWindow@@QAEHXZ 0041a261 f   WndWindow.obj
 0001:00019277       ?Enable@KWndWindow@@UAEXH@Z 0041a277 f   WndWindow.obj
 0001:000192b0       ?Destroy@KWndWindow@@QAEXXZ 0041a2b0 f   WndWindow.obj
 0001:000192cd       ?Clone@KWndWindow@@IAEXPAV1@@Z 0041a2cd f   WndWindow.obj
 0001:00019326       ?Init@KWndWindow@@UAEHPAVKIniFile@@PBD@Z 0041a326 f   WndWindow.obj
 0001:000195a7       ?PtInWindow@KWndWindow@@UAEHHH@Z 0041a5a7 f   WndWindow.obj
 0001:0001966d       ?Paint@KWndWindow@@QAEXXZ  0041a66d f   WndWindow.obj
 0001:000196bb       ?LetMeBreathe@KWndWindow@@QAEXXZ 0041a6bb f   WndWindow.obj
 0001:00019736       ?AddChild@KWndWindow@@QAEXPAV1@@Z 0041a736 f   WndWindow.obj
 0001:000197d1       ?AddBrother@KWndWindow@@QAEXPAV1@@Z 0041a7d1 f   WndWindow.obj
 0001:00019887       ?LeaveAlone@KWndWindow@@QAEXXZ 0041a887 f   WndWindow.obj
 0001:000198c1       ?SplitSmaleFamily@KWndWindow@@QAEXXZ 0041a8c1 f   WndWindow.obj
 0001:00019950       ?WndProc@KWndWindow@@UAEHIIH@Z 0041a950 f   WndWindow.obj
 0001:00019a8d       ?OnLBtnDown@KWndWindow@@AAEXHH@Z 0041aa8d f   WndWindow.obj
 0001:00019ad2       ?OnMoveWnd@KWndWindow@@AAEXXZ 0041aad2 f   WndWindow.obj
 0001:00019ba1       ?TopChildFromPoint@KWndWindow@@UAEPAV1@HH@Z 0041aba1 f   WndWindow.obj
 0001:00019c41       ?GetOwner@KWndWindow@@QAEPAV1@XZ 0041ac41 f   WndWindow.obj
 0001:00019c6b       ?PaintDebugInfo@KWndWindow@@QAEXXZ 0041ac6b f   WndWindow.obj
 0001:00019e48       ?PaintWindow@KWndWindow@@UAEXXZ 0041ae48 f   WndWindow.obj
 0001:0001a076       ?GetColor@@YAIPBD@Z        0041b076 f   WndWindow.obj
 0001:0001a228       ?GetColorString@@YAPBDI@Z  0041b228 f   WndWindow.obj
 0001:0001a272       ?SetCursorAbove@KWndWindow@@QAEXXZ 0041b272 f   WndWindow.obj
 0001:0001a2ad       ?GetAllChildLayoutRect@KWndWindow@@QAEXPAUtagRECT@@@Z 0041b2ad f   WndWindow.obj
 0001:0001a410       ??_GKWndWindow@@UAEPAXI@Z  0041b410 f i WndWindow.obj
 0001:0001a410       ??_EKWndWindow@@UAEPAXI@Z  0041b410 f i WndWindow.obj
 0001:0001a440       ??0KUiConnectInfo@@AAE@XZ  0041b440 f   UiConnectInfo.obj
 0001:0001a544       ?OpenWindow@KUiConnectInfo@@SAPAV1@W4LOGIN_BG_INFO_MSG_INDEX@@HH@Z 0041b544 f   UiConnectInfo.obj
 0001:0001a632       ?CloseWindow@KUiConnectInfo@@SAX_N@Z 0041b632 f   UiConnectInfo.obj
 0001:0001a682       ?Initialize@KUiConnectInfo@@AAEXXZ 0041b682 f   UiConnectInfo.obj
 0001:0001a6c8       ?LoadScheme@KUiConnectInfo@@AAEXPBD@Z 0041b6c8 f   UiConnectInfo.obj
 0001:0001aa2e       ?OnClickConfirmBtn@KUiConnectInfo@@AAEXXZ 0041ba2e f   UiConnectInfo.obj
 0001:0001ab40       ?WndProc@KUiConnectInfo@@EAEHIIH@Z 0041bb40 f   UiConnectInfo.obj
 0001:0001ac3f       ?OnDelRole@KUiConnectInfo@@AAE_NXZ 0041bc3f f   UiConnectInfo.obj
 0001:0001ad33       ?OnCancelDelRole@KUiConnectInfo@@AAEXXZ 0041bd33 f   UiConnectInfo.obj
 0001:0001ad5e       ?SetInfoMsg@KUiConnectInfo@@AAEXW4LOGIN_BG_INFO_MSG_INDEX@@@Z 0041bd5e f   UiConnectInfo.obj
 0001:0001af07       ?GotoNextStep@KUiConnectInfo@@AAEXXZ 0041bf07 f   UiConnectInfo.obj
 0001:0001afe6       ?Breathe@KUiConnectInfo@@EAEXXZ 0041bfe6 f   UiConnectInfo.obj
 0001:0001b1ec       ?PaintWindow@KUiConnectInfo@@EAEXXZ 0041c1ec f   UiConnectInfo.obj
 0001:0001b470       ??_GKUiConnectInfo@@EAEPAXI@Z 0041c470 f i UiConnectInfo.obj
 0001:0001b470       ??_EKUiConnectInfo@@EAEPAXI@Z 0041c470 f i UiConnectInfo.obj
 0001:0001b4a0       ??1KUiConnectInfo@@EAE@XZ  0041c4a0 f i UiConnectInfo.obj
 0001:0001b540       ?GetStatus@KLogin@@QAE?AW4LOGIN_LOGIC_STATUS@@XZ 0041c540 f i UiConnectInfo.obj
 0001:0001b560       ??0KUiLogin@@AAE@XZ        0041c560 f   UiLogin.obj
 0001:0001b630       ??1KUiLogin@@EAE@XZ        0041c630 f   UiLogin.obj
 0001:0001b6f3       ?OpenWindow@KUiLogin@@SAPAV1@XZ 0041c6f3 f   UiLogin.obj
 0001:0001b7a9       ?CloseWindow@KUiLogin@@SAX_N@Z 0041c7a9 f   UiLogin.obj
 0001:0001b846       ?Show@KUiLogin@@EAEXXZ     0041c846 f   UiLogin.obj
 0001:0001b8e9       ?Initialize@KUiLogin@@AAEXXZ 0041c8e9 f   UiLogin.obj
 0001:0001b9da       ?LoadScheme@KUiLogin@@AAEXPBD@Z 0041c9da f   UiLogin.obj
 0001:0001bbbf       ?WndProc@KUiLogin@@EAEHIIH@Z 0041cbbf f   UiLogin.obj
 0001:0001be3e       ?OnEnableAutoLogin@KUiLogin@@AAEXXZ 0041ce3e f   UiLogin.obj
 0001:0001bead       ?OnKeyDown@KUiLogin@@AAEXI@Z 0041cead f   UiLogin.obj
 0001:0001c126       ?OnLogin@KUiLogin@@AAEXXZ  0041d126 f   UiLogin.obj
 0001:0001c1b6       ?OnCancel@KUiLogin@@AAEXXZ 0041d1b6 f   UiLogin.obj
 0001:0001c1da       ?GetInputInfo@KUiLogin@@AAEHPAD0@Z 0041d1da f   UiLogin.obj
 0001:0001c23f       ?IsValidPassword@KUiLogin@@SA_NPBDH@Z 0041d23f f   UiLogin.obj
 0001:0001c2d0       ??_GKUiLogin@@EAEPAXI@Z    0041d2d0 f i UiLogin.obj
 0001:0001c2d0       ??_EKUiLogin@@EAEPAXI@Z    0041d2d0 f i UiLogin.obj
 0001:0001c300       ?OpenWindow@KUiLoginBackGround@@SAPAV1@PBD@Z 0041d300 f   UiLoginBg.obj
 0001:0001c3b7       ?CloseWindow@KUiLoginBackGround@@SAX_N@Z 0041d3b7 f   UiLoginBg.obj
 0001:0001c3f9       ?Initialize@KUiLoginBackGround@@AAEXXZ 0041d3f9 f   UiLoginBg.obj
 0001:0001c499       ?SetConfig@KUiLoginBackGround@@SAXPBD@Z 0041d499 f   UiLoginBg.obj
 0001:0001c5a9       ?LoadScheme@KUiLoginBackGround@@AAEXPAVKIniFile@@@Z 0041d5a9 f   UiLoginBg.obj
 0001:0001c791       ?Breathe@KUiLoginBackGround@@EAEXXZ 0041d791 f   UiLoginBg.obj
 0001:0001c8d0       ??0KUiLoginBackGround@@AAE@XZ 0041d8d0 f i UiLoginBg.obj
 0001:0001c950       ??_GKUiLoginBackGround@@EAEPAXI@Z 0041d950 f i UiLoginBg.obj
 0001:0001c950       ??_EKUiLoginBackGround@@EAEPAXI@Z 0041d950 f i UiLoginBg.obj
 0001:0001c980       ??1KUiLoginBackGround@@EAE@XZ 0041d980 f i UiLoginBg.obj
 0001:0001ca00       ??0KUiNotice@@AAE@XZ       0041da00 f   UiNotice.obj
 0001:0001cab6       ??1KUiNotice@@EAE@XZ       0041dab6 f   UiNotice.obj
 0001:0001cb55       ?OpenWindow@KUiNotice@@SAPAV1@XZ 0041db55 f   UiNotice.obj
 0001:0001cc20       ?CloseWindow@KUiNotice@@SAX_N@Z 0041dc20 f   UiNotice.obj
 0001:0001cc62       ?Initialize@KUiNotice@@AAEXXZ 0041dc62 f   UiNotice.obj
 0001:0001cd42       ?LoadScheme@KUiNotice@@AAEXPBD@Z 0041dd42 f   UiNotice.obj
 0001:0001cf09       ?UpdateNotice@KUiNotice@@AAEXXZ 0041df09 f   UiNotice.obj
 0001:0001cf5e       ?WndProc@KUiNotice@@EAEHIIH@Z 0041df5e f   UiNotice.obj
 0001:0001cff1       ?OnClickButton@KUiNotice@@AAEXPAVKWndButton@@@Z 0041dff1 f   UiNotice.obj
 0001:0001d01e       ?OnKeyDown@KUiNotice@@AAEHI@Z 0041e01e f   UiNotice.obj
 0001:0001d080       ??_GKUiNotice@@EAEPAXI@Z   0041e080 f i UiNotice.obj
 0001:0001d080       ??_EKUiNotice@@EAEPAXI@Z   0041e080 f i UiNotice.obj
 0001:0001d0b0       ??0KUiSelServer@@AAE@XZ    0041e0b0 f   UiSelServer.obj
 0001:0001d16e       ??1KUiSelServer@@EAE@XZ    0041e16e f   UiSelServer.obj
 0001:0001d241       ?OpenWindow@KUiSelServer@@SAPAV1@XZ 0041e241 f   UiSelServer.obj
 0001:0001d323       ?CloseWindow@KUiSelServer@@SAX_N@Z 0041e323 f   UiSelServer.obj
 0001:0001d365       ?Initialize@KUiSelServer@@AAEXXZ 0041e365 f   UiSelServer.obj
 0001:0001d42d       ?GetList@KUiSelServer@@AAEXXZ 0041e42d f   UiSelServer.obj
 0001:0001d55e       ?LoadScheme@KUiSelServer@@AAEXPBD@Z 0041e55e f   UiSelServer.obj
 0001:0001d6ce       ?WndProc@KUiSelServer@@EAEHIIH@Z 0041e6ce f   UiSelServer.obj
 0001:0001d786       ?OnKeyDown@KUiSelServer@@AAEHI@Z 0041e786 f   UiSelServer.obj
 0001:0001d981       ?OnClickButton@KUiSelServer@@AAEXPAVKWndButton@@@Z 0041e981 f   UiSelServer.obj
 0001:0001d9bb       ?OnLogin@KUiSelServer@@AAEXXZ 0041e9bb f   UiSelServer.obj
 0001:0001da74       ?OnCancel@KUiSelServer@@AAEXXZ 0041ea74 f   UiSelServer.obj
 0001:0001dac0       ??_GKUiSelServer@@EAEPAXI@Z 0041eac0 f i UiSelServer.obj
 0001:0001dac0       ??_EKUiSelServer@@EAEPAXI@Z 0041eac0 f i UiSelServer.obj
 0001:0001daf0       ?GetTopItemIndex@KWndList@@QAEHXZ 0041eaf0 f i UiSelServer.obj
 0001:0001db10       ?GetCount@KWndList@@QAEHXZ 0041eb10 f i UiSelServer.obj
 0001:0001db30       ?GetCurSel@KWndList@@QAEHXZ 0041eb30 f i UiSelServer.obj
 0001:0001db50       ?GetIfVisible@KUiChooseFace@@SAPAV1@XZ 0041eb50 f   UiChooseFace.obj
 0001:0001db76       ?OpenWindow@KUiChooseFace@@SAPAV1@H@Z 0041eb76 f   UiChooseFace.obj
 0001:0001dc4b       ?CloseWindow@KUiChooseFace@@SAXXZ 0041ec4b f   UiChooseFace.obj
 0001:0001dc78       ?Initialize@KUiChooseFace@@AAEXXZ 0041ec78 f   UiChooseFace.obj
 0001:0001dfbf       ?LoadScheme@KUiChooseFace@@AAEXPBD@Z 0041efbf f   UiChooseFace.obj
 0001:0001e570       ?ShowWindow@KUiChooseFace@@AAEXH@Z 0041f570 f   UiChooseFace.obj
 0001:0001eb51       ?WndProc@KUiChooseFace@@EAEHIIH@Z 0041fb51 f   UiChooseFace.obj
 0001:0001ef3d       ?OnOK@KUiChooseFace@@AAEXXZ 0041ff3d f   UiChooseFace.obj
 0001:0001efc4       ?PaintWindow@KUiChooseFace@@EAEXXZ 0041ffc4 f   UiChooseFace.obj
 0001:0001f8d0       ??0KUiChooseFace@@QAE@XZ   004208d0 f i UiChooseFace.obj
 0001:0001fb50       ??_EKUiChooseFace@@UAEPAXI@Z 00420b50 f i UiChooseFace.obj
 0001:0001fb50       ??_GKUiChooseFace@@UAEPAXI@Z 00420b50 f i UiChooseFace.obj
 0001:0001fb80       ??1KUiChooseFace@@UAE@XZ   00420b80 f i UiChooseFace.obj
 0001:0001fdf0       ??0KUiContainer@@QAE@XZ    00420df0 f   UiContainer.obj
 0001:0001fe1b       ??1KUiContainer@@UAE@XZ    00420e1b f   UiContainer.obj
 0001:0001fe2f       ?DoSwitchUi@KUiContainer@@QAEHH@Z 00420e2f f   UiContainer.obj
 0001:0001ff5a       ?Initialize@KUiContainer@@QAEHPAVKWndWindow@@@Z 00420f5a f   UiContainer.obj
 0001:0001ff90       ??_GKUiContainer@@UAEPAXI@Z 00420f90 f i UiContainer.obj
 0001:0001ff90       ??_EKUiContainer@@UAEPAXI@Z 00420f90 f i UiContainer.obj
 0001:0001ffc0       ??0KUiFaceSelector@@AAE@XZ 00420fc0 f   UiFaceSelector.obj
 0001:000200c8       ?OpenWindow@KUiFaceSelector@@SAPAV1@PAVKWndWindow@@PAX@Z 004210c8 f   UiFaceSelector.obj
 0001:000201a6       ?CloseWindow@KUiFaceSelector@@SAX_N@Z 004211a6 f   UiFaceSelector.obj
 0001:000201e5       ?GetIfVisible@KUiFaceSelector@@SAPAV1@XZ 004211e5 f   UiFaceSelector.obj
 0001:0002020b       ?ConvertFaceText@KUiFaceSelector@@SAHPADPBDH@Z 0042120b f   UiFaceSelector.obj
 0001:0002034d       ?ConvertFace@KUiFaceSelector@@CAHPADAAHPBDH1@Z 0042134d f   UiFaceSelector.obj
 0001:0002041f       ?Initialize@KUiFaceSelector@@AAEXXZ 0042141f f   UiFaceSelector.obj
 0001:00020494       ?LoadFaceList@KUiFaceSelector@@SAXXZ 00421494 f   UiFaceSelector.obj
 0001:000206ad       ?Clear@KUiFaceSelector@@SAXXZ 004216ad f   UiFaceSelector.obj
 0001:000206f1       ?OnSelFace@KUiFaceSelector@@AAEXXZ 004216f1 f   UiFaceSelector.obj
 0001:00020769       ?WndProc@KUiFaceSelector@@EAEHIIH@Z 00421769 f   UiFaceSelector.obj
 0001:00020928       ?LoadScheme@KUiFaceSelector@@QAEXPBD@Z 00421928 f   UiFaceSelector.obj
 0001:00020d11       ?UpdateFaceTip@KUiFaceSelector@@AAEXHH@Z 00421d11 f   UiFaceSelector.obj
 0001:00020e38       ?PaintWindow@KUiFaceSelector@@EAEXXZ 00421e38 f   UiFaceSelector.obj
 0001:000211e6       ?Show@KUiFaceSelector@@EAEXXZ 004221e6 f   UiFaceSelector.obj
 0001:00021205       ?Hide@KUiFaceSelector@@EAEXXZ 00422205 f   UiFaceSelector.obj
 0001:0002121d       ?GetFaceAtPos@KUiFaceSelector@@AAEHHH@Z 0042221d f   UiFaceSelector.obj
 0001:00021350       ??_EKUiFaceSelector@@EAEPAXI@Z 00422350 f i UiFaceSelector.obj
 0001:00021350       ??_GKUiFaceSelector@@EAEPAXI@Z 00422350 f i UiFaceSelector.obj
 0001:00021380       ??1KUiFaceSelector@@EAE@XZ 00422380 f i UiFaceSelector.obj
 0001:000213f0       ?CreateObject@GameWorld_DateTime@@SAPAVKWndWindow@@XZ 004223f0 f i UiPlayerBar.obj
 0001:00021460       ?GetFormatedTimeString@@YAHPAUtm@@PAD@Z 00422460 f   UiPlayerBar.obj
 0001:000214a3       ??0GameWorld_DateTime@@QAE@XZ 004224a3 f   UiPlayerBar.obj
 0001:00021525       ?OnButtonClick@GameWorld_DateTime@@EAEXXZ 00422525 f   UiPlayerBar.obj
 0001:00021530       ?Init@GameWorld_DateTime@@UAEHPAVKIniFile@@PBD@Z 00422530 f   UiPlayerBar.obj
 0001:00021702       ?UpdateData@GameWorld_DateTime@@UAEXXZ 00422702 f   UiPlayerBar.obj
 0001:000218b8       ?UpdateNetStatus@GameWorld_DateTime@@AAEXXZ 004228b8 f   UiPlayerBar.obj
 0001:00021a75       ?Init@KImmediaItem@@UAEHPAVKIniFile@@PBD@Z 00422a75 f   UiPlayerBar.obj
 0001:00021ad6       ?PaintWindow@KImmediaItem@@UAEXXZ 00422ad6 f   UiPlayerBar.obj
 0001:00021c21       ??0KUiPlayerBar@@AAE@XZ    00422c21 f   UiPlayerBar.obj
 0001:00021ea6       ??1KUiPlayerBar@@EAE@XZ    00422ea6 f   UiPlayerBar.obj
 0001:00022043       ?GetIfVisible@KUiPlayerBar@@SAPAV1@XZ 00423043 f   UiPlayerBar.obj
 0001:00022069       ?OpenWindow@KUiPlayerBar@@SAPAV1@XZ 00423069 f   UiPlayerBar.obj
 0001:0002214f       ?OnSwitchSize@KUiPlayerBar@@AAEXXZ 0042314f f   UiPlayerBar.obj
 0001:0002219f       ?UpdateData@KUiPlayerBar@@EAEXXZ 0042319f f   UiPlayerBar.obj
 0001:000222fc       ?CloseWindow@KUiPlayerBar@@SAX_N@Z 004232fc f   UiPlayerBar.obj
 0001:00022388       ?LoadScheme@KUiPlayerBar@@SAXPBD@Z 00423388 f   UiPlayerBar.obj
 0001:00022454       ?LoadScheme@KUiPlayerBar@@AAEXPAVKIniFile@@@Z 00423454 f   UiPlayerBar.obj
 0001:00022820       ?Initialize@KUiPlayerBar@@AAEXXZ 00423820 f   UiPlayerBar.obj
 0001:00022ac8       ?WndProc@KUiPlayerBar@@EAEHIIH@Z 00423ac8 f   UiPlayerBar.obj
 0001:00023151       ?PaintWindow@KUiPlayerBar@@EAEXXZ 00424151 f   UiPlayerBar.obj
 0001:0002319b       ?PopupChannelMenu@KUiPlayerBar@@AAEXHH@Z 0042419b f   UiPlayerBar.obj
 0001:0002361a       ?PopupPhraseMenu@KUiPlayerBar@@AAEXHH_N@Z 0042461a f   UiPlayerBar.obj
 0001:0002374a       ?OnSend@KUiPlayerBar@@AAEXH@Z 0042474a f   UiPlayerBar.obj
 0001:00023d2e       ?IsCanSendMessage@KUiPlayerBar@@SAHPBDHPADH@Z 00424d2e f   UiPlayerBar.obj
 0001:00023dce       ?OnSendChannelMessage@KUiPlayerBar@@SAXKPBDH@Z 00424dce f   UiPlayerBar.obj
 0001:00023e89       ?OnDirectSendChannelMessage@KUiPlayerBar@@AAEXKEPBDH@Z 00424e89 f   UiPlayerBar.obj
 0001:0002406f       ?OnSendSomeoneMessage@KUiPlayerBar@@SAXPBD0H@Z 0042506f f   UiPlayerBar.obj
 0001:000241a3       ?InputRecentMsg@KUiPlayerBar@@AAEX_N@Z 004251a3 f   UiPlayerBar.obj
 0001:000242d4       ?OnObjPickedDropped@KUiPlayerBar@@AAEXPAUITEM_PICKDROP_PLACE@@0@Z 004252d4 f   UiPlayerBar.obj
 0001:000243e5       ?OnUseItem@KUiPlayerBar@@SAXH@Z 004253e5 f   UiPlayerBar.obj
 0001:0002445f       ?GetChannelIndex@KUiPlayerBar@@AAEHPBD@Z 0042545f f   UiPlayerBar.obj
 0001:0002450c       ?SetCurrentChannel@KUiPlayerBar@@SAXH@Z 0042550c f   UiPlayerBar.obj
 0001:00024678       ?InputCurrentChannel@KUiPlayerBar@@AAEXH_N@Z 00425678 f   UiPlayerBar.obj
 0001:00024707       ?SwitchChannel@KUiPlayerBar@@SAXH@Z 00425707 f   UiPlayerBar.obj
 0001:00024794       ?GetCurChannel@KUiPlayerBar@@SAHXZ 00425794 f   UiPlayerBar.obj
 0001:000247b2       ?UpdateXXXNumber@KUiPlayerBar@@AAEXAAH0@Z 004257b2 f   UiPlayerBar.obj
 0001:0002489a       ?UpdateRuntimeAttribute@KUiPlayerBar@@AAEXAAH0@Z 0042589a f   UiPlayerBar.obj
 0001:00024914       ?UpdateItem@KUiPlayerBar@@QAEXHII@Z 00425914 f   UiPlayerBar.obj
 0001:00024956       ?UpdateSkill@KUiPlayerBar@@QAEXHII@Z 00425956 f   UiPlayerBar.obj
 0001:00024990       ?Breathe@KUiPlayerBar@@EAEXXZ 00425990 f   UiPlayerBar.obj
 0001:00024cb0       ?IsHasCost@KUiPlayerBar@@AAEHEHHHHAAH00@Z 00425cb0 f   UiPlayerBar.obj
 0001:00024f06       ?InputNameMsg@KUiPlayerBar@@SAXDPBD_N@Z 00425f06 f   UiPlayerBar.obj
 0001:000251c7       ?FindRecentPlayer@KUiPlayerBar@@SAHPBD@Z 004261c7 f   UiPlayerBar.obj
 0001:0002524d       ?GetRecentPlayerName@KUiPlayerBar@@SAPADH@Z 0042624d f   UiPlayerBar.obj
 0001:0002529f       ?AddRecentPlayer@KUiPlayerBar@@SAHPBD@Z 0042629f f   UiPlayerBar.obj
 0001:000253f7       ?ReplaceSpecialName@KUiPlayerBar@@AAEXPADI0@Z 004263f7 f   UiPlayerBar.obj
 0001:00025418       ?GetExp@KUiPlayerBar@@SA_NAAH00@Z 00426418 f   UiPlayerBar.obj
 0001:0002545f       ?LoadPrivateSetting@KUiPlayerBar@@SAHPAVKIniFile@@@Z 0042645f f   UiPlayerBar.obj
 0001:0002553b       ?SavePrivateSetting@KUiPlayerBar@@SAHPAVKIniFile@@@Z 0042653b f   UiPlayerBar.obj
 0001:00025602       ?InputItemMsg@KUiPlayerBar@@SAXI@Z 00426602 f   UiPlayerBar.obj
 0001:00025843       ?TextMsgFilterItem@KUiPlayerBar@@QAEHXZ 00426843 f   UiPlayerBar.obj
 0001:00025980       ??_EGameWorld_DateTime@@UAEPAXI@Z 00426980 f i UiPlayerBar.obj
 0001:00025980       ??_GGameWorld_DateTime@@UAEPAXI@Z 00426980 f i UiPlayerBar.obj
 0001:000259b0       ??1GameWorld_DateTime@@UAE@XZ 004269b0 f i UiPlayerBar.obj
 0001:000259d0       ?Clear@CHAT_ITEM@@QAEXXZ   004269d0 f i UiPlayerBar.obj
 0001:00025a00       ??0KImmediaItem@@QAE@XZ    00426a00 f i UiPlayerBar.obj
 0001:00025a40       ??_GKImmediaItem@@UAEPAXI@Z 00426a40 f i UiPlayerBar.obj
 0001:00025a40       ??_EKImmediaItem@@UAEPAXI@Z 00426a40 f i UiPlayerBar.obj
 0001:00025a70       ??1KImmediaItem@@UAE@XZ    00426a70 f i UiPlayerBar.obj
 0001:00025a90       ??_EKUiPlayerBar@@EAEPAXI@Z 00426a90 f i UiPlayerBar.obj
 0001:00025a90       ??_GKUiPlayerBar@@EAEPAXI@Z 00426a90 f i UiPlayerBar.obj
 0001:00025ac0       ?GetFocusBkColor@KWndEdit@@QAEIXZ 00426ac0 f i UiPlayerBar.obj
 0001:00025ae0       ?GetMenuData@KPopupMenu@@SAPAUKPopupMenuData@@XZ 00426ae0 f i UiPlayerBar.obj
 0001:00025af0       ?IsSelfName@KUiPlayerBar@@SAHPAD@Z 00426af0 f i UiPlayerBar.obj
 0001:00025b30       ?SetFocusBkColor@KWndEdit@@QAEXI@Z 00426b30 f i UiPlayerBar.obj
 0001:00025b50       ?end@?$map@V?$basic_string@DU?$char_traits@D@std@@V?$allocator@D@2@@std@@UShortFuncInfo@@Ustring_iless@@V?$allocator@UShortFuncInfo@@@2@@std@@QAE?AViterator@?$_Tree@V?$basic_string@DU?$char_traits@D@std@@V?$allocator@D@2@@std@@U?$pair@$$CBV?$basic_string@DU?$char_traits@D@std@@V?$allocator@D@2@@std@@UShortFuncInfo@@@2@U_Kfn@?$map@V?$basic_string@DU?$char_traits@D@std@@V?$allocator@D@2@@std@@UShortFuncInfo@@Ustring_iless@@V?$allocator@UShortFuncInfo@@@2@@2@Ustring_iless@@V?$allocator@UShortFuncInfo@@@2@@2@XZ 00426b50 f i UiPlayerBar.obj
 0001:00025b80       ?find@?$map@V?$basic_string@DU?$char_traits@D@std@@V?$allocator@D@2@@std@@UShortFuncInfo@@Ustring_iless@@V?$allocator@UShortFuncInfo@@@2@@std@@QAE?AViterator@?$_Tree@V?$basic_string@DU?$char_traits@D@std@@V?$allocator@D@2@@std@@U?$pair@$$CBV?$basic_string@DU?$char_traits@D@std@@V?$allocator@D@2@@std@@UShortFuncInfo@@@2@U_Kfn@?$map@V?$basic_string@DU?$char_traits@D@std@@V?$allocator@D@2@@std@@UShortFuncInfo@@Ustring_iless@@V?$allocator@UShortFuncInfo@@@2@@2@Ustring_iless@@V?$allocator@UShortFuncInfo@@@2@@2@ABV?$basic_string@DU?$char_traits@D@std@@V?$allocator@D@2@@2@@Z 00426b80 f i UiPlayerBar.obj
 0001:00025bb0       ??9iterator@?$_Tree@V?$basic_string@DU?$char_traits@D@std@@V?$allocator@D@2@@std@@U?$pair@$$CBV?$basic_string@DU?$char_traits@D@std@@V?$allocator@D@2@@std@@UShortFuncInfo@@@2@U_Kfn@?$map@V?$basic_string@DU?$char_traits@D@std@@V?$allocator@D@2@@std@@UShortFuncInfo@@Ustring_iless@@V?$allocator@UShortFuncInfo@@@2@@2@Ustring_iless@@V?$allocator@UShortFuncInfo@@@2@@std@@QBE_NABV012@@Z 00426bb0 f i UiPlayerBar.obj
 0001:00025be0       ?end@?$_Tree@V?$basic_string@DU?$char_traits@D@std@@V?$allocator@D@2@@std@@U?$pair@$$CBV?$basic_string@DU?$char_traits@D@std@@V?$allocator@D@2@@std@@UShortFuncInfo@@@2@U_Kfn@?$map@V?$basic_string@DU?$char_traits@D@std@@V?$allocator@D@2@@std@@UShortFuncInfo@@Ustring_iless@@V?$allocator@UShortFuncInfo@@@2@@2@Ustring_iless@@V?$allocator@UShortFuncInfo@@@2@@std@@QAE?AViterator@12@XZ 00426be0 f i UiPlayerBar.obj
 0001:00025c10       ?find@?$_Tree@V?$basic_string@DU?$char_traits@D@std@@V?$allocator@D@2@@std@@U?$pair@$$CBV?$basic_string@DU?$char_traits@D@std@@V?$allocator@D@2@@std@@UShortFuncInfo@@@2@U_Kfn@?$map@V?$basic_string@DU?$char_traits@D@std@@V?$allocator@D@2@@std@@UShortFuncInfo@@Ustring_iless@@V?$allocator@UShortFuncInfo@@@2@@2@Ustring_iless@@V?$allocator@UShortFuncInfo@@@2@@std@@QAE?AViterator@12@ABV?$basic_string@DU?$char_traits@D@std@@V?$allocator@D@2@@2@@Z 00426c10 f i UiPlayerBar.obj
 0001:00025cb0       ??Rstring_iless@@QBE_NABV?$basic_string@DU?$char_traits@D@std@@V?$allocator@D@2@@std@@0@Z 00426cb0 f i UiPlayerBar.obj
 0001:00025d20       __tcsicmp                  00426d20 f i UiPlayerBar.obj
 0001:00025d40       ??8iterator@?$_Tree@V?$basic_string@DU?$char_traits@D@std@@V?$allocator@D@2@@std@@U?$pair@$$CBV?$basic_string@DU?$char_traits@D@std@@V?$allocator@D@2@@std@@UShortFuncInfo@@@2@U_Kfn@?$map@V?$basic_string@DU?$char_traits@D@std@@V?$allocator@D@2@@std@@UShortFuncInfo@@Ustring_iless@@V?$allocator@UShortFuncInfo@@@2@@2@Ustring_iless@@V?$allocator@UShortFuncInfo@@@2@@std@@QBE_NABV012@@Z 00426d40 f i UiPlayerBar.obj
 0001:00025d60       ?_Key@?$_Tree@V?$basic_string@DU?$char_traits@D@std@@V?$allocator@D@2@@std@@U?$pair@$$CBV?$basic_string@DU?$char_traits@D@std@@V?$allocator@D@2@@std@@UShortFuncInfo@@@2@U_Kfn@?$map@V?$basic_string@DU?$char_traits@D@std@@V?$allocator@D@2@@std@@UShortFuncInfo@@Ustring_iless@@V?$allocator@UShortFuncInfo@@@2@@2@Ustring_iless@@V?$allocator@UShortFuncInfo@@@2@@std@@KAABV?$basic_string@DU?$char_traits@D@std@@V?$allocator@D@2@@2@PAU_Node@12@@Z 00426d60 f i UiPlayerBar.obj
 0001:00025d80       ?lower_bound@?$_Tree@V?$basic_string@DU?$char_traits@D@std@@V?$allocator@D@2@@std@@U?$pair@$$CBV?$basic_string@DU?$char_traits@D@std@@V?$allocator@D@2@@std@@UShortFuncInfo@@@2@U_Kfn@?$map@V?$basic_string@DU?$char_traits@D@std@@V?$allocator@D@2@@std@@UShortFuncInfo@@Ustring_iless@@V?$allocator@UShortFuncInfo@@@2@@2@Ustring_iless@@V?$allocator@UShortFuncInfo@@@2@@std@@QAE?AViterator@12@ABV?$basic_string@DU?$char_traits@D@std@@V?$allocator@D@2@@2@@Z 00426d80 f i UiPlayerBar.obj
 0001:00025db0       ?_Mynode@const_iterator@?$_Tree@V?$basic_string@DU?$char_traits@D@std@@V?$allocator@D@2@@std@@U?$pair@$$CBV?$basic_string@DU?$char_traits@D@std@@V?$allocator@D@2@@std@@UShortFuncInfo@@@2@U_Kfn@?$map@V?$basic_string@DU?$char_traits@D@std@@V?$allocator@D@2@@std@@UShortFuncInfo@@Ustring_iless@@V?$allocator@UShortFuncInfo@@@2@@2@Ustring_iless@@V?$allocator@UShortFuncInfo@@@2@@std@@QBEPAU_Node@23@XZ 00426db0 f i UiPlayerBar.obj
 0001:00025dc0       ??0iterator@?$_Tree@V?$basic_string@DU?$char_traits@D@std@@V?$allocator@D@2@@std@@U?$pair@$$CBV?$basic_string@DU?$char_traits@D@std@@V?$allocator@D@2@@std@@UShortFuncInfo@@@2@U_Kfn@?$map@V?$basic_string@DU?$char_traits@D@std@@V?$allocator@D@2@@std@@UShortFuncInfo@@Ustring_iless@@V?$allocator@UShortFuncInfo@@@2@@2@Ustring_iless@@V?$allocator@UShortFuncInfo@@@2@@std@@QAE@PAU_Node@12@@Z 00426dc0 f i UiPlayerBar.obj
 0001:00025de0       ??R_Kfn@?$map@V?$basic_string@DU?$char_traits@D@std@@V?$allocator@D@2@@std@@UShortFuncInfo@@Ustring_iless@@V?$allocator@UShortFuncInfo@@@2@@std@@QBEABV?$basic_string@DU?$char_traits@D@std@@V?$allocator@D@2@@2@ABU?$pair@$$CBV?$basic_string@DU?$char_traits@D@std@@V?$allocator@D@2@@std@@UShortFuncInfo@@@2@@Z 00426de0 f i UiPlayerBar.obj
 0001:00025df0       ?_Value@?$_Tree@V?$basic_string@DU?$char_traits@D@std@@V?$allocator@D@2@@std@@U?$pair@$$CBV?$basic_string@DU?$char_traits@D@std@@V?$allocator@D@2@@std@@UShortFuncInfo@@@2@U_Kfn@?$map@V?$basic_string@DU?$char_traits@D@std@@V?$allocator@D@2@@std@@UShortFuncInfo@@Ustring_iless@@V?$allocator@UShortFuncInfo@@@2@@2@Ustring_iless@@V?$allocator@UShortFuncInfo@@@2@@std@@KAAAU?$pair@$$CBV?$basic_string@DU?$char_traits@D@std@@V?$allocator@D@2@@std@@UShortFuncInfo@@@2@PAU_Node@12@@Z 00426df0 f i UiPlayerBar.obj
 0001:00025e00       ?_Lbound@?$_Tree@V?$basic_string@DU?$char_traits@D@std@@V?$allocator@D@2@@std@@U?$pair@$$CBV?$basic_string@DU?$char_traits@D@std@@V?$allocator@D@2@@std@@UShortFuncInfo@@@2@U_Kfn@?$map@V?$basic_string@DU?$char_traits@D@std@@V?$allocator@D@2@@std@@UShortFuncInfo@@Ustring_iless@@V?$allocator@UShortFuncInfo@@@2@@2@Ustring_iless@@V?$allocator@UShortFuncInfo@@@2@@std@@IBEPAU_Node@12@ABV?$basic_string@DU?$char_traits@D@std@@V?$allocator@D@2@@2@@Z 00426e00 f i UiPlayerBar.obj
 0001:00025ed0       ??0const_iterator@?$_Tree@V?$basic_string@DU?$char_traits@D@std@@V?$allocator@D@2@@std@@U?$pair@$$CBV?$basic_string@DU?$char_traits@D@std@@V?$allocator@D@2@@std@@UShortFuncInfo@@@2@U_Kfn@?$map@V?$basic_string@DU?$char_traits@D@std@@V?$allocator@D@2@@std@@UShortFuncInfo@@Ustring_iless@@V?$allocator@UShortFuncInfo@@@2@@2@Ustring_iless@@V?$allocator@UShortFuncInfo@@@2@@std@@QAE@PAU_Node@12@@Z 00426ed0 f i UiPlayerBar.obj
 0001:00025ef0       ?_Left@?$_Tree@V?$basic_string@DU?$char_traits@D@std@@V?$allocator@D@2@@std@@U?$pair@$$CBV?$basic_string@DU?$char_traits@D@std@@V?$allocator@D@2@@std@@UShortFuncInfo@@@2@U_Kfn@?$map@V?$basic_string@DU?$char_traits@D@std@@V?$allocator@D@2@@std@@UShortFuncInfo@@Ustring_iless@@V?$allocator@UShortFuncInfo@@@2@@2@Ustring_iless@@V?$allocator@UShortFuncInfo@@@2@@std@@KAAAPAU_Node@12@PAU312@@Z 00426ef0 f i UiPlayerBar.obj
 0001:00025f00       ?_Right@?$_Tree@V?$basic_string@DU?$char_traits@D@std@@V?$allocator@D@2@@std@@U?$pair@$$CBV?$basic_string@DU?$char_traits@D@std@@V?$allocator@D@2@@std@@UShortFuncInfo@@@2@U_Kfn@?$map@V?$basic_string@DU?$char_traits@D@std@@V?$allocator@D@2@@std@@UShortFuncInfo@@Ustring_iless@@V?$allocator@UShortFuncInfo@@@2@@2@Ustring_iless@@V?$allocator@UShortFuncInfo@@@2@@std@@KAAAPAU_Node@12@PAU312@@Z 00426f00 f i UiPlayerBar.obj
 0001:00025f10       ?_Root@?$_Tree@V?$basic_string@DU?$char_traits@D@std@@V?$allocator@D@2@@std@@U?$pair@$$CBV?$basic_string@DU?$char_traits@D@std@@V?$allocator@D@2@@std@@UShortFuncInfo@@@2@U_Kfn@?$map@V?$basic_string@DU?$char_traits@D@std@@V?$allocator@D@2@@std@@UShortFuncInfo@@Ustring_iless@@V?$allocator@UShortFuncInfo@@@2@@2@Ustring_iless@@V?$allocator@UShortFuncInfo@@@2@@std@@IBEAAPAU_Node@12@XZ 00426f10 f i UiPlayerBar.obj
 0001:00025f30       ?_Parent@?$_Tree@V?$basic_string@DU?$char_traits@D@std@@V?$allocator@D@2@@std@@U?$pair@$$CBV?$basic_string@DU?$char_traits@D@std@@V?$allocator@D@2@@std@@UShortFuncInfo@@@2@U_Kfn@?$map@V?$basic_string@DU?$char_traits@D@std@@V?$allocator@D@2@@std@@UShortFuncInfo@@Ustring_iless@@V?$allocator@UShortFuncInfo@@@2@@2@Ustring_iless@@V?$allocator@UShortFuncInfo@@@2@@std@@KAAAPAU_Node@12@PAU312@@Z 00426f30 f i UiPlayerBar.obj
 0001:00025f40       ??0KUiPlayerControlBar@@AAE@XZ 00426f40 f   UiPlayerControlBar.obj
 0001:0002602d       ??1KUiPlayerControlBar@@EAE@XZ 0042702d f   UiPlayerControlBar.obj
 0001:00026114       ?OpenWindow@KUiPlayerControlBar@@SAPAV1@XZ 00427114 f   UiPlayerControlBar.obj
 0001:000261c0       ?GetIfVisible@KUiPlayerControlBar@@SAPAV1@XZ 004271c0 f   UiPlayerControlBar.obj
 0001:000261e6       ?CloseWindow@KUiPlayerControlBar@@SAX_N@Z 004271e6 f   UiPlayerControlBar.obj
 0001:00026225       ?Initialize@KUiPlayerControlBar@@AAEXXZ 00427225 f   UiPlayerControlBar.obj
 0001:00026308       ?LoadScheme@KUiPlayerControlBar@@SAXPBD@Z 00427308 f   UiPlayerControlBar.obj
 0001:00026581       ?Breathe@KUiPlayerControlBar@@EAEXXZ 00427581 f   UiPlayerControlBar.obj
 0001:000266cb       ?Add@KUiPlayerControlBar@@AAEXHPAUKStateControl@@@Z 004276cb f   UiPlayerControlBar.obj
 0001:00026db2       ?Release@KUiPlayerControlBar@@AAEXXZ 00427db2 f   UiPlayerControlBar.obj
 0001:00026e3d       ?SetItemBtnInfo@KUiPlayerControlBar@@SAXHPBD@Z 00427e3d f   UiPlayerControlBar.obj
 0001:0002715c       ?ClearItemBtn@KUiPlayerControlBar@@SAXXZ 0042815c f   UiPlayerControlBar.obj
 0001:00027219       ?SetItemBtnPos@KUiPlayerControlBar@@SAXHHH@Z 00428219 f   UiPlayerControlBar.obj
 0001:00027390       ??_EKUiPlayerControlBar@@EAEPAXI@Z 00428390 f i UiPlayerControlBar.obj
 0001:00027390       ??_GKUiPlayerControlBar@@EAEPAXI@Z 00428390 f i UiPlayerControlBar.obj
 0001:000273c0       ?SetColor@KWndPureTextBtn@@QAEXIII@Z 004283c0 f i UiPlayerControlBar.obj
 0001:00027400       ?SetItem@KWndPureTextBtn@@QAEXPBD@Z 00428400 f i UiPlayerControlBar.obj
 0001:00027430       ?GetIfVisible@KUiStatus@@SAPAV1@XZ 00428430 f   UiStatus.obj
 0001:00027456       ?OpenWindow@KUiStatus@@SAPAV1@_N@Z 00428456 f   UiStatus.obj
 0001:00027533       ?CloseWindow@KUiStatus@@SAX_N@Z 00428533 f   UiStatus.obj
 0001:00027575       ?Initialize@KUiStatus@@AAEXXZ 00428575 f   UiStatus.obj
 0001:00027ab0       ?SwitchExpand@KUiStatus@@QAEXH@Z 00428ab0 f   UiStatus.obj
 0001:00027baf       ?LoadScheme@KUiStatus@@SAXPBD@Z 00428baf f   UiStatus.obj
 0001:00027c51       ?LoadScheme@KUiStatus@@AAEXPAVKIniFile@@@Z 00428c51 f   UiStatus.obj
 0001:000282ae       ?WndProc@KUiStatus@@EAEHIIH@Z 004292ae f   UiStatus.obj
 0001:0002878e       ?UseRemainPoint@KUiStatus@@AAEXHH@Z 0042978e f   UiStatus.obj
 0001:00028868       ?UpdateBaseData@KUiStatus@@QAEXXZ 00429868 f   UiStatus.obj
 0001:000288de       ?Breathe@KUiStatus@@UAEXXZ 004298de f   UiStatus.obj
 0001:00029127       ?UpdateRuntimeInfo@KUiStatus@@QAEXPAUKUiPlayerRuntimeInfo@@@Z 0042a127 f   UiStatus.obj
 0001:000291d4       ?UpdateData@KUiStatus@@UAEXXZ 0042a1d4 f   UiStatus.obj
 0001:000291fa       ?UpdateAllEquips@KUiStatus@@QAEXXZ 0042a1fa f   UiStatus.obj
 0001:000292a5       ?UpdateRuntimeAttribute@KUiStatus@@QAEXPAUKUiPlayerAttribute@@@Z 0042a2a5 f   UiStatus.obj
 0001:0002968c       ?OnEquiptChanged@KUiStatus@@AAEXPAUITEM_PICKDROP_PLACE@@0@Z 0042a68c f   UiStatus.obj
 0001:00029870       ?UpdateEquip@KUiStatus@@QAEXPAUKUiObjAtRegion@@H@Z 0042a870 f   UiStatus.obj
 0001:00029910       ??0KUiStatus@@AAE@XZ       0042a910 f i UiStatus.obj
 0001:00029cf0       ??_GKUiStatus@@EAEPAXI@Z   0042acf0 f i UiStatus.obj
 0001:00029cf0       ??_EKUiStatus@@EAEPAXI@Z   0042acf0 f i UiStatus.obj
 0001:00029d20       ??1KUiStatus@@EAE@XZ       0042ad20 f i UiStatus.obj
 0001:0002a100       ??0KUiOptions@@AAE@XZ      0042b100 f   UiOptions.obj
 0001:0002a31e       ?CancelMenu@KUiOptions@@AAEXXZ 0042b31e f   UiOptions.obj
 0001:0002a35a       ?GetIfVisible@KUiOptions@@SAPAV1@XZ 0042b35a f   UiOptions.obj
 0001:0002a380       ?OpenWindow@KUiOptions@@SAPAV1@PAVKWndWindow@@@Z 0042b380 f   UiOptions.obj
 0001:0002a45c       ?CloseWindow@KUiOptions@@SAXXZ 0042b45c f   UiOptions.obj
 0001:0002a4c0       ?Initialize@KUiOptions@@AAEXXZ 0042b4c0 f   UiOptions.obj
 0001:0002a5f5       ?LoadScheme@KUiOptions@@SAXPBD@Z 0042b5f5 f   UiOptions.obj
 0001:0002a697       ?LoadScheme@KUiOptions@@AAEXPAVKIniFile@@@Z 0042b697 f   UiOptions.obj
 0001:0002aa75       ?WndProc@KUiOptions@@EAEHIIH@Z 0042ba75 f   UiOptions.obj
 0001:0002ac49       ?UpdateSettingSet@KUiOptions@@AAEXH_N@Z 0042bc49 f   UiOptions.obj
 0001:0002ad83       ?PopupSeleteSetMenu@KUiOptions@@AAEXHH@Z 0042bd83 f   UiOptions.obj
 0001:0002aeac       ?OnScrollBarPosChanged@KUiOptions@@AAEXPAVKWndWindow@@H@Z 0042beac f   UiOptions.obj
 0001:0002afac       ?UpdateAllToggleBtn@KUiOptions@@AAEXXZ 0042bfac f   UiOptions.obj
 0001:0002b1dc       ?UpdateAllStatusImg@KUiOptions@@AAEXXZ 0042c1dc f   UiOptions.obj
 0001:0002b299       ?LoadSetting@KUiOptions@@SAH_N0@Z 0042c299 f   UiOptions.obj
 0001:0002b6f8       ?StoreSetting@KUiOptions@@AAEXXZ 0042c6f8 f   UiOptions.obj
 0001:0002b7fe       ?ToggleOption@KUiOptions@@QAEXH@Z 0042c7fe f   UiOptions.obj
 0001:0002b916       ?SetMusicValue@KUiOptions@@QAEXH@Z 0042c916 f   UiOptions.obj
 0001:0002b95b       ?SetSoundValue@KUiOptions@@QAEXH@Z 0042c95b f   UiOptions.obj
 0001:0002b9a0       ?SetBrightness@KUiOptions@@QAEXH@Z 0042c9a0 f   UiOptions.obj
 0001:0002b9f0       ??_EKUiOptions@@EAEPAXI@Z  0042c9f0 f i UiOptions.obj
 0001:0002b9f0       ??_GKUiOptions@@EAEPAXI@Z  0042c9f0 f i UiOptions.obj
 0001:0002ba20       ??1KUiOptions@@EAE@XZ      0042ca20 f i UiOptions.obj
 0001:0002bb30       ?OpenWindow@KUiInit@@SAPAV1@_N0@Z 0042cb30 f   UiInit.obj
 0001:0002bc6d       ?CloseWindow@KUiInit@@SAXXZ 0042cc6d f   UiInit.obj
 0001:0002bc9a       ?PlayTitleMusic@KUiInit@@SAXXZ 0042cc9a f   UiInit.obj
 0001:0002bdeb       ?StopTitleMusic@KUiInit@@SAXXZ 0042cdeb f   UiInit.obj
 0001:0002be19       ?LoadScheme@KUiInit@@AAEXPBD@Z 0042ce19 f   UiInit.obj
 0001:0002c04c       ?Initialize@KUiInit@@AAEXXZ 0042d04c f   UiInit.obj
 0001:0002c17a       ?WndProc@KUiInit@@EAEHIIH@Z 0042d17a f   UiInit.obj
 0001:0002c212       ?OnKeyDown@KUiInit@@AAEHI@Z 0042d212 f   UiInit.obj
 0001:0002c3b5       ?OnClickButton@KUiInit@@AAEXPAVKWndButton@@@Z 0042d3b5 f   UiInit.obj
 0001:0002c44f       ?OnAutoLogin@KUiInit@@AAEXXZ 0042d44f f   UiInit.obj
 0001:0002c4d7       ?GetActiveBtn@KUiInit@@AAEPAVKWndButton@@XZ 0042d4d7 f   UiInit.obj
 0001:0002c58a       ?ShowCompleted@KUiInit@@EAEXXZ 0042d58a f   UiInit.obj
 0001:0002c5b0       ??0KUiInit@@AAE@XZ         0042d5b0 f i UiInit.obj
 0001:0002c6a0       ??_EKUiInit@@EAEPAXI@Z     0042d6a0 f i UiInit.obj
 0001:0002c6a0       ??_GKUiInit@@EAEPAXI@Z     0042d6a0 f i UiInit.obj
 0001:0002c6d0       ??1KUiInit@@EAE@XZ         0042d6d0 f i UiInit.obj
 0001:0002c7c0       ?Initialize@KUiRecovery@@QAEXXZ 0042d7c0 f   UiAutoPlay.obj
 0001:0002cb04       ?LoadScheme@KUiRecovery@@QAEXPAVKIniFile@@@Z 0042db04 f   UiAutoPlay.obj
 0001:0002d0c2       ?PopupSelRoomNE@KUiRecovery@@AAEXXZ 0042e0c2 f   UiAutoPlay.obj
 0001:0002d204       ?SetPortalRoomNE@KUiRecovery@@AAEXH@Z 0042e204 f   UiAutoPlay.obj
 0001:0002d25f       ?PaintWindow@KUiRecovery@@EAEXXZ 0042e25f f   UiAutoPlay.obj
 0001:0002d26a       ?WndProc@KUiRecovery@@EAEHIIH@Z 0042e26a f   UiAutoPlay.obj
 0001:0002da88       ?LoadSetting@KUiRecovery@@QAEXPAVKIniFile@@@Z 0042ea88 f   UiAutoPlay.obj
 0001:0002e203       ?SaveSetting@KUiRecovery@@QAEXPAVKIniFile@@@Z 0042f203 f   UiAutoPlay.obj
 0001:0002e5cd       ?OnCheckInput@KUiRecovery@@AAEXXZ 0042f5cd f   UiAutoPlay.obj
 0001:0002e7c2       ?Initialize@KUiPick@@QAEXXZ 0042f7c2 f   UiAutoPlay.obj
 0001:0002ea6c       ?LoadScheme@KUiPick@@QAEXPAVKIniFile@@@Z 0042fa6c f   UiAutoPlay.obj
 0001:0002ee68       ?WndProc@KUiPick@@EAEHIIH@Z 0042fe68 f   UiAutoPlay.obj
 0001:0002f531       ?SetFilterMagicList@KUiPick@@AAEXXZ 00430531 f   UiAutoPlay.obj
 0001:0002f668       ?FilterSameMagic@KUiPick@@AAEHPBD@Z 00430668 f   UiAutoPlay.obj
 0001:0002f6ba       ?FindSameMagic@KUiPick@@AAEHPBD@Z 004306ba f   UiAutoPlay.obj
 0001:0002f708       ?PickPopup@KUiPick@@AAEXH@Z 00430708 f   UiAutoPlay.obj
 0001:0002f8c6       ?SetPick@KUiPick@@AAEXHH@Z 004308c6 f   UiAutoPlay.obj
 0001:0002f978       ?PaintWindow@KUiPick@@EAEXXZ 00430978 f   UiAutoPlay.obj
 0001:0002fa35       ?LoadSetting@KUiPick@@QAEXPAVKIniFile@@@Z 00430a35 f   UiAutoPlay.obj
 0001:0002feb7       ?SaveSetting@KUiPick@@QAEXPAVKIniFile@@@Z 00430eb7 f   UiAutoPlay.obj
 0001:00030113       ?Initialize@KUiFight@@QAEXXZ 00431113 f   UiAutoPlay.obj
 0001:000304b8       ?LoadScheme@KUiFight@@QAEXPAVKIniFile@@@Z 004314b8 f   UiAutoPlay.obj
 0001:00030ad0       ?WndProc@KUiFight@@EAEHIIH@Z 00431ad0 f   UiAutoPlay.obj
 0001:000310d2       ?PaintWindow@KUiFight@@EAEXXZ 004320d2 f   UiAutoPlay.obj
 0001:000310dd       ?LoadSetting@KUiFight@@QAEXPAVKIniFile@@@Z 004320dd f   UiAutoPlay.obj
 0001:000314d0       ?SaveSetting@KUiFight@@QAEXPAVKIniFile@@@Z 004324d0 f   UiAutoPlay.obj
 0001:0003166b       ?OnCheckInput@KUiFight@@AAEXXZ 0043266b f   UiAutoPlay.obj
 0001:00031708       ?PopupSupportSkills@KUiFight@@AAEXH@Z 00432708 f   UiAutoPlay.obj
 0001:0003194e       ?SetSupportSkills@KUiFight@@AAEXHH@Z 0043294e f   UiAutoPlay.obj
 0001:00031b17       ?SetFightSkills@KUiFight@@AAEXHH@Z 00432b17 f   UiAutoPlay.obj
 0001:00031bd0       ?SetSupportFightSkills@KUiFight@@AAEXHH@Z 00432bd0 f   UiAutoPlay.obj
 0001:00031cd2       ?SetAuraSkills@KUiFight@@AAEXHH@Z 00432cd2 f   UiAutoPlay.obj
 0001:00031e2f       ?PopupFightSkills@KUiFight@@AAEXH@Z 00432e2f f   UiAutoPlay.obj
 0001:00031fe4       ?PopupSupportFightSkills@KUiFight@@AAEXH@Z 00432fe4 f   UiAutoPlay.obj
 0001:000321c9       ?PopupAuraSkills@KUiFight@@AAEXH@Z 004331c9 f   UiAutoPlay.obj
 0001:000323c3       ?Initialize@KUiOther@@QAEXXZ 004333c3 f   UiAutoPlay.obj
 0001:0003261c       ?LoadScheme@KUiOther@@QAEXPAVKIniFile@@@Z 0043361c f   UiAutoPlay.obj
 0001:00032946       ?WndProc@KUiOther@@EAEHIIH@Z 00433946 f   UiAutoPlay.obj
 0001:00032e72       ?InsertMoveMpsList@KUiOther@@AAEHHHH@Z 00433e72 f   UiAutoPlay.obj
 0001:00032f71       ?SetMoveMpsList@KUiOther@@AAEXXZ 00433f71 f   UiAutoPlay.obj
 0001:0003309b       ?LoadSetting@KUiOther@@QAEXPAVKIniFile@@@Z 0043409b f   UiAutoPlay.obj
 0001:0003337f       ?SaveSetting@KUiOther@@QAEXPAVKIniFile@@@Z 0043437f f   UiAutoPlay.obj
 0001:0003356d       ?OpenPopup@KUiOther@@AAEXH@Z 0043456d f   UiAutoPlay.obj
 0001:00033694       ?SetPTSel@KUiOther@@AAEXH@Z 00434694 f   UiAutoPlay.obj
 0001:0003381c       ?SetPartyList@KUiOther@@AAEXXZ 0043481c f   UiAutoPlay.obj
 0001:000338c5       ?FilterSamePartyList@KUiOther@@AAEHPBD@Z 004348c5 f   UiAutoPlay.obj
 0001:00033941       ?PlayerList@KUiOther@@AAEXH@Z 00434941 f   UiAutoPlay.obj
 0001:00033c44       ?PaintWindow@KUiOther@@EAEXXZ 00434c44 f   UiAutoPlay.obj
 0001:00033d3e       ?OnCheckInput@KUiOther@@AAEXXZ 00434d3e f   UiAutoPlay.obj
 0001:00033d6e       ?OpenWindow@KUiAutoPlay@@SAPAV1@_N@Z 00434d6e f   UiAutoPlay.obj
 0001:00033e66       ?GetIfVisible@KUiAutoPlay@@SAPAV1@XZ 00434e66 f   UiAutoPlay.obj
 0001:00033e8c       ?CloseWindow@KUiAutoPlay@@SAX_N@Z 00434e8c f   UiAutoPlay.obj
 0001:00033ece       ?Initialize@KUiAutoPlay@@AAEXXZ 00434ece f   UiAutoPlay.obj
 0001:00034015       ?LoadScheme@KUiAutoPlay@@SAXPBD@Z 00435015 f   UiAutoPlay.obj
 0001:00034214       ?WndProc@KUiAutoPlay@@EAEHIIH@Z 00435214 f   UiAutoPlay.obj
 0001:00034289       ?PaintWindow@KUiAutoPlay@@EAEXXZ 00435289 f   UiAutoPlay.obj
 0001:00034335       ?SavePrivateSetting@KUiAutoPlay@@SAHPAVKIniFile@@@Z 00435335 f   UiAutoPlay.obj
 0001:000343ab       ?LoadPrivateSetting@KUiAutoPlay@@SAHPAVKIniFile@@@Z 004353ab f   UiAutoPlay.obj
 0001:00034421       ?UpdateSceneTimeInfo@KUiAutoPlay@@SAXPAUKUiSceneTimeInfo@@@Z 00435421 f   UiAutoPlay.obj
 0001:00034450       ?GetCurSel@KWndList2@@QAEHXZ 00435450 f i UiAutoPlay.obj
 0001:00034470       ??0KUiAutoPlay@@AAE@XZ     00435470 f i UiAutoPlay.obj
 0001:00034570       ??_GKUiAutoPlay@@EAEPAXI@Z 00435570 f i UiAutoPlay.obj
 0001:00034570       ??_EKUiAutoPlay@@EAEPAXI@Z 00435570 f i UiAutoPlay.obj
 0001:000345a0       ??1KUiAutoPlay@@EAE@XZ     004355a0 f i UiAutoPlay.obj
 0001:000346a0       ??0KUiRecovery@@QAE@XZ     004356a0 f i UiAutoPlay.obj
 0001:00034a50       ??0KWndShadow@@QAE@XZ      00435a50 f i UiAutoPlay.obj
 0001:00034a80       ??_EKWndShadow@@UAEPAXI@Z  00435a80 f i UiAutoPlay.obj
 0001:00034a80       ??_GKWndShadow@@UAEPAXI@Z  00435a80 f i UiAutoPlay.obj
 0001:00034ab0       ??1KWndShadow@@UAE@XZ      00435ab0 f i UiAutoPlay.obj
 0001:00034ad0       ??1KUiRecovery@@UAE@XZ     00435ad0 f i UiAutoPlay.obj
 0001:00034e70       ??0KUiPick@@QAE@XZ         00435e70 f i UiAutoPlay.obj
 0001:00035110       ??1KUiPick@@UAE@XZ         00436110 f i UiAutoPlay.obj
 0001:000353a0       ??0KUiFight@@QAE@XZ        004363a0 f i UiAutoPlay.obj
 0001:00035780       ??1KUiFight@@UAE@XZ        00436780 f i UiAutoPlay.obj
 0001:00035b60       ??0KUiOther@@QAE@XZ        00436b60 f i UiAutoPlay.obj
 0001:00035d80       ??1KUiOther@@UAE@XZ        00436d80 f i UiAutoPlay.obj
 0001:00035f90       ??_GKUiRecovery@@UAEPAXI@Z 00436f90 f i UiAutoPlay.obj
 0001:00035f90       ??_EKUiRecovery@@UAEPAXI@Z 00436f90 f i UiAutoPlay.obj
 0001:00035fc0       ??0KWndPage@@QAE@XZ        00436fc0 f i UiAutoPlay.obj
 0001:00035fe0       ??1KWndPage@@UAE@XZ        00436fe0 f i UiAutoPlay.obj
 0001:00036000       ??_GKUiPick@@UAEPAXI@Z     00437000 f i UiAutoPlay.obj
 0001:00036000       ??_EKUiPick@@UAEPAXI@Z     00437000 f i UiAutoPlay.obj
 0001:00036030       ??_GKUiFight@@UAEPAXI@Z    00437030 f i UiAutoPlay.obj
 0001:00036030       ??_EKUiFight@@UAEPAXI@Z    00437030 f i UiAutoPlay.obj
 0001:00036060       ??_GKUiOther@@UAEPAXI@Z    00437060 f i UiAutoPlay.obj
 0001:00036060       ??_EKUiOther@@UAEPAXI@Z    00437060 f i UiAutoPlay.obj
 0001:00036090       ??_EKWndPage@@UAEPAXI@Z    00437090 f i UiAutoPlay.obj
 0001:00036090       ??_GKWndPage@@UAEPAXI@Z    00437090 f i UiAutoPlay.obj
 0001:000360c0       ?OpenWindow@KUiBreakItem@@SAPAV1@PAUKUiObjAtContRegion@@PAUKUiItemBuySelInfo@@H@Z 004370c0 f   UiBreakItem.obj
 0001:00036250       ??0KUiBreakItem@@AAE@XZ    00437250 f   UiBreakItem.obj
 0001:0003635e       ?GetIfVisible@KUiBreakItem@@SAPAV1@XZ 0043735e f   UiBreakItem.obj
 0001:00036384       ?CloseWindow@KUiBreakItem@@SAX_N@Z 00437384 f   UiBreakItem.obj
 0001:000363c6       ?Show@KUiBreakItem@@EAEXXZ 004373c6 f   UiBreakItem.obj
 0001:00036453       ?Hide@KUiBreakItem@@EAEXXZ 00437453 f   UiBreakItem.obj
 0001:00036472       ?Initialize@KUiBreakItem@@AAEHXZ 00437472 f   UiBreakItem.obj
 0001:00036598       ?LoadScheme@KUiBreakItem@@AAEXPBD@Z 00437598 f   UiBreakItem.obj
 0001:000367ba       ?WndProc@KUiBreakItem@@EAEHIIH@Z 004377ba f   UiBreakItem.obj
 0001:000368f6       ?OnCancel@KUiBreakItem@@AAEXXZ 004378f6 f   UiBreakItem.obj
 0001:0003690b       ?OnCheckInput@KUiBreakItem@@AAEXXZ 0043790b f   UiBreakItem.obj
 0001:000369a1       ?OnIncrease@KUiBreakItem@@AAEXXZ 004379a1 f   UiBreakItem.obj
 0001:00036a05       ?OnDecrease@KUiBreakItem@@AAEXXZ 00437a05 f   UiBreakItem.obj
 0001:00036a62       ?OnOk@KUiBreakItem@@AAEXXZ 00437a62 f   UiBreakItem.obj
 0001:00036ad0       ??_EKUiBreakItem@@EAEPAXI@Z 00437ad0 f i UiBreakItem.obj
 0001:00036ad0       ??_GKUiBreakItem@@EAEPAXI@Z 00437ad0 f i UiBreakItem.obj
 0001:00036b00       ??1KUiBreakItem@@EAE@XZ    00437b00 f i UiBreakItem.obj
 0001:00036bf0       ?GetIfVisible@KUiExpandItem@@SAPAV1@XZ 00437bf0 f   UiExpandItem.obj
 0001:00036c16       ?OpenWindow@KUiExpandItem@@SAPAV1@XZ 00437c16 f   UiExpandItem.obj
 0001:00036ce8       ?CloseWindow@KUiExpandItem@@SAXXZ 00437ce8 f   UiExpandItem.obj
 0001:00036d10       ?Initialize@KUiExpandItem@@AAEXXZ 00437d10 f   UiExpandItem.obj
 0001:00036d9b       ?OnNpcTradeMode@KUiExpandItem@@SAX_N@Z 00437d9b f   UiExpandItem.obj
 0001:00036dc8       ?UpdateData@KUiExpandItem@@EAEXXZ 00437dc8 f   UiExpandItem.obj
 0001:00036e84       ?UpdateItem@KUiExpandItem@@QAEXPAUKUiObjAtRegion@@H@Z 00437e84 f   UiExpandItem.obj
 0001:00036f11       ?LoadScheme@KUiExpandItem@@SAXPBD@Z 00437f11 f   UiExpandItem.obj
 0001:00037023       ?WndProc@KUiExpandItem@@EAEHIIH@Z 00438023 f   UiExpandItem.obj
 0001:000371a5       ?PaintWindow@KUiExpandItem@@EAEXXZ 004381a5 f   UiExpandItem.obj
 0001:0003723d       ?OnClickItem@KUiExpandItem@@AAEXPAUKUiDraggedObject@@_N@Z 0043823d f   UiExpandItem.obj
 0001:000373ed       ?OnRepairItem@KUiExpandItem@@AAEXPAUKUiDraggedObject@@@Z 004383ed f   UiExpandItem.obj
 0001:00037492       ?OnBreakItem@KUiExpandItem@@AAEXPAUKUiDraggedObject@@_N@Z 00438492 f   UiExpandItem.obj
 0001:0003758f       ?OnItemPickDrop@KUiExpandItem@@AAEXPAUITEM_PICKDROP_PLACE@@0@Z 0043858f f   UiExpandItem.obj
 0001:00037760       ??0KUiExpandItem@@AAE@XZ   00438760 f i UiExpandItem.obj
 0001:000377d0       ??_GKUiExpandItem@@EAEPAXI@Z 004387d0 f i UiExpandItem.obj
 0001:000377d0       ??_EKUiExpandItem@@EAEPAXI@Z 004387d0 f i UiExpandItem.obj
 0001:00037800       ??1KUiExpandItem@@EAE@XZ   00438800 f i UiExpandItem.obj
 0001:00037870       ??0KUiGetMoney@@AAE@XZ     00438870 f   UiGetMoney.obj
 0001:00037908       ?OpenWindow@KUiGetMoney@@SAPAV1@HHPAVKWndWindow@@I0@Z 00438908 f   UiGetMoney.obj
 0001:00037a20       ?CloseWindow@KUiGetMoney@@SAX_N@Z 00438a20 f   UiGetMoney.obj
 0001:00037a72       ?GetIfVisible@KUiGetMoney@@SAPAV1@XZ 00438a72 f   UiGetMoney.obj
 0001:00037a98       ?Show@KUiGetMoney@@AAEXPAVKWndWindow@@@Z 00438a98 f   UiGetMoney.obj
 0001:00037b57       ?Hide@KUiGetMoney@@EAEXXZ  00438b57 f   UiGetMoney.obj
 0001:00037b76       ?Initialize@KUiGetMoney@@AAEHXZ 00438b76 f   UiGetMoney.obj
 0001:00037c0b       ?LoadScheme@KUiGetMoney@@SAXPBD@Z 00438c0b f   UiGetMoney.obj
 0001:00037d35       ?WndProc@KUiGetMoney@@EAEHIIH@Z 00438d35 f   UiGetMoney.obj
 0001:00037e32       ?OnOk@KUiGetMoney@@AAEXXZ  00438e32 f   UiGetMoney.obj
 0001:00037e98       ?OnCheckInput@KUiGetMoney@@AAEXXZ 00438e98 f   UiGetMoney.obj
 0001:00037f1f       ?OnCancel@KUiGetMoney@@AAEXXZ 00438f1f f   UiGetMoney.obj
 0001:00037f70       ??_GKUiGetMoney@@EAEPAXI@Z 00438f70 f i UiGetMoney.obj
 0001:00037f70       ??_EKUiGetMoney@@EAEPAXI@Z 00438f70 f i UiGetMoney.obj
 0001:00037fa0       ??1KUiGetMoney@@EAE@XZ     00438fa0 f i UiGetMoney.obj
 0001:00038020       ??0KUiGive@@AAE@XZ         00439020 f   UiGive.obj
 0001:000380d4       ?OpenWindow@KUiGive@@SAPAV1@PBDPAD@Z 004390d4 f   UiGive.obj
 0001:000381e4       ?CloseWindow@KUiGive@@SAX_N@Z 004391e4 f   UiGive.obj
 0001:00038234       ?GetIfVisible@KUiGive@@SAPAV1@XZ 00439234 f   UiGive.obj
 0001:0003825a       ?Initialize@KUiGive@@AAEXXZ 0043925a f   UiGive.obj
 0001:00038361       ?LoadScheme@KUiGive@@SAXPBD@Z 00439361 f   UiGive.obj
 0001:00038526       ?WndProc@KUiGive@@EAEHIIH@Z 00439526 f   UiGive.obj
 0001:000386f4       ?UpdateData@KUiGive@@AAEXPBDPAD@Z 004396f4 f   UiGive.obj
 0001:00038810       ?UpdateItem@KUiGive@@QAEXPAUKUiObjAtRegion@@H@Z 00439810 f   UiGive.obj
 0001:00038890       ?OnClickItem@KUiGive@@QAEXPAUKUiDraggedObject@@@Z 00439890 f   UiGive.obj
 0001:000388ec       ?OnItemPickDrop@KUiGive@@QAEXPAUITEM_PICKDROP_PLACE@@0@Z 004398ec f   UiGive.obj
 0001:00038a00       ??_EKUiGive@@EAEPAXI@Z     00439a00 f i UiGive.obj
 0001:00038a00       ??_GKUiGive@@EAEPAXI@Z     00439a00 f i UiGive.obj
 0001:00038a30       ??1KUiGive@@EAE@XZ         00439a30 f i UiGive.obj
 0001:00038af0       ?GetIfVisible@KUiItem@@SAPAV1@XZ 00439af0 f   UiItem.obj
 0001:00038b16       ?OpenWindow@KUiItem@@SAPAV1@_N@Z 00439b16 f   UiItem.obj
 0001:00038c24       ?CloseWindow@KUiItem@@SAX_N@Z 00439c24 f   UiItem.obj
 0001:00038c74       ?Initialize@KUiItem@@AAEXXZ 00439c74 f   UiItem.obj
 0001:00038e16       ?Breathe@KUiItem@@UAEXXZ   00439e16 f   UiItem.obj
 0001:00038f29       ?OnNpcTradeMode@KUiItem@@SAX_N@Z 00439f29 f   UiItem.obj
 0001:00038f63       ?UpdateData@KUiItem@@EAEXXZ 00439f63 f   UiItem.obj
 0001:000390c5       ?UpdateItem@KUiItem@@QAEXPAUKUiObjAtRegion@@H@Z 0043a0c5 f   UiItem.obj
 0001:00039154       ?LoadScheme@KUiItem@@SAXPBD@Z 0043a154 f   UiItem.obj
 0001:000393f0       ?OnClickItem@KUiItem@@AAEXPAUKUiDraggedObject@@_N@Z 0043a3f0 f   UiItem.obj
 0001:000395a0       ?OnRepairItem@KUiItem@@AAEXPAUKUiDraggedObject@@@Z 0043a5a0 f   UiItem.obj
 0001:00039645       ?WndProc@KUiItem@@EAEHIIH@Z 0043a645 f   UiItem.obj
 0001:00039a43       ?OnGetMoney@KUiItem@@AAEXH@Z 0043aa43 f   UiItem.obj
 0001:00039a78       ?OnBreakItem@KUiItem@@AAEXPAUKUiDraggedObject@@_N@Z 0043aa78 f   UiItem.obj
 0001:00039b75       ?OnSetPrice@KUiItem@@AAEXPAUKUiDraggedObject@@@Z 0043ab75 f   UiItem.obj
 0001:00039c42       ?OnItemPickDrop@KUiItem@@AAEXPAUITEM_PICKDROP_PLACE@@0@Z 0043ac42 f   UiItem.obj
 0001:00039e10       ??0KUiItem@@AAE@XZ         0043ae10 f i UiItem.obj
 0001:00039f30       ??_GKUiItem@@EAEPAXI@Z     0043af30 f i UiItem.obj
 0001:00039f30       ??_EKUiItem@@EAEPAXI@Z     0043af30 f i UiItem.obj
 0001:00039f60       ??1KUiItem@@EAE@XZ         0043af60 f i UiItem.obj
 0001:0003a080       ??0KUiPlayerLock@@AAE@XZ   0043b080 f   UiPlayerLock.obj
 0001:0003a148       ??1KUiPlayerLock@@EAE@XZ   0043b148 f   UiPlayerLock.obj
 0001:0003a1f9       ?GetIfVisible@KUiPlayerLock@@SAPAV1@XZ 0043b1f9 f   UiPlayerLock.obj
 0001:0003a21f       ?OpenWindow@KUiPlayerLock@@SAPAV1@XZ 0043b21f f   UiPlayerLock.obj
 0001:0003a2e0       ?CloseWindow@KUiPlayerLock@@SAXXZ 0043b2e0 f   UiPlayerLock.obj
 0001:0003a30d       ?Initialize@KUiPlayerLock@@AAEXXZ 0043b30d f   UiPlayerLock.obj
 0001:0003a3e7       ?LoadScheme@KUiPlayerLock@@AAEXPBD@Z 0043b3e7 f   UiPlayerLock.obj
 0001:0003a5d5       ?Breathe@KUiPlayerLock@@EAEXXZ 0043b5d5 f   UiPlayerLock.obj
 0001:0003a602       ?UpdateNotice@KUiPlayerLock@@AAEXXZ 0043b602 f   UiPlayerLock.obj
 0001:0003a640       ?WndProc@KUiPlayerLock@@EAEHIIH@Z 0043b640 f   UiPlayerLock.obj
 0001:0003a700       ??_EKUiPlayerLock@@EAEPAXI@Z 0043b700 f i UiPlayerLock.obj
 0001:0003a700       ??_GKUiPlayerLock@@EAEPAXI@Z 0043b700 f i UiPlayerLock.obj
 0001:0003a730       ??0KUiFightSkillSubPage@@QAE@XZ 0043b730 f   UiSkills.obj
 0001:0003a7a5       ?Initialize@KUiFightSkillSubPage@@QAEXXZ 0043b7a5 f   UiSkills.obj
 0001:0003a811       ?LoadScheme@KUiFightSkillSubPage@@QAEXPBD@Z 0043b811 f   UiSkills.obj
 0001:0003a9e8       ?UpdateRemainPoint@KUiFightSkillSubPage@@QAEXH@Z 0043b9e8 f   UiSkills.obj
 0001:0003aa01       ?UpdateSkill@KUiFightSkillSubPage@@QAEXPAUKUiSkillData@@H@Z 0043ba01 f   UiSkills.obj
 0001:0003aa34       ?UpdateData@KUiFightSkillSubPage@@QAEXPAUKUiSkillData@@@Z 0043ba34 f   UiSkills.obj
 0001:0003aa9d       ?WndProc@KUiFightSkillSubPage@@EAEHIIH@Z 0043ba9d f   UiSkills.obj
 0001:0003ab94       ?PaintWindow@KUiFightSkillSubPage@@EAEXXZ 0043bb94 f   UiSkills.obj
 0001:0003ad3f       ?Initialize@KUiFightSkillSub@@QAEXXZ 0043bd3f f   UiSkills.obj
 0001:0003adae       ?LoadScheme@KUiFightSkillSub@@QAEXPBD@Z 0043bdae f   UiSkills.obj
 0001:0003af41       ?UpdateRemainPoint@KUiFightSkillSub@@QAEXH@Z 0043bf41 f   UiSkills.obj
 0001:0003af86       ?UpdateSkill@KUiFightSkillSub@@QAEXPAUKUiSkillData@@H@Z 0043bf86 f   UiSkills.obj
 0001:0003afd1       ?UpdateData@KUiFightSkillSub@@UAEXXZ 0043bfd1 f   UiSkills.obj
 0001:0003b058       ?Initialize@KUiFightSkill@@QAEXXZ 0043c058 f   UiSkills.obj
 0001:0003b094       ?LoadScheme@KUiFightSkill@@QAEXPBD@Z 0043c094 f   UiSkills.obj
 0001:0003b171       ?UpdateData@KUiFightSkill@@UAEXXZ 0043c171 f   UiSkills.obj
 0001:0003b1d2       ?UpdateSkill@KUiFightSkill@@QAEXPAUKUiSkillData@@H@Z 0043c1d2 f   UiSkills.obj
 0001:0003b1f5       ?UpdateRemainPoint@KUiFightSkill@@QAEXH@Z 0043c1f5 f   UiSkills.obj
 0001:0003b228       ?OpenWindow@KUiSkills@@SAPAV1@XZ 0043c228 f   UiSkills.obj
 0001:0003b304       ?GetIfVisible@KUiSkills@@SAPAV1@XZ 0043c304 f   UiSkills.obj
 0001:0003b32a       ?CloseWindow@KUiSkills@@SAX_N@Z 0043c32a f   UiSkills.obj
 0001:0003b36c       ?Initialize@KUiSkills@@AAEXXZ 0043c36c f   UiSkills.obj
 0001:0003b402       ?LoadScheme@KUiSkills@@SAXPBD@Z 0043c402 f   UiSkills.obj
 0001:0003b51a       ?UpdateSkill@KUiSkills@@SAXPAUKUiSkillData@@H@Z 0043c51a f   UiSkills.obj
 0001:0003b648       ?UpdateFightRemainPoint@KUiSkills@@QAEXH@Z 0043c648 f   UiSkills.obj
 0001:0003b667       ?WndProc@KUiSkills@@EAEHIIH@Z 0043c667 f   UiSkills.obj
 0001:0003b6b0       ??_GKUiFightSkillSubPage@@UAEPAXI@Z 0043c6b0 f i UiSkills.obj
 0001:0003b6b0       ??_EKUiFightSkillSubPage@@UAEPAXI@Z 0043c6b0 f i UiSkills.obj
 0001:0003b6e0       ??1KUiFightSkillSubPage@@UAE@XZ 0043c6e0 f i UiSkills.obj
 0001:0003b740       ??0KUiSkills@@AAE@XZ       0043c740 f i UiSkills.obj
 0001:0003b7c0       ??_GKUiSkills@@EAEPAXI@Z   0043c7c0 f i UiSkills.obj
 0001:0003b7c0       ??_EKUiSkills@@EAEPAXI@Z   0043c7c0 f i UiSkills.obj
 0001:0003b7f0       ??1KUiSkills@@EAE@XZ       0043c7f0 f i UiSkills.obj
 0001:0003b870       ??0KUiFightSkill@@QAE@XZ   0043c870 f i UiSkills.obj
 0001:0003b8e0       ??1KUiFightSkill@@UAE@XZ   0043c8e0 f i UiSkills.obj
 0001:0003b940       ??_GKUiFightSkill@@UAEPAXI@Z 0043c940 f i UiSkills.obj
 0001:0003b940       ??_EKUiFightSkill@@UAEPAXI@Z 0043c940 f i UiSkills.obj
 0001:0003b970       ??0KUiFightSkillSub@@QAE@XZ 0043c970 f i UiSkills.obj
 0001:0003ba00       ??1KUiFightSkillSub@@UAE@XZ 0043ca00 f i UiSkills.obj
 0001:0003ba80       ??_GKUiFightSkillSub@@UAEPAXI@Z 0043ca80 f i UiSkills.obj
 0001:0003ba80       ??_EKUiFightSkillSub@@UAEPAXI@Z 0043ca80 f i UiSkills.obj
 0001:0003bab0       ??0KUiSkillTree@@AAE@XZ    0043cab0 f   UiSkillTree.obj
 0001:0003baf3       ?GetIfVisible@KUiSkillTree@@SAPAV1@XZ 0043caf3 f   UiSkillTree.obj
 0001:0003bb19       ?OpenWindow@KUiSkillTree@@SAPAV1@H@Z 0043cb19 f   UiSkillTree.obj
 0001:0003bc0f       ?CloseWindow@KUiSkillTree@@SAX_N@Z 0043cc0f f   UiSkillTree.obj
 0001:0003bc4e       ?Hide@KUiSkillTree@@EAEXXZ 0043cc4e f   UiSkillTree.obj
 0001:0003bc66       ?LoadConfig@KUiSkillTree@@SAXPAVKIniFile@@@Z 0043cc66 f   UiSkillTree.obj
 0001:0003bfb2       ?SaveConfig@KUiSkillTree@@SAXPAVKIniFile@@@Z 0043cfb2 f   UiSkillTree.obj
 0001:0003c0c9       ?Initialize@KUiSkillTree@@AAEXXZ 0043d0c9 f   UiSkillTree.obj
 0001:0003c112       ?UpdateWndRect@KUiSkillTree@@AAEXXZ 0043d112 f   UiSkillTree.obj
 0001:0003c226       ?UpdateData@KUiSkillTree@@EAEXXZ 0043d226 f   UiSkillTree.obj
 0001:0003c334       ?PtInWindow@KUiSkillTree@@EAEHHH@Z 0043d334 f   UiSkillTree.obj
 0001:0003c372       ?GetSkillAtPos@KUiSkillTree@@AAEHHH@Z 0043d372 f   UiSkillTree.obj
 0001:0003c45f       ?LoadScheme@KUiSkillTree@@SAXPBD@Z 0043d45f f   UiSkillTree.obj
 0001:0003c631       ?WndProc@KUiSkillTree@@EAEHIIH@Z 0043d631 f   UiSkillTree.obj
 0001:0003c7f5       ?HandleShortcutKey@KUiSkillTree@@SAXH@Z 0043d7f5 f   UiSkillTree.obj
 0001:0003c97d       ?DirectHandleShortcutKey@KUiSkillTree@@SAXH@Z 0043d97d f   UiSkillTree.obj
 0001:0003cb17       ?PaintWindow@KUiSkillTree@@EAEXXZ 0043db17 f   UiSkillTree.obj
 0001:0003cda0       ??_GKUiSkillTree@@EAEPAXI@Z 0043dda0 f i UiSkillTree.obj
 0001:0003cda0       ??_EKUiSkillTree@@EAEPAXI@Z 0043dda0 f i UiSkillTree.obj
 0001:0003cdd0       ??1KUiSkillTree@@EAE@XZ    0043ddd0 f i UiSkillTree.obj
 0001:0003cdf0       ?GetIfVisible@KUiStoreBox@@SAPAV1@XZ 0043ddf0 f   UiStoreBox.obj
 0001:0003ce16       ?OpenWindow@KUiStoreBox@@SAPAV1@H@Z 0043de16 f   UiStoreBox.obj
 0001:0003cf02       ?CloseWindow@KUiStoreBox@@SAXXZ 0043df02 f   UiStoreBox.obj
 0001:0003cf2f       ?Initialize@KUiStoreBox@@AAEXXZ 0043df2f f   UiStoreBox.obj
 0001:0003d051       ?UpdateData@KUiStoreBox@@AAEXH@Z 0043e051 f   UiStoreBox.obj
 0001:0003d2bf       ?UpdateItem@KUiStoreBox@@QAEXHPAUKUiObjAtRegion@@H@Z 0043e2bf f   UiStoreBox.obj
 0001:0003d3ac       ?LoadScheme@KUiStoreBox@@SAXPBD@Z 0043e3ac f   UiStoreBox.obj
 0001:0003d585       ?WndProc@KUiStoreBox@@EAEHIIH@Z 0043e585 f   UiStoreBox.obj
 0001:0003d785       ?OnGetMoney@KUiStoreBox@@AAEXH@Z 0043e785 f   UiStoreBox.obj
 0001:0003d7b1       ?OnClickItem@KUiStoreBox@@AAEXPAUKUiDraggedObject@@@Z 0043e7b1 f   UiStoreBox.obj
 0001:0003d80d       ?OnItemPickDrop@KUiStoreBox@@AAEXPAUITEM_PICKDROP_PLACE@@0@Z 0043e80d f   UiStoreBox.obj
 0001:0003d9ae       ?PaintWindow@KUiStoreBox@@EAEXXZ 0043e9ae f   UiStoreBox.obj
 0001:0003da40       ??0KUiStoreBox@@AAE@XZ     0043ea40 f i UiStoreBox.obj
 0001:0003db10       ??_EKUiStoreBox@@EAEPAXI@Z 0043eb10 f i UiStoreBox.obj
 0001:0003db10       ??_GKUiStoreBox@@EAEPAXI@Z 0043eb10 f i UiStoreBox.obj
 0001:0003db40       ??1KUiStoreBox@@EAE@XZ     0043eb40 f i UiStoreBox.obj
 0001:0003dc10       ?OpenWindow@KUiESCDlg@@SAPAV1@XZ 0043ec10 f   UiESCDlg.obj
 0001:0003dcd1       ??1KUiESCDlg@@EAE@XZ       0043ecd1 f   UiESCDlg.obj
 0001:0003dd8e       ?CloseWindow@KUiESCDlg@@SAX_N@Z 0043ed8e f   UiESCDlg.obj
 0001:0003ddd0       ?GetIfVisible@KUiESCDlg@@SAPAV1@XZ 0043edd0 f   UiESCDlg.obj
 0001:0003ddf6       ?Show@KUiESCDlg@@EAEXXZ    0043edf6 f   UiESCDlg.obj
 0001:0003de15       ?Hide@KUiESCDlg@@EAEXXZ    0043ee15 f   UiESCDlg.obj
 0001:0003de34       ?Initialize@KUiESCDlg@@AAEHXZ 0043ee34 f   UiESCDlg.obj
 0001:0003df13       ?LoadScheme@KUiESCDlg@@AAEXPBD@Z 0043ef13 f   UiESCDlg.obj
 0001:0003e0ad       ?WndProc@KUiESCDlg@@EAEHIIH@Z 0043f0ad f   UiESCDlg.obj
 0001:0003e116       ?OnKeyDown@KUiESCDlg@@AAEHI@Z 0043f116 f   UiESCDlg.obj
 0001:0003e2fa       ?OnClickButton@KUiESCDlg@@AAEXPAVKWndWindow@@@Z 0043f2fa f   UiESCDlg.obj
 0001:0003e3f3       ?GetActiveBtn@KUiESCDlg@@AAEPAVKWndButton@@XZ 0043f3f3 f   UiESCDlg.obj
 0001:0003e4b0       ??0KUiESCDlg@@AAE@XZ       0043f4b0 f i UiESCDlg.obj
 0001:0003e570       ??_GKUiESCDlg@@EAEPAXI@Z   0043f570 f i UiESCDlg.obj
 0001:0003e570       ??_EKUiESCDlg@@EAEPAXI@Z   0043f570 f i UiESCDlg.obj
 0001:0003e5a0       ??0KUiGetString@@AAE@XZ    0043f5a0 f   UiGetString.obj
 0001:0003e661       ?OpenWindow@KUiGetString@@SAPAV1@W4GET_STRING_ACTION@@PBD1PAVKWndWindow@@IHHH@Z 0043f661 f   UiGetString.obj
 0001:0003e8b2       ?CloseWindow@KUiGetString@@SAX_N@Z 0043f8b2 f   UiGetString.obj
 0001:0003e904       ?GetIfVisible@KUiGetString@@SAPAV1@XZ 0043f904 f   UiGetString.obj
 0001:0003e92a       ?Show@KUiGetString@@EAEXXZ 0043f92a f   UiGetString.obj
 0001:0003e9df       ?Hide@KUiGetString@@EAEXXZ 0043f9df f   UiGetString.obj
 0001:0003ea08       ?Breathe@KUiGetString@@EAEXXZ 0043fa08 f   UiGetString.obj
 0001:0003ea48       ?Initialize@KUiGetString@@AAEXXZ 0043fa48 f   UiGetString.obj
 0001:0003eb1f       ?LoadScheme@KUiGetString@@SAXPBD@Z 0043fb1f f   UiGetString.obj
 0001:0003ecbe       ?WndProc@KUiGetString@@EAEHIIH@Z 0043fcbe f   UiGetString.obj
 0001:0003ed83       ?OnCheckInput@KUiGetString@@AAEXXZ 0043fd83 f   UiGetString.obj
 0001:0003ee0c       ?OnSend@KUiGetString@@AAEXXZ 0043fe0c f   UiGetString.obj
 0001:0003ef5d       ?OnCancel@KUiGetString@@AAEXXZ 0043ff5d f   UiGetString.obj
 0001:0003efc0       ??_EKUiGetString@@EAEPAXI@Z 0043ffc0 f i UiGetString.obj
 0001:0003efc0       ??_GKUiGetString@@EAEPAXI@Z 0043ffc0 f i UiGetString.obj
 0001:0003eff0       ??1KUiGetString@@EAE@XZ    0043fff0 f i UiGetString.obj
 0001:0003f0b0       ?SetMaskCharacter@KWndEdit@@QAEX_N@Z 004400b0 f i UiGetString.obj
 0001:0003f100       ?SetLimitText@KWndEdit@@QAEXH@Z 00440100 f i UiGetString.obj
 0001:0003f120       ??0KUiMsgSel@@AAE@XZ       00440120 f   UiMsgSel.obj
 0001:0003f1f7       ??1KUiMsgSel@@EAE@XZ       004401f7 f   UiMsgSel.obj
 0001:0003f284       ?OpenWindow@KUiMsgSel@@SAPAV1@PAUKUiQuestionAndAnswer@@PAUKUiImage@@@Z 00440284 f   UiMsgSel.obj
 0001:0003f347       ?CloseWindow@KUiMsgSel@@SAX_N@Z 00440347 f   UiMsgSel.obj
 0001:0003f3b1       ?GetIfVisible@KUiMsgSel@@SAPAV1@XZ 004403b1 f   UiMsgSel.obj
 0001:0003f3d7       ?Initialize@KUiMsgSel@@AAEHPAUKUiImage@@@Z 004403d7 f   UiMsgSel.obj
 0001:0003f50e       ?LoadScheme@KUiMsgSel@@SAXPBD@Z 0044050e f   UiMsgSel.obj
 0001:0003f661       ?WndProc@KUiMsgSel@@EAEHIIH@Z 00440661 f   UiMsgSel.obj
 0001:0003f9f1       ?OnClickMsg@KUiMsgSel@@SAXH@Z 004409f1 f   UiMsgSel.obj
 0001:0003fa22       ?ChangeCurSel@KUiMsgSel@@AAEX_N@Z 00440a22 f   UiMsgSel.obj
 0001:0003fab8       ?Show@KUiMsgSel@@AAEXPAUKUiQuestionAndAnswer@@@Z 00440ab8 f   UiMsgSel.obj
 0001:0003fdad       ?Breathe@KUiMsgSel@@EAEXXZ 00440dad f   UiMsgSel.obj
 0001:0003fea0       ??_EKUiMsgSel@@EAEPAXI@Z   00440ea0 f i UiMsgSel.obj
 0001:0003fea0       ??_GKUiMsgSel@@EAEPAXI@Z   00440ea0 f i UiMsgSel.obj
 0001:0003fed0       ?GetCurSel@KWndMessageListBox@@QAEHXZ 00440ed0 f i UiMsgSel.obj
 0001:0003fef0       ?GetMessageListBox@KScrollMessageListBox@@QAEPAVKWndMessageListBox@@XZ 00440ef0 f i UiMsgSel.obj
 0001:0003ff10       ?GetMsgCount@KWndMessageListBox@@QAEHXZ 00440f10 f i UiMsgSel.obj
 0001:0003ff30       ?GetIfVisible@KUiParadeItem@@SAPAV1@XZ 00440f30 f   UiParadeItem.obj
 0001:0003ff56       ?OpenWindow@KUiParadeItem@@SAPAV1@PAUKUiPlayerItem@@@Z 00440f56 f   UiParadeItem.obj
 0001:00040066       ?CloseWindow@KUiParadeItem@@SAX_N@Z 00441066 f   UiParadeItem.obj
 0001:000400c7       ?Initialize@KUiParadeItem@@AAEXXZ 004410c7 f   UiParadeItem.obj
 0001:00040238       ?SwitchExpand@KUiParadeItem@@AAEXH@Z 00441238 f   UiParadeItem.obj
 0001:000402ff       ?LoadScheme@KUiParadeItem@@SAXPBD@Z 004412ff f   UiParadeItem.obj
 0001:000403a1       ?LoadScheme@KUiParadeItem@@AAEXPAVKIniFile@@@Z 004413a1 f   UiParadeItem.obj
 0001:000405cf       ?WndProc@KUiParadeItem@@EAEHIIH@Z 004415cf f   UiParadeItem.obj
 0001:00040652       ?UpdateBaseData@KUiParadeItem@@AAEXPAUKUiPlayerItem@@@Z 00441652 f   UiParadeItem.obj
 0001:00040bf9       ?UpdateData@KUiParadeItem@@QAEXPAUKUiPlayerItem@@@Z 00441bf9 f   UiParadeItem.obj
 0001:00040c3d       ?UpdateAllEquips@KUiParadeItem@@AAEXPAUKUiPlayerItem@@@Z 00441c3d f   UiParadeItem.obj
 0001:00040cf8       ?UpdateEquip@KUiParadeItem@@AAEXPAUKUiObjAtRegion@@H@Z 00441cf8 f   UiParadeItem.obj
 0001:00040da0       ??0KUiParadeItem@@AAE@XZ   00441da0 f i UiParadeItem.obj
 0001:00040f00       ??_EKUiParadeItem@@EAEPAXI@Z 00441f00 f i UiParadeItem.obj
 0001:00040f00       ??_GKUiParadeItem@@EAEPAXI@Z 00441f00 f i UiParadeItem.obj
 0001:00040f30       ??1KUiParadeItem@@EAE@XZ   00441f30 f i UiParadeItem.obj
 0001:00041080       ?OpenWindow@KUiSelPlayerNearby@@SAPAV1@XZ 00442080 f   UiSelPlayerNearby.obj
 0001:00041152       ??0KUiSelPlayerNearby@@AAE@XZ 00442152 f   UiSelPlayerNearby.obj
 0001:0004123e       ?DoesHaveVisibleWnd@KUiSelPlayerNearby@@SAHXZ 0044223e f   UiSelPlayerNearby.obj
 0001:00041264       ?Initialize@KUiSelPlayerNearby@@AAEXXZ 00442264 f   UiSelPlayerNearby.obj
 0001:000413b4       ?LoadActionList@KUiSelPlayerNearby@@AAEXPAVKIniFile@@@Z 004423b4 f   UiSelPlayerNearby.obj
 0001:00041566       ?CloseWindow@KUiSelPlayerNearby@@SAX_N@Z 00442566 f   UiSelPlayerNearby.obj
 0001:000415b3       ?LoadScheme@KUiSelPlayerNearby@@SAXPBD@Z 004425b3 f   UiSelPlayerNearby.obj
 0001:00041655       ?LoadScheme@KUiSelPlayerNearby@@AAEXPAVKIniFile@@@Z 00442655 f   UiSelPlayerNearby.obj
 0001:00041785       ?WndProc@KUiSelPlayerNearby@@EAEHIIH@Z 00442785 f   UiSelPlayerNearby.obj
 0001:00041906       ?OnClickButton@KUiSelPlayerNearby@@AAEXH@Z 00442906 f   UiSelPlayerNearby.obj
 0001:00041a65       ?UpdateData@KUiSelPlayerNearby@@EAEXXZ 00442a65 f   UiSelPlayerNearby.obj
 0001:00041b14       ?Clear@KUiSelPlayerNearby@@AAEXXZ 00442b14 f   UiSelPlayerNearby.obj
 0001:00041b70       ??_EKUiSelPlayerNearby@@EAEPAXI@Z 00442b70 f i UiSelPlayerNearby.obj
 0001:00041b70       ??_GKUiSelPlayerNearby@@EAEPAXI@Z 00442b70 f i UiSelPlayerNearby.obj
 0001:00041ba0       ??1KUiSelPlayerNearby@@EAE@XZ 00442ba0 f i UiSelPlayerNearby.obj
 0001:00041c60       ?PROP_GetTitleString@@YAPBDW4OBJ_ATTRIBYTE_TYPE@@@Z 00442c60 f   UiNewPlayer.obj
 0001:00041c6f       ??0KUiNewPlayer@@AAE@XZ    00442c6f f   UiNewPlayer.obj
 0001:00041e46       ?OpenWindow@KUiNewPlayer@@SAPAV1@H@Z 00442e46 f   UiNewPlayer.obj
 0001:00041f2d       ??1KUiNewPlayer@@EAE@XZ    00442f2d f   UiNewPlayer.obj
 0001:0004208f       ?CloseWindow@KUiNewPlayer@@SAX_N@Z 0044308f f   UiNewPlayer.obj
 0001:000420e4       ?Initialize@KUiNewPlayer@@AAEXXZ 004430e4 f   UiNewPlayer.obj
 0001:000424a1       ?SelGender@KUiNewPlayer@@AAEXXZ 004434a1 f   UiNewPlayer.obj
 0001:00042671       ?LoadScheme@KUiNewPlayer@@AAEXPBD@Z 00443671 f   UiNewPlayer.obj
 0001:000429d0       ?WndProc@KUiNewPlayer@@EAEHIIH@Z 004439d0 f   UiNewPlayer.obj
 0001:00042a56       ?OnClickButton@KUiNewPlayer@@AAEXPAVKWndWindow@@@Z 00443a56 f   UiNewPlayer.obj
 0001:00042b4a       ?UpdateProperty@KUiNewPlayer@@AAEXXZ 00443b4a f   UiNewPlayer.obj
 0001:00042d10       ?OnOk@KUiNewPlayer@@AAEXXZ 00443d10 f   UiNewPlayer.obj
 0001:00042d5d       ?OnCancel@KUiNewPlayer@@AAEXXZ 00443d5d f   UiNewPlayer.obj
 0001:00042d87       ?Breathe@KUiNewPlayer@@EAEXXZ 00443d87 f   UiNewPlayer.obj
 0001:00042ea8       ?GetInputInfo@KUiNewPlayer@@AAEHXZ 00443ea8 f   UiNewPlayer.obj
 0001:00042fc0       ??_EKUiNewPlayer@@EAEPAXI@Z 00443fc0 f i UiNewPlayer.obj
 0001:00042fc0       ??_GKUiNewPlayer@@EAEPAXI@Z 00443fc0 f i UiNewPlayer.obj
 0001:00042ff0       ??0KUiSelNativePlace@@AAE@XZ 00443ff0 f   UiSelNativePlace.obj
 0001:000430b6       ??1KUiSelNativePlace@@EAE@XZ 004440b6 f   UiSelNativePlace.obj
 0001:0004319b       ?OpenWindow@KUiSelNativePlace@@SAPAV1@H@Z 0044419b f   UiSelNativePlace.obj
 0001:00043283       ?CloseWindow@KUiSelNativePlace@@SAX_N@Z 00444283 f   UiSelNativePlace.obj
 0001:000432c5       ?Initialize@KUiSelNativePlace@@AAEXXZ 004442c5 f   UiSelNativePlace.obj
 0001:00043387       ?LoadList@KUiSelNativePlace@@AAEXH@Z 00444387 f   UiSelNativePlace.obj
 0001:0004388c       ?LoadScheme@KUiSelNativePlace@@AAEXPBD@Z 0044488c f   UiSelNativePlace.obj
 0001:00043a23       ?WndProc@KUiSelNativePlace@@EAEHIIH@Z 00444a23 f   UiSelNativePlace.obj
 0001:00043c16       ?OnOk@KUiSelNativePlace@@AAEXXZ 00444c16 f   UiSelNativePlace.obj
 0001:00043c75       ?OnCancel@KUiSelNativePlace@@AAEXXZ 00444c75 f   UiSelNativePlace.obj
 0001:00043c99       ?UpdateData@KUiSelNativePlace@@EAEXXZ 00444c99 f   UiSelNativePlace.obj
 0001:00043d40       ??_EKUiSelNativePlace@@EAEPAXI@Z 00444d40 f i UiSelNativePlace.obj
 0001:00043d40       ??_GKUiSelNativePlace@@EAEPAXI@Z 00444d40 f i UiSelNativePlace.obj
 0001:00043d70       ??0KUiSelPlayer@@AAE@XZ    00444d70 f   UiSelPlayer.obj
 0001:00043f1d       ?OpenWindow@KUiSelPlayer@@SAPAV1@XZ 00444f1d f   UiSelPlayer.obj
 0001:00043ff9       ?CloseWindow@KUiSelPlayer@@SAXXZ 00444ff9 f   UiSelPlayer.obj
 0001:0004402b       ?Hide@KUiSelPlayer@@EAEXXZ 0044502b f   UiSelPlayer.obj
 0001:0004404d       ?Initialize@KUiSelPlayer@@AAEXXZ 0044504d f   UiSelPlayer.obj
 0001:00044109       ?LoadScheme@KUiSelPlayer@@AAEXPBD@Z 00445109 f   UiSelPlayer.obj
 0001:000445ab       ?PaintWindow@KUiSelPlayer@@EAEXXZ 004455ab f   UiSelPlayer.obj
 0001:0004471d       ?UpdateData@KUiSelPlayer@@EAEXXZ 0044571d f   UiSelPlayer.obj
 0001:0004573b       ?GetRoleImageName@KUiSelPlayer@@SAXPADPBDEEH@Z 0044673b f   UiSelPlayer.obj
 0001:00045792       ?WndProc@KUiSelPlayer@@EAEHIIH@Z 00446792 f   UiSelPlayer.obj
 0001:00045816       ?OnKeyDown@KUiSelPlayer@@AAEHI@Z 00446816 f   UiSelPlayer.obj
 0001:00045b04       ?OnSelectPlayer@KUiSelPlayer@@AAEXH_N@Z 00446b04 f   UiSelPlayer.obj
 0001:00045cfe       ?OnClickButton@KUiSelPlayer@@AAEXPAVKWndButton@@_N@Z 00446cfe f   UiSelPlayer.obj
 0001:00045dd5       ?OnEnterGame@KUiSelPlayer@@AAEXXZ 00446dd5 f   UiSelPlayer.obj
 0001:00045e20       ?OnNew@KUiSelPlayer@@AAEXXZ 00446e20 f   UiSelPlayer.obj
 0001:00045e55       ?OnDel@KUiSelPlayer@@AAEXXZ 00446e55 f   UiSelPlayer.obj
 0001:00045e93       ?OnCancel@KUiSelPlayer@@AAEXXZ 00446e93 f   UiSelPlayer.obj
 0001:00045eb8       ?GetActiveBtn@KUiSelPlayer@@AAEPAVKWndButton@@XZ 00446eb8 f   UiSelPlayer.obj
 0001:00045f50       ??_EKUiSelPlayer@@EAEPAXI@Z 00446f50 f i UiSelPlayer.obj
 0001:00045f50       ??_GKUiSelPlayer@@EAEPAXI@Z 00446f50 f i UiSelPlayer.obj
 0001:00045f80       ??1KUiSelPlayer@@EAE@XZ    00446f80 f i UiSelPlayer.obj
 0001:000460b0       ?GetAccountLifeTime@KLogin@@QAEKXZ 004470b0 f i UiSelPlayer.obj
 0001:000460e9       ?CreateUnit@ServerNotify@@UAEHPBD@Z 004470e9 f   UiChatCentre.obj
 0001:00046110       ?RenameUnitGroup@ServerNotify@@UAEHPBD00ABV?$list@V?$basic_string@DU?$char_traits@D@std@@V?$allocator@D@2@@std@@V?$allocator@V?$basic_string@DU?$char_traits@D@std@@V?$allocator@D@2@@std@@@2@@std@@@Z 00447110 f   UiChatCentre.obj
 0001:000461ad       ?DeleteUnitGroup@ServerNotify@@UAEHPBD0ABV?$list@V?$basic_string@DU?$char_traits@D@std@@V?$allocator@D@2@@std@@V?$allocator@V?$basic_string@DU?$char_traits@D@std@@V?$allocator@D@2@@std@@@2@@std@@@Z 004471ad f   UiChatCentre.obj
 0001:0004623e       ?MoveUnitGroup@ServerNotify@@UAEHPBD00ABV?$list@V?$basic_string@DU?$char_traits@D@std@@V?$allocator@D@2@@std@@V?$allocator@V?$basic_string@DU?$char_traits@D@std@@V?$allocator@D@2@@std@@@2@@std@@@Z 0044723e f   UiChatCentre.obj
 0001:000462db       ?DeleteUnitMember@ServerNotify@@UAEHPBD0@Z 004472db f   UiChatCentre.obj
 0001:0004630a       ?MoveUnitMember@ServerNotify@@UAEHPBD00@Z 0044730a f   UiChatCentre.obj
 0001:000463ec       ?SendSyncData@ServerNotify@@QAEXPBD@Z 004473ec f   UiChatCentre.obj
 0001:000464b0       ?SendNotifyGroupFriend@ServerNotify@@QAEXPBDABV?$basic_string@DU?$char_traits@D@std@@V?$allocator@D@2@@std@@ABV?$list@V?$basic_string@DU?$char_traits@D@std@@V?$allocator@D@2@@std@@V?$allocator@V?$basic_string@DU?$char_traits@D@std@@V?$allocator@D@2@@std@@@2@@3@@Z 004474b0 f   UiChatCentre.obj
 0001:00046750       ?SendNotifyDeleteFriend@ServerNotify@@QAEXPBD0@Z 00447750 f   UiChatCentre.obj
 0001:0004681a       ??0KUiChatCentre@@AAE@XZ   0044781a f   UiChatCentre.obj
 0001:00046bdb       ?GetIfVisible@KUiChatCentre@@SAPAV1@XZ 00447bdb f   UiChatCentre.obj
 0001:00046c01       ?OpenWindow@KUiChatCentre@@SAPAV1@_N@Z 00447c01 f   UiChatCentre.obj
 0001:00046d01       ?Initialize@KUiChatCentre@@AAEXXZ 00447d01 f   UiChatCentre.obj
 0001:00046ea1       ?CloseWindow@KUiChatCentre@@SAX_N@Z 00447ea1 f   UiChatCentre.obj
 0001:00046eee       ?LoadScheme@KUiChatCentre@@SAXPBD@Z 00447eee f   UiChatCentre.obj
 0001:00046f8b       ?LoadScheme@KUiChatCentre@@AAEXPAVKIniFile@@@Z 00447f8b f   UiChatCentre.obj
 0001:00047418       ?CreateSeverUnit@KUiChatCentre@@SAXXZ 00448418 f   UiChatCentre.obj
 0001:000474e5       ?LoadPrivateSetting@KUiChatCentre@@SAHPAVKIniFile@@@Z 004484e5 f   UiChatCentre.obj
 0001:000475eb       ?SavePrivateSetting@KUiChatCentre@@SAHPAVKIniFile@@@Z 004485eb f   UiChatCentre.obj
 0001:000476e3       ?WndProc@KUiChatCentre@@EAEHIIH@Z 004486e3 f   UiChatCentre.obj
 0001:00047a13       ?OnMoveFriendToGroup@KUiChatCentre@@AAEXHH@Z 00448a13 f   UiChatCentre.obj
 0001:00047af1       ?OnSelGroupMenu@KUiChatCentre@@AAEXHH@Z 00448af1 f   UiChatCentre.obj
 0001:00047c09       ?DragWndSize@KUiChatCentre@@AAEXH@Z 00448c09 f   UiChatCentre.obj
 0001:00047d8a       ?OnSelFriendMenu@KUiChatCentre@@AAEXHH@Z 00448d8a f   UiChatCentre.obj
 0001:00047e2c       ?OnClickGroupBtn@KUiChatCentre@@AAE_NPAVKWndWindow@@_N@Z 00448e2c f   UiChatCentre.obj
 0001:00047ed2       ?SendFriendMsg@KUiChatCentre@@AAEXH_N@Z 00448ed2 f   UiChatCentre.obj
 0001:00047f1f       ?UpdateData@KUiChatCentre@@SAXW4UICHATCENTRE_UPDATE@@IH@Z 00448f1f f   UiChatCentre.obj
 0001:00047fc7       ?IsMyFriend@KUiChatCentre@@SA_NPAD@Z 00448fc7 f   UiChatCentre.obj
 0001:000480c9       ?AddFriendInfo@KUiChatCentre@@SA_NHPAD0@Z 004490c9 f   UiChatCentre.obj
 0001:00048508       ?FriendStatus@KUiChatCentre@@SA_NHPADE@Z 00449508 f   UiChatCentre.obj
 0001:00048749       ?NewGroup@KUiChatCentre@@SAXHPBD@Z 00449749 f   UiChatCentre.obj
 0001:000489ac       ?ReplaceGroupName@KUiChatCentre@@SAXHPBD0@Z 004499ac f   UiChatCentre.obj
 0001:00048cfd       ?MoveFriendToGroup@KUiChatCentre@@SAXHPBD0@Z 00449cfd f   UiChatCentre.obj
 0001:00048fa5       ?MoveGroupToGroup@KUiChatCentre@@SAXHPBD0_N@Z 00449fa5 f   UiChatCentre.obj
 0001:00049398       ?FindUnitIndex@KUiChatCentre@@SAHPBD@Z 0044a398 f   UiChatCentre.obj
 0001:00049414       ?FindUnitIndexByRoleNameAtServerUnit@KUiChatCentre@@SAHPAD@Z 0044a414 f   UiChatCentre.obj
 0001:0004952c       ?FindAddinUnitIndex@KUiChatCentre@@SAHPBD@Z 0044a52c f   UiChatCentre.obj
 0001:000495c1       ?AddAddinUnit@KUiChatCentre@@SAHPBDPAUFriendNotify@@@Z 0044a5c1 f   UiChatCentre.obj
 0001:000496b7       ?RemoveAddinUnit@KUiChatCentre@@SAHPBD@Z 0044a6b7 f   UiChatCentre.obj
 0001:0004983c       ?DeleteFriend@KUiChatCentre@@SAXHPAD_N@Z 0044a83c f   UiChatCentre.obj
 0001:00049a4e       ?OnClickButton@KUiChatCentre@@AAEXPAVKWndWindow@@@Z 0044aa4e f   UiChatCentre.obj
 0001:00049b38       ?OnSelUnit@KUiChatCentre@@AAEXH@Z 0044ab38 f   UiChatCentre.obj
 0001:00049b8c       ?OnScrollList@KUiChatCentre@@AAEX_N@Z 0044ab8c f   UiChatCentre.obj
 0001:00049bed       ?CancelMenu@KUiChatCentre@@AAEXXZ 0044abed f   UiChatCentre.obj
 0001:00049c42       ?PopupupGroupMenu@KUiChatCentre@@AAEXH@Z 0044ac42 f   UiChatCentre.obj
 0001:00049cc3       ?PopupFriendMenu@KUiChatCentre@@AAEXH@Z 0044acc3 f   UiChatCentre.obj
 0001:00049d57       ?PopupSelGroupMenu@KUiChatCentre@@AAEXH@Z 0044ad57 f   UiChatCentre.obj
 0001:00049f0b       ?PopupSelUnitMenu@KUiChatCentre@@AAEXXZ 0044af0b f   UiChatCentre.obj
 0001:0004a01f       ?ClearInterface@KUiChatCentre@@AAEXXZ 0044b01f f   UiChatCentre.obj
 0001:0004a08a       ?ClearFriendList@KUiChatCentre@@AAEXXZ 0044b08a f   UiChatCentre.obj
 0001:0004a0e4       ?ClearUnitData@KUiChatCentre@@AAEXH@Z 0044b0e4 f   UiChatCentre.obj
 0001:0004a19f       ?UpdateAll@KUiChatCentre@@AAEXH@Z 0044b19f f   UiChatCentre.obj
 0001:0004a3e8       ?UpdateGroup@KUiChatCentre@@AAEXH@Z 0044b3e8 f   UiChatCentre.obj
 0001:0004a97c       ?UpdateFriend@KUiChatCentre@@AAEXPAUKUiPlayerItem@@H@Z 0044b97c f   UiChatCentre.obj
 0001:0004a9c4       ?FindGroupIndex@FriendUnit@KUiChatCentre@@QAEHABV?$basic_string@DU?$char_traits@D@std@@V?$allocator@D@2@@std@@@Z 0044b9c4 f   UiChatCentre.obj
 0001:0004aa50       ?UpdateInterface@KUiChatCentre@@AAEXXZ 0044ba50 f   UiChatCentre.obj
 0001:0004b052       ?PaintWindow@KUiChatCentre@@EAEXXZ 0044c052 f   UiChatCentre.obj
 0001:0004b0f4       ?AdjustSize@KUiChatCentre@@AAEXH@Z 0044c0f4 f   UiChatCentre.obj
 0001:0004b27a       ?PtInWindow@KUiChatCentre@@EAEHHH@Z 0044c27a f   UiChatCentre.obj
 0001:0004b360       ??0ServerNotify@@QAE@XZ    0044c360 f i UiChatCentre.obj
 0001:0004b380       ??0AddinNotify@@QAE@XZ     0044c380 f i UiChatCentre.obj
 0001:0004b3a0       ??0FriendNotify@@QAE@XZ    0044c3a0 f i UiChatCentre.obj
 0001:0004b3c0       ??_EKUiChatCentre@@EAEPAXI@Z 0044c3c0 f i UiChatCentre.obj
 0001:0004b3c0       ??_GKUiChatCentre@@EAEPAXI@Z 0044c3c0 f i UiChatCentre.obj
 0001:0004b3f0       ??1KUiChatCentre@@EAE@XZ   0044c3f0 f i UiChatCentre.obj
 0001:0004b540       ??1FriendUnit@KUiChatCentre@@QAE@XZ 0044c540 f i UiChatCentre.obj
 0001:0004b5c0       ??1?$map@V?$basic_string@DU?$char_traits@D@std@@V?$allocator@D@2@@std@@V12@U?$less@V?$basic_string@DU?$char_traits@D@std@@V?$allocator@D@2@@std@@@2@V?$allocator@V?$basic_string@DU?$char_traits@D@std@@V?$allocator@D@2@@std@@@2@@std@@QAE@XZ 0044c5c0 f i UiChatCentre.obj
 0001:0004b5e0       ??1?$map@V?$basic_string@DU?$char_traits@D@std@@V?$allocator@D@2@@std@@EU?$less@V?$basic_string@DU?$char_traits@D@std@@V?$allocator@D@2@@std@@@2@V?$allocator@E@2@@std@@QAE@XZ 0044c5e0 f i UiChatCentre.obj
 0001:0004b600       ??1GROUPINFO@KUiChatCentre@@QAE@XZ 0044c600 f i UiChatCentre.obj
 0001:0004b620       ??0FriendUnit@KUiChatCentre@@QAE@XZ 0044c620 f i UiChatCentre.obj
 0001:0004b6c0       ??0GROUPINFO@KUiChatCentre@@QAE@XZ 0044c6c0 f i UiChatCentre.obj
 0001:0004b6e0       ??4GROUPINFO@KUiChatCentre@@QAEAAU01@ABU01@@Z 0044c6e0 f i UiChatCentre.obj
 0001:0004b710       ??4FriendUnit@KUiChatCentre@@QAEAAU01@ABU01@@Z 0044c710 f i UiChatCentre.obj
 0001:0004b7c0       ??0?$map@V?$basic_string@DU?$char_traits@D@std@@V?$allocator@D@2@@std@@V12@U?$less@V?$basic_string@DU?$char_traits@D@std@@V?$allocator@D@2@@std@@@2@V?$allocator@V?$basic_string@DU?$char_traits@D@std@@V?$allocator@D@2@@std@@@2@@std@@QAE@ABU?$less@V?$basic_string@DU?$char_traits@D@std@@V?$allocator@D@2@@std@@@1@ABV?$allocator@V?$basic_string@DU?$char_traits@D@std@@V?$allocator@D@2@@std@@@1@@Z 0044c7c0 f i UiChatCentre.obj
 0001:0004b7f0       ??4?$map@V?$basic_string@DU?$char_traits@D@std@@V?$allocator@D@2@@std@@V12@U?$less@V?$basic_string@DU?$char_traits@D@std@@V?$allocator@D@2@@std@@@2@V?$allocator@V?$basic_string@DU?$char_traits@D@std@@V?$allocator@D@2@@std@@@2@@std@@QAEAAV01@ABV01@@Z 0044c7f0 f i UiChatCentre.obj
 0001:0004b810       ?begin@?$map@V?$basic_string@DU?$char_traits@D@std@@V?$allocator@D@2@@std@@V12@U?$less@V?$basic_string@DU?$char_traits@D@std@@V?$allocator@D@2@@std@@@2@V?$allocator@V?$basic_string@DU?$char_traits@D@std@@V?$allocator@D@2@@std@@@2@@std@@QAE?AViterator@?$_Tree@V?$basic_string@DU?$char_traits@D@std@@V?$allocator@D@2@@std@@U?$pair@$$CBV?$basic_string@DU?$char_traits@D@std@@V?$allocator@D@2@@std@@V12@@2@U_Kfn@?$map@V?$basic_string@DU?$char_traits@D@std@@V?$allocator@D@2@@std@@V12@U?$less@V?$basic_string@DU?$char_traits@D@std@@V?$allocator@D@2@@std@@@2@V?$allocator@V?$basic_string@DU?$char_traits@D@std@@V?$allocator@D@2@@std@@@2@@2@U?$less@V?$basic_string@DU?$char_traits@D@std@@V?$allocator@D@2@@std@@@2@V?$allocator@V?$basic_string@DU?$char_traits@D@std@@V?$allocator@D@2@@std@@@2@@2@XZ 0044c810 f i UiChatCentre.obj
 0001:0004b840       ?end@?$map@V?$basic_string@DU?$char_traits@D@std@@V?$allocator@D@2@@std@@V12@U?$less@V?$basic_string@DU?$char_traits@D@std@@V?$allocator@D@2@@std@@@2@V?$allocator@V?$basic_string@DU?$char_traits@D@std@@V?$allocator@D@2@@std@@@2@@std@@QAE?AViterator@?$_Tree@V?$basic_string@DU?$char_traits@D@std@@V?$allocator@D@2@@std@@U?$pair@$$CBV?$basic_string@DU?$char_traits@D@std@@V?$allocator@D@2@@std@@V12@@2@U_Kfn@?$map@V?$basic_string@DU?$char_traits@D@std@@V?$allocator@D@2@@std@@V12@U?$less@V?$basic_string@DU?$char_traits@D@std@@V?$allocator@D@2@@std@@@2@V?$allocator@V?$basic_string@DU?$char_traits@D@std@@V?$allocator@D@2@@std@@@2@@2@U?$less@V?$basic_string@DU?$char_traits@D@std@@V?$allocator@D@2@@std@@@2@V?$allocator@V?$basic_string@DU?$char_traits@D@std@@V?$allocator@D@2@@std@@@2@@2@XZ 0044c840 f i UiChatCentre.obj
 0001:0004b870       ??A?$map@V?$basic_string@DU?$char_traits@D@std@@V?$allocator@D@2@@std@@V12@U?$less@V?$basic_string@DU?$char_traits@D@std@@V?$allocator@D@2@@std@@@2@V?$allocator@V?$basic_string@DU?$char_traits@D@std@@V?$allocator@D@2@@std@@@2@@std@@QAEAAV?$basic_string@DU?$char_traits@D@std@@V?$allocator@D@2@@1@ABV21@@Z 0044c870 f i UiChatCentre.obj
 0001:0004b920       ?erase@?$map@V?$basic_string@DU?$char_traits@D@std@@V?$allocator@D@2@@std@@V12@U?$less@V?$basic_string@DU?$char_traits@D@std@@V?$allocator@D@2@@std@@@2@V?$allocator@V?$basic_string@DU?$char_traits@D@std@@V?$allocator@D@2@@std@@@2@@std@@QAE?AViterator@?$_Tree@V?$basic_string@DU?$char_traits@D@std@@V?$allocator@D@2@@std@@U?$pair@$$CBV?$basic_string@DU?$char_traits@D@std@@V?$allocator@D@2@@std@@V12@@2@U_Kfn@?$map@V?$basic_string@DU?$char_traits@D@std@@V?$allocator@D@2@@std@@V12@U?$less@V?$basic_string@DU?$char_traits@D@std@@V?$allocator@D@2@@std@@@2@V?$allocator@V?$basic_string@DU?$char_traits@D@std@@V?$allocator@D@2@@std@@@2@@2@U?$less@V?$basic_string@DU?$char_traits@D@std@@V?$allocator@D@2@@std@@@2@V?$allocator@V?$basic_string@DU?$char_traits@D@std@@V?$allocator@D@2@@std@@@2@@2@V342@@Z 0044c920 f i UiChatCentre.obj
 0001:0004b950       ?clear@?$map@V?$basic_string@DU?$char_traits@D@std@@V?$allocator@D@2@@std@@V12@U?$less@V?$basic_string@DU?$char_traits@D@std@@V?$allocator@D@2@@std@@@2@V?$allocator@V?$basic_string@DU?$char_traits@D@std@@V?$allocator@D@2@@std@@@2@@std@@QAEXXZ 0044c950 f i UiChatCentre.obj
 0001:0004b970       ?find@?$map@V?$basic_string@DU?$char_traits@D@std@@V?$allocator@D@2@@std@@V12@U?$less@V?$basic_string@DU?$char_traits@D@std@@V?$allocator@D@2@@std@@@2@V?$allocator@V?$basic_string@DU?$char_traits@D@std@@V?$allocator@D@2@@std@@@2@@std@@QAE?AViterator@?$_Tree@V?$basic_string@DU?$char_traits@D@std@@V?$allocator@D@2@@std@@U?$pair@$$CBV?$basic_string@DU?$char_traits@D@std@@V?$allocator@D@2@@std@@V12@@2@U_Kfn@?$map@V?$basic_string@DU?$char_traits@D@std@@V?$allocator@D@2@@std@@V12@U?$less@V?$basic_string@DU?$char_traits@D@std@@V?$allocator@D@2@@std@@@2@V?$allocator@V?$basic_string@DU?$char_traits@D@std@@V?$allocator@D@2@@std@@@2@@2@U?$less@V?$basic_string@DU?$char_traits@D@std@@V?$allocator@D@2@@std@@@2@V?$allocator@V?$basic_string@DU?$char_traits@D@std@@V?$allocator@D@2@@std@@@2@@2@ABV?$basic_string@DU?$char_traits@D@std@@V?$allocator@D@2@@2@@Z 0044c970 f i UiChatCentre.obj
 0001:0004b9a0       ??1?$_Tree@V?$basic_string@DU?$char_traits@D@std@@V?$allocator@D@2@@std@@U?$pair@$$CBV?$basic_string@DU?$char_traits@D@std@@V?$allocator@D@2@@std@@V12@@2@U_Kfn@?$map@V?$basic_string@DU?$char_traits@D@std@@V?$allocator@D@2@@std@@V12@U?$less@V?$basic_string@DU?$char_traits@D@std@@V?$allocator@D@2@@std@@@2@V?$allocator@V?$basic_string@DU?$char_traits@D@std@@V?$allocator@D@2@@std@@@2@@2@U?$less@V?$basic_string@DU?$char_traits@D@std@@V?$allocator@D@2@@std@@@2@V?$allocator@V?$basic_string@DU?$char_traits@D@std@@V?$allocator@D@2@@std@@@2@@std@@QAE@XZ 0044c9a0 f i UiChatCentre.obj
 0001:0004ba70       ??Citerator@?$_Tree@V?$basic_string@DU?$char_traits@D@std@@V?$allocator@D@2@@std@@U?$pair@$$CBV?$basic_string@DU?$char_traits@D@std@@V?$allocator@D@2@@std@@V12@@2@U_Kfn@?$map@V?$basic_string@DU?$char_traits@D@std@@V?$allocator@D@2@@std@@V12@U?$less@V?$basic_string@DU?$char_traits@D@std@@V?$allocator@D@2@@std@@@2@V?$allocator@V?$basic_string@DU?$char_traits@D@std@@V?$allocator@D@2@@std@@@2@@2@U?$less@V?$basic_string@DU?$char_traits@D@std@@V?$allocator@D@2@@std@@@2@V?$allocator@V?$basic_string@DU?$char_traits@D@std@@V?$allocator@D@2@@std@@@2@@std@@QBEPAU?$pair@$$CBV?$basic_string@DU?$char_traits@D@std@@V?$allocator@D@2@@std@@V12@@2@XZ 0044ca70 f i UiChatCentre.obj
 0001:0004ba90       ??Eiterator@?$_Tree@V?$basic_string@DU?$char_traits@D@std@@V?$allocator@D@2@@std@@U?$pair@$$CBV?$basic_string@DU?$char_traits@D@std@@V?$allocator@D@2@@std@@V12@@2@U_Kfn@?$map@V?$basic_string@DU?$char_traits@D@std@@V?$allocator@D@2@@std@@V12@U?$less@V?$basic_string@DU?$char_traits@D@std@@V?$allocator@D@2@@std@@@2@V?$allocator@V?$basic_string@DU?$char_traits@D@std@@V?$allocator@D@2@@std@@@2@@2@U?$less@V?$basic_string@DU?$char_traits@D@std@@V?$allocator@D@2@@std@@@2@V?$allocator@V?$basic_string@DU?$char_traits@D@std@@V?$allocator@D@2@@std@@@2@@std@@QAE?AV012@H@Z 0044ca90 f i UiChatCentre.obj
 0001:0004bac0       ??9iterator@?$_Tree@V?$basic_string@DU?$char_traits@D@std@@V?$allocator@D@2@@std@@U?$pair@$$CBV?$basic_string@DU?$char_traits@D@std@@V?$allocator@D@2@@std@@V12@@2@U_Kfn@?$map@V?$basic_string@DU?$char_traits@D@std@@V?$allocator@D@2@@std@@V12@U?$less@V?$basic_string@DU?$char_traits@D@std@@V?$allocator@D@2@@std@@@2@V?$allocator@V?$basic_string@DU?$char_traits@D@std@@V?$allocator@D@2@@std@@@2@@2@U?$less@V?$basic_string@DU?$char_traits@D@std@@V?$allocator@D@2@@std@@@2@V?$allocator@V?$basic_string@DU?$char_traits@D@std@@V?$allocator@D@2@@std@@@2@@std@@QBE_NABV012@@Z 0044cac0 f i UiChatCentre.obj
 0001:0004baf0       ??0?$map@V?$basic_string@DU?$char_traits@D@std@@V?$allocator@D@2@@std@@EU?$less@V?$basic_string@DU?$char_traits@D@std@@V?$allocator@D@2@@std@@@2@V?$allocator@E@2@@std@@QAE@ABU?$less@V?$basic_string@DU?$char_traits@D@std@@V?$allocator@D@2@@std@@@1@ABV?$allocator@E@1@@Z 0044caf0 f i UiChatCentre.obj
 0001:0004bb20       ??4?$map@V?$basic_string@DU?$char_traits@D@std@@V?$allocator@D@2@@std@@EU?$less@V?$basic_string@DU?$char_traits@D@std@@V?$allocator@D@2@@std@@@2@V?$allocator@E@2@@std@@QAEAAV01@ABV01@@Z 0044cb20 f i UiChatCentre.obj
 0001:0004bb40       ?end@?$map@V?$basic_string@DU?$char_traits@D@std@@V?$allocator@D@2@@std@@EU?$less@V?$basic_string@DU?$char_traits@D@std@@V?$allocator@D@2@@std@@@2@V?$allocator@E@2@@std@@QAE?AViterator@?$_Tree@V?$basic_string@DU?$char_traits@D@std@@V?$allocator@D@2@@std@@U?$pair@$$CBV?$basic_string@DU?$char_traits@D@std@@V?$allocator@D@2@@std@@E@2@U_Kfn@?$map@V?$basic_string@DU?$char_traits@D@std@@V?$allocator@D@2@@std@@EU?$less@V?$basic_string@DU?$char_traits@D@std@@V?$allocator@D@2@@std@@@2@V?$allocator@E@2@@2@U?$less@V?$basic_string@DU?$char_traits@D@std@@V?$allocator@D@2@@std@@@2@V?$allocator@E@2@@2@XZ 0044cb40 f i UiChatCentre.obj
 0001:0004bb70       ??A?$map@V?$basic_string@DU?$char_traits@D@std@@V?$allocator@D@2@@std@@EU?$less@V?$basic_string@DU?$char_traits@D@std@@V?$allocator@D@2@@std@@@2@V?$allocator@E@2@@std@@QAEAAEABV?$basic_string@DU?$char_traits@D@std@@V?$allocator@D@2@@1@@Z 0044cb70 f i UiChatCentre.obj
 0001:0004bc00       ?clear@?$map@V?$basic_string@DU?$char_traits@D@std@@V?$allocator@D@2@@std@@EU?$less@V?$basic_string@DU?$char_traits@D@std@@V?$allocator@D@2@@std@@@2@V?$allocator@E@2@@std@@QAEXXZ 0044cc00 f i UiChatCentre.obj
 0001:0004bc20       ?find@?$map@V?$basic_string@DU?$char_traits@D@std@@V?$allocator@D@2@@std@@EU?$less@V?$basic_string@DU?$char_traits@D@std@@V?$allocator@D@2@@std@@@2@V?$allocator@E@2@@std@@QAE?AViterator@?$_Tree@V?$basic_string@DU?$char_traits@D@std@@V?$allocator@D@2@@std@@U?$pair@$$CBV?$basic_string@DU?$char_traits@D@std@@V?$allocator@D@2@@std@@E@2@U_Kfn@?$map@V?$basic_string@DU?$char_traits@D@std@@V?$allocator@D@2@@std@@EU?$less@V?$basic_string@DU?$char_traits@D@std@@V?$allocator@D@2@@std@@@2@V?$allocator@E@2@@2@U?$less@V?$basic_string@DU?$char_traits@D@std@@V?$allocator@D@2@@std@@@2@V?$allocator@E@2@@2@ABV?$basic_string@DU?$char_traits@D@std@@V?$allocator@D@2@@2@@Z 0044cc20 f i UiChatCentre.obj
 0001:0004bc50       ??1?$_Tree@V?$basic_string@DU?$char_traits@D@std@@V?$allocator@D@2@@std@@U?$pair@$$CBV?$basic_string@DU?$char_traits@D@std@@V?$allocator@D@2@@std@@E@2@U_Kfn@?$map@V?$basic_string@DU?$char_traits@D@std@@V?$allocator@D@2@@std@@EU?$less@V?$basic_string@DU?$char_traits@D@std@@V?$allocator@D@2@@std@@@2@V?$allocator@E@2@@2@U?$less@V?$basic_string@DU?$char_traits@D@std@@V?$allocator@D@2@@std@@@2@V?$allocator@E@2@@std@@QAE@XZ 0044cc50 f i UiChatCentre.obj
 0001:0004bd20       ??9iterator@?$_Tree@V?$basic_string@DU?$char_traits@D@std@@V?$allocator@D@2@@std@@U?$pair@$$CBV?$basic_string@DU?$char_traits@D@std@@V?$allocator@D@2@@std@@E@2@U_Kfn@?$map@V?$basic_string@DU?$char_traits@D@std@@V?$allocator@D@2@@std@@EU?$less@V?$basic_string@DU?$char_traits@D@std@@V?$allocator@D@2@@std@@@2@V?$allocator@E@2@@2@U?$less@V?$basic_string@DU?$char_traits@D@std@@V?$allocator@D@2@@std@@@2@V?$allocator@E@2@@std@@QBE_NABV012@@Z 0044cd20 f i UiChatCentre.obj
 0001:0004bd50       ??0?$list@V?$basic_string@DU?$char_traits@D@std@@V?$allocator@D@2@@std@@V?$allocator@V?$basic_string@DU?$char_traits@D@std@@V?$allocator@D@2@@std@@@2@@std@@QAE@ABV?$allocator@V?$basic_string@DU?$char_traits@D@std@@V?$allocator@D@2@@std@@@1@@Z 0044cd50 f i UiChatCentre.obj
 0001:0004bd90       ??1?$list@V?$basic_string@DU?$char_traits@D@std@@V?$allocator@D@2@@std@@V?$allocator@V?$basic_string@DU?$char_traits@D@std@@V?$allocator@D@2@@std@@@2@@std@@QAE@XZ 0044cd90 f i UiChatCentre.obj
 0001:0004bdf0       ?begin@?$list@V?$basic_string@DU?$char_traits@D@std@@V?$allocator@D@2@@std@@V?$allocator@V?$basic_string@DU?$char_traits@D@std@@V?$allocator@D@2@@std@@@2@@std@@QBE?AVconst_iterator@12@XZ 0044cdf0 f i UiChatCentre.obj
 0001:0004be30       ?end@?$list@V?$basic_string@DU?$char_traits@D@std@@V?$allocator@D@2@@std@@V?$allocator@V?$basic_string@DU?$char_traits@D@std@@V?$allocator@D@2@@std@@@2@@std@@QBE?AVconst_iterator@12@XZ 0044ce30 f i UiChatCentre.obj
 0001:0004be60       ?empty@?$list@V?$basic_string@DU?$char_traits@D@std@@V?$allocator@D@2@@std@@V?$allocator@V?$basic_string@DU?$char_traits@D@std@@V?$allocator@D@2@@std@@@2@@std@@QBE_NXZ 0044ce60 f i UiChatCentre.obj
 0001:0004be80       ?push_back@?$list@V?$basic_string@DU?$char_traits@D@std@@V?$allocator@D@2@@std@@V?$allocator@V?$basic_string@DU?$char_traits@D@std@@V?$allocator@D@2@@std@@@2@@std@@QAEXABV?$basic_string@DU?$char_traits@D@std@@V?$allocator@D@2@@2@@Z 0044ce80 f i UiChatCentre.obj
 0001:0004beb0       ??Dconst_iterator@?$list@V?$basic_string@DU?$char_traits@D@std@@V?$allocator@D@2@@std@@V?$allocator@V?$basic_string@DU?$char_traits@D@std@@V?$allocator@D@2@@std@@@2@@std@@QBEABV?$basic_string@DU?$char_traits@D@std@@V?$allocator@D@2@@2@XZ 0044ceb0 f i UiChatCentre.obj
 0001:0004bed0       ??Econst_iterator@?$list@V?$basic_string@DU?$char_traits@D@std@@V?$allocator@D@2@@std@@V?$allocator@V?$basic_string@DU?$char_traits@D@std@@V?$allocator@D@2@@std@@@2@@std@@QAE?AV012@H@Z 0044ced0 f i UiChatCentre.obj
 0001:0004bf00       ??9const_iterator@?$list@V?$basic_string@DU?$char_traits@D@std@@V?$allocator@D@2@@std@@V?$allocator@V?$basic_string@DU?$char_traits@D@std@@V?$allocator@D@2@@std@@@2@@std@@QBE_NABV012@@Z 0044cf00 f i UiChatCentre.obj
 0001:0004bf30       ??1?$pair@$$CBV?$basic_string@DU?$char_traits@D@std@@V?$allocator@D@2@@std@@V12@@std@@QAE@XZ 0044cf30 f i UiChatCentre.obj
 0001:0004bf80       ??1?$pair@$$CBV?$basic_string@DU?$char_traits@D@std@@V?$allocator@D@2@@std@@E@std@@QAE@XZ 0044cf80 f i UiChatCentre.obj
 0001:0004bfa0       ?insert@?$map@V?$basic_string@DU?$char_traits@D@std@@V?$allocator@D@2@@std@@V12@U?$less@V?$basic_string@DU?$char_traits@D@std@@V?$allocator@D@2@@std@@@2@V?$allocator@V?$basic_string@DU?$char_traits@D@std@@V?$allocator@D@2@@std@@@2@@std@@QAE?AU?$pair@Viterator@?$_Tree@V?$basic_string@DU?$char_traits@D@std@@V?$allocator@D@2@@std@@U?$pair@$$CBV?$basic_string@DU?$char_traits@D@std@@V?$allocator@D@2@@std@@V12@@2@U_Kfn@?$map@V?$basic_string@DU?$char_traits@D@std@@V?$allocator@D@2@@std@@V12@U?$less@V?$basic_string@DU?$char_traits@D@std@@V?$allocator@D@2@@std@@@2@V?$allocator@V?$basic_string@DU?$char_traits@D@std@@V?$allocator@D@2@@std@@@2@@2@U?$less@V?$basic_string@DU?$char_traits@D@std@@V?$allocator@D@2@@std@@@2@V?$allocator@V?$basic_string@DU?$char_traits@D@std@@V?$allocator@D@2@@std@@@2@@std@@_N@2@ABU?$pair@$$CBV?$basic_string@DU?$char_traits@D@std@@V?$allocator@D@2@@std@@V12@@2@@Z 0044cfa0 f i UiChatCentre.obj
 0001:0004bff0       ??0?$_Tree@V?$basic_string@DU?$char_traits@D@std@@V?$allocator@D@2@@std@@U?$pair@$$CBV?$basic_string@DU?$char_traits@D@std@@V?$allocator@D@2@@std@@V12@@2@U_Kfn@?$map@V?$basic_string@DU?$char_traits@D@std@@V?$allocator@D@2@@std@@V12@U?$less@V?$basic_string@DU?$char_traits@D@std@@V?$allocator@D@2@@std@@@2@V?$allocator@V?$basic_string@DU?$char_traits@D@std@@V?$allocator@D@2@@std@@@2@@2@U?$less@V?$basic_string@DU?$char_traits@D@std@@V?$allocator@D@2@@std@@@2@V?$allocator@V?$basic_string@DU?$char_traits@D@std@@V?$allocator@D@2@@std@@@2@@std@@QAE@ABU?$less@V?$basic_string@DU?$char_traits@D@std@@V?$allocator@D@2@@std@@@1@_NABV?$allocator@V?$basic_string@DU?$char_traits@D@std@@V?$allocator@D@2@@std@@@1@@Z 0044cff0 f i UiChatCentre.obj
 0001:0004c030       ??4?$_Tree@V?$basic_string@DU?$char_traits@D@std@@V?$allocator@D@2@@std@@U?$pair@$$CBV?$basic_string@DU?$char_traits@D@std@@V?$allocator@D@2@@std@@V12@@2@U_Kfn@?$map@V?$basic_string@DU?$char_traits@D@std@@V?$allocator@D@2@@std@@V12@U?$less@V?$basic_string@DU?$char_traits@D@std@@V?$allocator@D@2@@std@@@2@V?$allocator@V?$basic_string@DU?$char_traits@D@std@@V?$allocator@D@2@@std@@@2@@2@U?$less@V?$basic_string@DU?$char_traits@D@std@@V?$allocator@D@2@@std@@@2@V?$allocator@V?$basic_string@DU?$char_traits@D@std@@V?$allocator@D@2@@std@@@2@@std@@QAEAAV01@ABV01@@Z 0044d030 f i UiChatCentre.obj
 0001:0004c090       ?begin@?$_Tree@V?$basic_string@DU?$char_traits@D@std@@V?$allocator@D@2@@std@@U?$pair@$$CBV?$basic_string@DU?$char_traits@D@std@@V?$allocator@D@2@@std@@V12@@2@U_Kfn@?$map@V?$basic_string@DU?$char_traits@D@std@@V?$allocator@D@2@@std@@V12@U?$less@V?$basic_string@DU?$char_traits@D@std@@V?$allocator@D@2@@std@@@2@V?$allocator@V?$basic_string@DU?$char_traits@D@std@@V?$allocator@D@2@@std@@@2@@2@U?$less@V?$basic_string@DU?$char_traits@D@std@@V?$allocator@D@2@@std@@@2@V?$allocator@V?$basic_string@DU?$char_traits@D@std@@V?$allocator@D@2@@std@@@2@@std@@QAE?AViterator@12@XZ 0044d090 f i UiChatCentre.obj
 0001:0004c0c0       ?end@?$_Tree@V?$basic_string@DU?$char_traits@D@std@@V?$allocator@D@2@@std@@U?$pair@$$CBV?$basic_string@DU?$char_traits@D@std@@V?$allocator@D@2@@std@@V12@@2@U_Kfn@?$map@V?$basic_string@DU?$char_traits@D@std@@V?$allocator@D@2@@std@@V12@U?$less@V?$basic_string@DU?$char_traits@D@std@@V?$allocator@D@2@@std@@@2@V?$allocator@V?$basic_string@DU?$char_traits@D@std@@V?$allocator@D@2@@std@@@2@@2@U?$less@V?$basic_string@DU?$char_traits@D@std@@V?$allocator@D@2@@std@@@2@V?$allocator@V?$basic_string@DU?$char_traits@D@std@@V?$allocator@D@2@@std@@@2@@std@@QAE?AViterator@12@XZ 0044d0c0 f i UiChatCentre.obj
 0001:0004c0f0       ?erase@?$_Tree@V?$basic_string@DU?$char_traits@D@std@@V?$allocator@D@2@@std@@U?$pair@$$CBV?$basic_string@DU?$char_traits@D@std@@V?$allocator@D@2@@std@@V12@@2@U_Kfn@?$map@V?$basic_string@DU?$char_traits@D@std@@V?$allocator@D@2@@std@@V12@U?$less@V?$basic_string@DU?$char_traits@D@std@@V?$allocator@D@2@@std@@@2@V?$allocator@V?$basic_string@DU?$char_traits@D@std@@V?$allocator@D@2@@std@@@2@@2@U?$less@V?$basic_string@DU?$char_traits@D@std@@V?$allocator@D@2@@std@@@2@V?$allocator@V?$basic_string@DU?$char_traits@D@std@@V?$allocator@D@2@@std@@@2@@std@@QAE?AViterator@12@V312@@Z 0044d0f0 f i UiChatCentre.obj
 0001:0004c940       ?erase@?$_Tree@V?$basic_string@DU?$char_traits@D@std@@V?$allocator@D@2@@std@@U?$pair@$$CBV?$basic_string@DU?$char_traits@D@std@@V?$allocator@D@2@@std@@V12@@2@U_Kfn@?$map@V?$basic_string@DU?$char_traits@D@std@@V?$allocator@D@2@@std@@V12@U?$less@V?$basic_string@DU?$char_traits@D@std@@V?$allocator@D@2@@std@@@2@V?$allocator@V?$basic_string@DU?$char_traits@D@std@@V?$allocator@D@2@@std@@@2@@2@U?$less@V?$basic_string@DU?$char_traits@D@std@@V?$allocator@D@2@@std@@@2@V?$allocator@V?$basic_string@DU?$char_traits@D@std@@V?$allocator@D@2@@std@@@2@@std@@QAE?AViterator@12@V312@0@Z 0044d940 f i UiChatCentre.obj
 0001:0004ca80       ?clear@?$_Tree@V?$basic_string@DU?$char_traits@D@std@@V?$allocator@D@2@@std@@U?$pair@$$CBV?$basic_string@DU?$char_traits@D@std@@V?$allocator@D@2@@std@@V12@@2@U_Kfn@?$map@V?$basic_string@DU?$char_traits@D@std@@V?$allocator@D@2@@std@@V12@U?$less@V?$basic_string@DU?$char_traits@D@std@@V?$allocator@D@2@@std@@@2@V?$allocator@V?$basic_string@DU?$char_traits@D@std@@V?$allocator@D@2@@std@@@2@@2@U?$less@V?$basic_string@DU?$char_traits@D@std@@V?$allocator@D@2@@std@@@2@V?$allocator@V?$basic_string@DU?$char_traits@D@std@@V?$allocator@D@2@@std@@@2@@std@@QAEXXZ 0044da80 f i UiChatCentre.obj
 0001:0004cac0       ?find@?$_Tree@V?$basic_string@DU?$char_traits@D@std@@V?$allocator@D@2@@std@@U?$pair@$$CBV?$basic_string@DU?$char_traits@D@std@@V?$allocator@D@2@@std@@V12@@2@U_Kfn@?$map@V?$basic_string@DU?$char_traits@D@std@@V?$allocator@D@2@@std@@V12@U?$less@V?$basic_string@DU?$char_traits@D@std@@V?$allocator@D@2@@std@@@2@V?$allocator@V?$basic_string@DU?$char_traits@D@std@@V?$allocator@D@2@@std@@@2@@2@U?$less@V?$basic_string@DU?$char_traits@D@std@@V?$allocator@D@2@@std@@@2@V?$allocator@V?$basic_string@DU?$char_traits@D@std@@V?$allocator@D@2@@std@@@2@@std@@QAE?AViterator@12@ABV?$basic_string@DU?$char_traits@D@std@@V?$allocator@D@2@@2@@Z 0044dac0 f i UiChatCentre.obj
 0001:0004cb60       ?_Freenode@?$_Tree@V?$basic_string@DU?$char_traits@D@std@@V?$allocator@D@2@@std@@U?$pair@$$CBV?$basic_string@DU?$char_traits@D@std@@V?$allocator@D@2@@std@@V12@@2@U_Kfn@?$map@V?$basic_string@DU?$char_traits@D@std@@V?$allocator@D@2@@std@@V12@U?$less@V?$basic_string@DU?$char_traits@D@std@@V?$allocator@D@2@@std@@@2@V?$allocator@V?$basic_string@DU?$char_traits@D@std@@V?$allocator@D@2@@std@@@2@@2@U?$less@V?$basic_string@DU?$char_traits@D@std@@V?$allocator@D@2@@std@@@2@V?$allocator@V?$basic_string@DU?$char_traits@D@std@@V?$allocator@D@2@@std@@@2@@std@@IAEXPAU_Node@12@@Z 0044db60 f i UiChatCentre.obj
 0001:0004cb80       ??0?$pair@$$CBV?$basic_string@DU?$char_traits@D@std@@V?$allocator@D@2@@std@@V12@@std@@QAE@ABV?$basic_string@DU?$char_traits@D@std@@V?$allocator@D@2@@1@0@Z 0044db80 f i UiChatCentre.obj
 0001:0004cbe0       ??Diterator@?$_Tree@V?$basic_string@DU?$char_traits@D@std@@V?$allocator@D@2@@std@@U?$pair@$$CBV?$basic_string@DU?$char_traits@D@std@@V?$allocator@D@2@@std@@V12@@2@U_Kfn@?$map@V?$basic_string@DU?$char_traits@D@std@@V?$allocator@D@2@@std@@V12@U?$less@V?$basic_string@DU?$char_traits@D@std@@V?$allocator@D@2@@std@@@2@V?$allocator@V?$basic_string@DU?$char_traits@D@std@@V?$allocator@D@2@@std@@@2@@2@U?$less@V?$basic_string@DU?$char_traits@D@std@@V?$allocator@D@2@@std@@@2@V?$allocator@V?$basic_string@DU?$char_traits@D@std@@V?$allocator@D@2@@std@@@2@@std@@QBEAAU?$pair@$$CBV?$basic_string@DU?$char_traits@D@std@@V?$allocator@D@2@@std@@V12@@2@XZ 0044dbe0 f i UiChatCentre.obj
 0001:0004cc00       ??Eiterator@?$_Tree@V?$basic_string@DU?$char_traits@D@std@@V?$allocator@D@2@@std@@U?$pair@$$CBV?$basic_string@DU?$char_traits@D@std@@V?$allocator@D@2@@std@@V12@@2@U_Kfn@?$map@V?$basic_string@DU?$char_traits@D@std@@V?$allocator@D@2@@std@@V12@U?$less@V?$basic_string@DU?$char_traits@D@std@@V?$allocator@D@2@@std@@@2@V?$allocator@V?$basic_string@DU?$char_traits@D@std@@V?$allocator@D@2@@std@@@2@@2@U?$less@V?$basic_string@DU?$char_traits@D@std@@V?$allocator@D@2@@std@@@2@V?$allocator@V?$basic_string@DU?$char_traits@D@std@@V?$allocator@D@2@@std@@@2@@std@@QAEAAV012@XZ 0044dc00 f i UiChatCentre.obj
 0001:0004cc20       ??8iterator@?$_Tree@V?$basic_string@DU?$char_traits@D@std@@V?$allocator@D@2@@std@@U?$pair@$$CBV?$basic_string@DU?$char_traits@D@std@@V?$allocator@D@2@@std@@V12@@2@U_Kfn@?$map@V?$basic_string@DU?$char_traits@D@std@@V?$allocator@D@2@@std@@V12@U?$less@V?$basic_string@DU?$char_traits@D@std@@V?$allocator@D@2@@std@@@2@V?$allocator@V?$basic_string@DU?$char_traits@D@std@@V?$allocator@D@2@@std@@@2@@2@U?$less@V?$basic_string@DU?$char_traits@D@std@@V?$allocator@D@2@@std@@@2@V?$allocator@V?$basic_string@DU?$char_traits@D@std@@V?$allocator@D@2@@std@@@2@@std@@QBE_NABV012@@Z 0044dc20 f i UiChatCentre.obj
 0001:0004cc40       ?insert@?$map@V?$basic_string@DU?$char_traits@D@std@@V?$allocator@D@2@@std@@EU?$less@V?$basic_string@DU?$char_traits@D@std@@V?$allocator@D@2@@std@@@2@V?$allocator@E@2@@std@@QAE?AU?$pair@Viterator@?$_Tree@V?$basic_string@DU?$char_traits@D@std@@V?$allocator@D@2@@std@@U?$pair@$$CBV?$basic_string@DU?$char_traits@D@std@@V?$allocator@D@2@@std@@E@2@U_Kfn@?$map@V?$basic_string@DU?$char_traits@D@std@@V?$allocator@D@2@@std@@EU?$less@V?$basic_string@DU?$char_traits@D@std@@V?$allocator@D@2@@std@@@2@V?$allocator@E@2@@2@U?$less@V?$basic_string@DU?$char_traits@D@std@@V?$allocator@D@2@@std@@@2@V?$allocator@E@2@@std@@_N@2@ABU?$pair@$$CBV?$basic_string@DU?$char_traits@D@std@@V?$allocator@D@2@@std@@E@2@@Z 0044dc40 f i UiChatCentre.obj
 0001:0004cc90       ??0?$_Tree@V?$basic_string@DU?$char_traits@D@std@@V?$allocator@D@2@@std@@U?$pair@$$CBV?$basic_string@DU?$char_traits@D@std@@V?$allocator@D@2@@std@@E@2@U_Kfn@?$map@V?$basic_string@DU?$char_traits@D@std@@V?$allocator@D@2@@std@@EU?$less@V?$basic_string@DU?$char_traits@D@std@@V?$allocator@D@2@@std@@@2@V?$allocator@E@2@@2@U?$less@V?$basic_string@DU?$char_traits@D@std@@V?$allocator@D@2@@std@@@2@V?$allocator@E@2@@std@@QAE@ABU?$less@V?$basic_string@DU?$char_traits@D@std@@V?$allocator@D@2@@std@@@1@_NABV?$allocator@E@1@@Z 0044dc90 f i UiChatCentre.obj
 0001:0004ccd0       ??4?$_Tree@V?$basic_string@DU?$char_traits@D@std@@V?$allocator@D@2@@std@@U?$pair@$$CBV?$basic_string@DU?$char_traits@D@std@@V?$allocator@D@2@@std@@E@2@U_Kfn@?$map@V?$basic_string@DU?$char_traits@D@std@@V?$allocator@D@2@@std@@EU?$less@V?$basic_string@DU?$char_traits@D@std@@V?$allocator@D@2@@std@@@2@V?$allocator@E@2@@2@U?$less@V?$basic_string@DU?$char_traits@D@std@@V?$allocator@D@2@@std@@@2@V?$allocator@E@2@@std@@QAEAAV01@ABV01@@Z 0044dcd0 f i UiChatCentre.obj
 0001:0004cd30       ?begin@?$_Tree@V?$basic_string@DU?$char_traits@D@std@@V?$allocator@D@2@@std@@U?$pair@$$CBV?$basic_string@DU?$char_traits@D@std@@V?$allocator@D@2@@std@@E@2@U_Kfn@?$map@V?$basic_string@DU?$char_traits@D@std@@V?$allocator@D@2@@std@@EU?$less@V?$basic_string@DU?$char_traits@D@std@@V?$allocator@D@2@@std@@@2@V?$allocator@E@2@@2@U?$less@V?$basic_string@DU?$char_traits@D@std@@V?$allocator@D@2@@std@@@2@V?$allocator@E@2@@std@@QAE?AViterator@12@XZ 0044dd30 f i UiChatCentre.obj
 0001:0004cd60       ?end@?$_Tree@V?$basic_string@DU?$char_traits@D@std@@V?$allocator@D@2@@std@@U?$pair@$$CBV?$basic_string@DU?$char_traits@D@std@@V?$allocator@D@2@@std@@E@2@U_Kfn@?$map@V?$basic_string@DU?$char_traits@D@std@@V?$allocator@D@2@@std@@EU?$less@V?$basic_string@DU?$char_traits@D@std@@V?$allocator@D@2@@std@@@2@V?$allocator@E@2@@2@U?$less@V?$basic_string@DU?$char_traits@D@std@@V?$allocator@D@2@@std@@@2@V?$allocator@E@2@@std@@QAE?AViterator@12@XZ 0044dd60 f i UiChatCentre.obj
 0001:0004cd90       ?erase@?$_Tree@V?$basic_string@DU?$char_traits@D@std@@V?$allocator@D@2@@std@@U?$pair@$$CBV?$basic_string@DU?$char_traits@D@std@@V?$allocator@D@2@@std@@E@2@U_Kfn@?$map@V?$basic_string@DU?$char_traits@D@std@@V?$allocator@D@2@@std@@EU?$less@V?$basic_string@DU?$char_traits@D@std@@V?$allocator@D@2@@std@@@2@V?$allocator@E@2@@2@U?$less@V?$basic_string@DU?$char_traits@D@std@@V?$allocator@D@2@@std@@@2@V?$allocator@E@2@@std@@QAE?AViterator@12@V312@0@Z 0044dd90 f i UiChatCentre.obj
 0001:0004ced0       ?clear@?$_Tree@V?$basic_string@DU?$char_traits@D@std@@V?$allocator@D@2@@std@@U?$pair@$$CBV?$basic_string@DU?$char_traits@D@std@@V?$allocator@D@2@@std@@E@2@U_Kfn@?$map@V?$basic_string@DU?$char_traits@D@std@@V?$allocator@D@2@@std@@EU?$less@V?$basic_string@DU?$char_traits@D@std@@V?$allocator@D@2@@std@@@2@V?$allocator@E@2@@2@U?$less@V?$basic_string@DU?$char_traits@D@std@@V?$allocator@D@2@@std@@@2@V?$allocator@E@2@@std@@QAEXXZ 0044ded0 f i UiChatCentre.obj
 0001:0004cf10       ?find@?$_Tree@V?$basic_string@DU?$char_traits@D@std@@V?$allocator@D@2@@std@@U?$pair@$$CBV?$basic_string@DU?$char_traits@D@std@@V?$allocator@D@2@@std@@E@2@U_Kfn@?$map@V?$basic_string@DU?$char_traits@D@std@@V?$allocator@D@2@@std@@EU?$less@V?$basic_string@DU?$char_traits@D@std@@V?$allocator@D@2@@std@@@2@V?$allocator@E@2@@2@U?$less@V?$basic_string@DU?$char_traits@D@std@@V?$allocator@D@2@@std@@@2@V?$allocator@E@2@@std@@QAE?AViterator@12@ABV?$basic_string@DU?$char_traits@D@std@@V?$allocator@D@2@@2@@Z 0044df10 f i UiChatCentre.obj
 0001:0004cfb0       ?_Freenode@?$_Tree@V?$basic_string@DU?$char_traits@D@std@@V?$allocator@D@2@@std@@U?$pair@$$CBV?$basic_string@DU?$char_traits@D@std@@V?$allocator@D@2@@std@@E@2@U_Kfn@?$map@V?$basic_string@DU?$char_traits@D@std@@V?$allocator@D@2@@std@@EU?$less@V?$basic_string@DU?$char_traits@D@std@@V?$allocator@D@2@@std@@@2@V?$allocator@E@2@@2@U?$less@V?$basic_string@DU?$char_traits@D@std@@V?$allocator@D@2@@std@@@2@V?$allocator@E@2@@std@@IAEXPAU_Node@12@@Z 0044dfb0 f i UiChatCentre.obj
 0001:0004cfd0       ??0?$pair@$$CBV?$basic_string@DU?$char_traits@D@std@@V?$allocator@D@2@@std@@E@std@@QAE@ABV?$basic_string@DU?$char_traits@D@std@@V?$allocator@D@2@@1@ABE@Z 0044dfd0 f i UiChatCentre.obj
 0001:0004d000       ??Diterator@?$_Tree@V?$basic_string@DU?$char_traits@D@std@@V?$allocator@D@2@@std@@U?$pair@$$CBV?$basic_string@DU?$char_traits@D@std@@V?$allocator@D@2@@std@@E@2@U_Kfn@?$map@V?$basic_string@DU?$char_traits@D@std@@V?$allocator@D@2@@std@@EU?$less@V?$basic_string@DU?$char_traits@D@std@@V?$allocator@D@2@@std@@@2@V?$allocator@E@2@@2@U?$less@V?$basic_string@DU?$char_traits@D@std@@V?$allocator@D@2@@std@@@2@V?$allocator@E@2@@std@@QBEAAU?$pair@$$CBV?$basic_string@DU?$char_traits@D@std@@V?$allocator@D@2@@std@@E@2@XZ 0044e000 f i UiChatCentre.obj
 0001:0004d020       ??8iterator@?$_Tree@V?$basic_string@DU?$char_traits@D@std@@V?$allocator@D@2@@std@@U?$pair@$$CBV?$basic_string@DU?$char_traits@D@std@@V?$allocator@D@2@@std@@E@2@U_Kfn@?$map@V?$basic_string@DU?$char_traits@D@std@@V?$allocator@D@2@@std@@EU?$less@V?$basic_string@DU?$char_traits@D@std@@V?$allocator@D@2@@std@@@2@V?$allocator@E@2@@2@U?$less@V?$basic_string@DU?$char_traits@D@std@@V?$allocator@D@2@@std@@@2@V?$allocator@E@2@@std@@QBE_NABV012@@Z 0044e020 f i UiChatCentre.obj
 0001:0004d040       ?begin@?$list@V?$basic_string@DU?$char_traits@D@std@@V?$allocator@D@2@@std@@V?$allocator@V?$basic_string@DU?$char_traits@D@std@@V?$allocator@D@2@@std@@@2@@std@@QAE?AViterator@12@XZ 0044e040 f i UiChatCentre.obj
 0001:0004d080       ?end@?$list@V?$basic_string@DU?$char_traits@D@std@@V?$allocator@D@2@@std@@V?$allocator@V?$basic_string@DU?$char_traits@D@std@@V?$allocator@D@2@@std@@@2@@std@@QAE?AViterator@12@XZ 0044e080 f i UiChatCentre.obj
 0001:0004d0b0       ?size@?$list@V?$basic_string@DU?$char_traits@D@std@@V?$allocator@D@2@@std@@V?$allocator@V?$basic_string@DU?$char_traits@D@std@@V?$allocator@D@2@@std@@@2@@std@@QBEIXZ 0044e0b0 f i UiChatCentre.obj
 0001:0004d0d0       ?insert@?$list@V?$basic_string@DU?$char_traits@D@std@@V?$allocator@D@2@@std@@V?$allocator@V?$basic_string@DU?$char_traits@D@std@@V?$allocator@D@2@@std@@@2@@std@@QAE?AViterator@12@V312@ABV?$basic_string@DU?$char_traits@D@std@@V?$allocator@D@2@@2@@Z 0044e0d0 f i UiChatCentre.obj
 0001:0004d190       ?erase@?$list@V?$basic_string@DU?$char_traits@D@std@@V?$allocator@D@2@@std@@V?$allocator@V?$basic_string@DU?$char_traits@D@std@@V?$allocator@D@2@@std@@@2@@std@@QAE?AViterator@12@V312@0@Z 0044e190 f i UiChatCentre.obj
 0001:0004d1e0       ?_Buynode@?$list@V?$basic_string@DU?$char_traits@D@std@@V?$allocator@D@2@@std@@V?$allocator@V?$basic_string@DU?$char_traits@D@std@@V?$allocator@D@2@@std@@@2@@std@@IAEPAU_Node@12@PAU312@0@Z 0044e1e0 f i UiChatCentre.obj
 0001:0004d250       ?_Freenode@?$list@V?$basic_string@DU?$char_traits@D@std@@V?$allocator@D@2@@std@@V?$allocator@V?$basic_string@DU?$char_traits@D@std@@V?$allocator@D@2@@std@@@2@@std@@IAEXPAU_Node@12@@Z 0044e250 f i UiChatCentre.obj
 0001:0004d270       ?_Next@_Acc@?$list@V?$basic_string@DU?$char_traits@D@std@@V?$allocator@D@2@@std@@V?$allocator@V?$basic_string@DU?$char_traits@D@std@@V?$allocator@D@2@@std@@@2@@std@@SAAAPAU_Node@23@PAU423@@Z 0044e270 f i UiChatCentre.obj
 0001:0004d280       ?_Value@_Acc@?$list@V?$basic_string@DU?$char_traits@D@std@@V?$allocator@D@2@@std@@V?$allocator@V?$basic_string@DU?$char_traits@D@std@@V?$allocator@D@2@@std@@@2@@std@@SAAAV?$basic_string@DU?$char_traits@D@std@@V?$allocator@D@2@@3@PAU_Node@23@@Z 0044e280 f i UiChatCentre.obj
 0001:0004d290       ??0const_iterator@?$list@V?$basic_string@DU?$char_traits@D@std@@V?$allocator@D@2@@std@@V?$allocator@V?$basic_string@DU?$char_traits@D@std@@V?$allocator@D@2@@std@@@2@@std@@QAE@PAU_Node@12@@Z 0044e290 f i UiChatCentre.obj
 0001:0004d2b0       ??Econst_iterator@?$list@V?$basic_string@DU?$char_traits@D@std@@V?$allocator@D@2@@std@@V?$allocator@V?$basic_string@DU?$char_traits@D@std@@V?$allocator@D@2@@std@@@2@@std@@QAEAAV012@XZ 0044e2b0 f i UiChatCentre.obj
 0001:0004d2e0       ??8const_iterator@?$list@V?$basic_string@DU?$char_traits@D@std@@V?$allocator@D@2@@std@@V?$allocator@V?$basic_string@DU?$char_traits@D@std@@V?$allocator@D@2@@std@@@2@@std@@QBE_NABV012@@Z 0044e2e0 f i UiChatCentre.obj
 0001:0004d300       ??R?$less@V?$basic_string@DU?$char_traits@D@std@@V?$allocator@D@2@@std@@@std@@QBE_NABV?$basic_string@DU?$char_traits@D@std@@V?$allocator@D@2@@1@0@Z 0044e300 f i UiChatCentre.obj
 0001:0004d320       ?_Charalloc@?$allocator@V?$basic_string@DU?$char_traits@D@std@@V?$allocator@D@2@@std@@@std@@QAEPADI@Z 0044e320 f i UiChatCentre.obj
 0001:0004d340       ?deallocate@?$allocator@V?$basic_string@DU?$char_traits@D@std@@V?$allocator@D@2@@std@@@std@@QAEXPAXI@Z 0044e340 f i UiChatCentre.obj
 0001:0004d360       ?construct@?$allocator@V?$basic_string@DU?$char_traits@D@std@@V?$allocator@D@2@@std@@@std@@QAEXPAV?$basic_string@DU?$char_traits@D@std@@V?$allocator@D@2@@2@ABV32@@Z 0044e360 f i UiChatCentre.obj
 0001:0004d380       ?_Color@?$_Tree@V?$basic_string@DU?$char_traits@D@std@@V?$allocator@D@2@@std@@U?$pair@$$CBV?$basic_string@DU?$char_traits@D@std@@V?$allocator@D@2@@std@@V12@@2@U_Kfn@?$map@V?$basic_string@DU?$char_traits@D@std@@V?$allocator@D@2@@std@@V12@U?$less@V?$basic_string@DU?$char_traits@D@std@@V?$allocator@D@2@@std@@@2@V?$allocator@V?$basic_string@DU?$char_traits@D@std@@V?$allocator@D@2@@std@@@2@@2@U?$less@V?$basic_string@DU?$char_traits@D@std@@V?$allocator@D@2@@std@@@2@V?$allocator@V?$basic_string@DU?$char_traits@D@std@@V?$allocator@D@2@@std@@@2@@std@@KAAAW4_Redbl@12@PAU_Node@12@@Z 0044e380 f i UiChatCentre.obj
 0001:0004d390       ?_Key@?$_Tree@V?$basic_string@DU?$char_traits@D@std@@V?$allocator@D@2@@std@@U?$pair@$$CBV?$basic_string@DU?$char_traits@D@std@@V?$allocator@D@2@@std@@V12@@2@U_Kfn@?$map@V?$basic_string@DU?$char_traits@D@std@@V?$allocator@D@2@@std@@V12@U?$less@V?$basic_string@DU?$char_traits@D@std@@V?$allocator@D@2@@std@@@2@V?$allocator@V?$basic_string@DU?$char_traits@D@std@@V?$allocator@D@2@@std@@@2@@2@U?$less@V?$basic_string@DU?$char_traits@D@std@@V?$allocator@D@2@@std@@@2@V?$allocator@V?$basic_string@DU?$char_traits@D@std@@V?$allocator@D@2@@std@@@2@@std@@KAABV?$basic_string@DU?$char_traits@D@std@@V?$allocator@D@2@@2@PAU_Node@12@@Z 0044e390 f i UiChatCentre.obj
 0001:0004d3b0       ?_Left@?$_Tree@V?$basic_string@DU?$char_traits@D@std@@V?$allocator@D@2@@std@@U?$pair@$$CBV?$basic_string@DU?$char_traits@D@std@@V?$allocator@D@2@@std@@V12@@2@U_Kfn@?$map@V?$basic_string@DU?$char_traits@D@std@@V?$allocator@D@2@@std@@V12@U?$less@V?$basic_string@DU?$char_traits@D@std@@V?$allocator@D@2@@std@@@2@V?$allocator@V?$basic_string@DU?$char_traits@D@std@@V?$allocator@D@2@@std@@@2@@2@U?$less@V?$basic_string@DU?$char_traits@D@std@@V?$allocator@D@2@@std@@@2@V?$allocator@V?$basic_string@DU?$char_traits@D@std@@V?$allocator@D@2@@std@@@2@@std@@KAAAPAU_Node@12@PAU312@@Z 0044e3b0 f i UiChatCentre.obj
 0001:0004d3c0       ?_Parent@?$_Tree@V?$basic_string@DU?$char_traits@D@std@@V?$allocator@D@2@@std@@U?$pair@$$CBV?$basic_string@DU?$char_traits@D@std@@V?$allocator@D@2@@std@@V12@@2@U_Kfn@?$map@V?$basic_string@DU?$char_traits@D@std@@V?$allocator@D@2@@std@@V12@U?$less@V?$basic_string@DU?$char_traits@D@std@@V?$allocator@D@2@@std@@@2@V?$allocator@V?$basic_string@DU?$char_traits@D@std@@V?$allocator@D@2@@std@@@2@@2@U?$less@V?$basic_string@DU?$char_traits@D@std@@V?$allocator@D@2@@std@@@2@V?$allocator@V?$basic_string@DU?$char_traits@D@std@@V?$allocator@D@2@@std@@@2@@std@@KAAAPAU_Node@12@PAU312@@Z 0044e3c0 f i UiChatCentre.obj
 0001:0004d3d0       ?_Right@?$_Tree@V?$basic_string@DU?$char_traits@D@std@@V?$allocator@D@2@@std@@U?$pair@$$CBV?$basic_string@DU?$char_traits@D@std@@V?$allocator@D@2@@std@@V12@@2@U_Kfn@?$map@V?$basic_string@DU?$char_traits@D@std@@V?$allocator@D@2@@std@@V12@U?$less@V?$basic_string@DU?$char_traits@D@std@@V?$allocator@D@2@@std@@@2@V?$allocator@V?$basic_string@DU?$char_traits@D@std@@V?$allocator@D@2@@std@@@2@@2@U?$less@V?$basic_string@DU?$char_traits@D@std@@V?$allocator@D@2@@std@@@2@V?$allocator@V?$basic_string@DU?$char_traits@D@std@@V?$allocator@D@2@@std@@@2@@std@@KAAAPAU_Node@12@PAU312@@Z 0044e3d0 f i UiChatCentre.obj
 0001:0004d3e0       ?_Value@?$_Tree@V?$basic_string@DU?$char_traits@D@std@@V?$allocator@D@2@@std@@U?$pair@$$CBV?$basic_string@DU?$char_traits@D@std@@V?$allocator@D@2@@std@@V12@@2@U_Kfn@?$map@V?$basic_string@DU?$char_traits@D@std@@V?$allocator@D@2@@std@@V12@U?$less@V?$basic_string@DU?$char_traits@D@std@@V?$allocator@D@2@@std@@@2@V?$allocator@V?$basic_string@DU?$char_traits@D@std@@V?$allocator@D@2@@std@@@2@@2@U?$less@V?$basic_string@DU?$char_traits@D@std@@V?$allocator@D@2@@std@@@2@V?$allocator@V?$basic_string@DU?$char_traits@D@std@@V?$allocator@D@2@@std@@@2@@std@@KAAAU?$pair@$$CBV?$basic_string@DU?$char_traits@D@std@@V?$allocator@D@2@@std@@V12@@2@PAU_Node@12@@Z 0044e3e0 f i UiChatCentre.obj
 0001:0004d3f0       ?size@?$_Tree@V?$basic_string@DU?$char_traits@D@std@@V?$allocator@D@2@@std@@U?$pair@$$CBV?$basic_string@DU?$char_traits@D@std@@V?$allocator@D@2@@std@@V12@@2@U_Kfn@?$map@V?$basic_string@DU?$char_traits@D@std@@V?$allocator@D@2@@std@@V12@U?$less@V?$basic_string@DU?$char_traits@D@std@@V?$allocator@D@2@@std@@@2@V?$allocator@V?$basic_string@DU?$char_traits@D@std@@V?$allocator@D@2@@std@@@2@@2@U?$less@V?$basic_string@DU?$char_traits@D@std@@V?$allocator@D@2@@std@@@2@V?$allocator@V?$basic_string@DU?$char_traits@D@std@@V?$allocator@D@2@@std@@@2@@std@@QBEIXZ 0044e3f0 f i UiChatCentre.obj
 0001:0004d410       ?insert@?$_Tree@V?$basic_string@DU?$char_traits@D@std@@V?$allocator@D@2@@std@@U?$pair@$$CBV?$basic_string@DU?$char_traits@D@std@@V?$allocator@D@2@@std@@V12@@2@U_Kfn@?$map@V?$basic_string@DU?$char_traits@D@std@@V?$allocator@D@2@@std@@V12@U?$less@V?$basic_string@DU?$char_traits@D@std@@V?$allocator@D@2@@std@@@2@V?$allocator@V?$basic_string@DU?$char_traits@D@std@@V?$allocator@D@2@@std@@@2@@2@U?$less@V?$basic_string@DU?$char_traits@D@std@@V?$allocator@D@2@@std@@@2@V?$allocator@V?$basic_string@DU?$char_traits@D@std@@V?$allocator@D@2@@std@@@2@@std@@QAE?AU?$pair@Viterator@?$_Tree@V?$basic_string@DU?$char_traits@D@std@@V?$allocator@D@2@@std@@U?$pair@$$CBV?$basic_string@DU?$char_traits@D@std@@V?$allocator@D@2@@std@@V12@@2@U_Kfn@?$map@V?$basic_string@DU?$char_traits@D@std@@V?$allocator@D@2@@std@@V12@U?$less@V?$basic_string@DU?$char_traits@D@std@@V?$allocator@D@2@@std@@@2@V?$allocator@V?$basic_string@DU?$char_traits@D@std@@V?$allocator@D@2@@std@@@2@@2@U?$less@V?$basic_string@DU?$char_traits@D@std@@V?$allocator@D@2@@std@@@2@V?$allocator@V?$basic_string@DU?$char_traits@D@std@@V?$allocator@D@2@@std@@@2@@std@@_N@2@ABU?$pair@$$CBV?$basic_string@DU?$char_traits@D@std@@V?$allocator@D@2@@std@@V12@@2@@Z 0044e410 f i UiChatCentre.obj
 0001:0004d650       ?lower_bound@?$_Tree@V?$basic_string@DU?$char_traits@D@std@@V?$allocator@D@2@@std@@U?$pair@$$CBV?$basic_string@DU?$char_traits@D@std@@V?$allocator@D@2@@std@@V12@@2@U_Kfn@?$map@V?$basic_string@DU?$char_traits@D@std@@V?$allocator@D@2@@std@@V12@U?$less@V?$basic_string@DU?$char_traits@D@std@@V?$allocator@D@2@@std@@@2@V?$allocator@V?$basic_string@DU?$char_traits@D@std@@V?$allocator@D@2@@std@@@2@@2@U?$less@V?$basic_string@DU?$char_traits@D@std@@V?$allocator@D@2@@std@@@2@V?$allocator@V?$basic_string@DU?$char_traits@D@std@@V?$allocator@D@2@@std@@@2@@std@@QAE?AViterator@12@ABV?$basic_string@DU?$char_traits@D@std@@V?$allocator@D@2@@2@@Z 0044e650 f i UiChatCentre.obj
 0001:0004d680       ?_Copy@?$_Tree@V?$basic_string@DU?$char_traits@D@std@@V?$allocator@D@2@@std@@U?$pair@$$CBV?$basic_string@DU?$char_traits@D@std@@V?$allocator@D@2@@std@@V12@@2@U_Kfn@?$map@V?$basic_string@DU?$char_traits@D@std@@V?$allocator@D@2@@std@@V12@U?$less@V?$basic_string@DU?$char_traits@D@std@@V?$allocator@D@2@@std@@@2@V?$allocator@V?$basic_string@DU?$char_traits@D@std@@V?$allocator@D@2@@std@@@2@@2@U?$less@V?$basic_string@DU?$char_traits@D@std@@V?$allocator@D@2@@std@@@2@V?$allocator@V?$basic_string@DU?$char_traits@D@std@@V?$allocator@D@2@@std@@@2@@std@@IAEXABV12@@Z 0044e680 f i UiChatCentre.obj
 0001:0004d780       ?_Erase@?$_Tree@V?$basic_string@DU?$char_traits@D@std@@V?$allocator@D@2@@std@@U?$pair@$$CBV?$basic_string@DU?$char_traits@D@std@@V?$allocator@D@2@@std@@V12@@2@U_Kfn@?$map@V?$basic_string@DU?$char_traits@D@std@@V?$allocator@D@2@@std@@V12@U?$less@V?$basic_string@DU?$char_traits@D@std@@V?$allocator@D@2@@std@@@2@V?$allocator@V?$basic_string@DU?$char_traits@D@std@@V?$allocator@D@2@@std@@@2@@2@U?$less@V?$basic_string@DU?$char_traits@D@std@@V?$allocator@D@2@@std@@@2@V?$allocator@V?$basic_string@DU?$char_traits@D@std@@V?$allocator@D@2@@std@@@2@@std@@IAEXPAU_Node@12@@Z 0044e780 f i UiChatCentre.obj
 0001:0004d840       ?_Init@?$_Tree@V?$basic_string@DU?$char_traits@D@std@@V?$allocator@D@2@@std@@U?$pair@$$CBV?$basic_string@DU?$char_traits@D@std@@V?$allocator@D@2@@std@@V12@@2@U_Kfn@?$map@V?$basic_string@DU?$char_traits@D@std@@V?$allocator@D@2@@std@@V12@U?$less@V?$basic_string@DU?$char_traits@D@std@@V?$allocator@D@2@@std@@@2@V?$allocator@V?$basic_string@DU?$char_traits@D@std@@V?$allocator@D@2@@std@@@2@@2@U?$less@V?$basic_string@DU?$char_traits@D@std@@V?$allocator@D@2@@std@@@2@V?$allocator@V?$basic_string@DU?$char_traits@D@std@@V?$allocator@D@2@@std@@@2@@std@@IAEXXZ 0044e840 f i UiChatCentre.obj
 0001:0004d920       ?_Lmost@?$_Tree@V?$basic_string@DU?$char_traits@D@std@@V?$allocator@D@2@@std@@U?$pair@$$CBV?$basic_string@DU?$char_traits@D@std@@V?$allocator@D@2@@std@@V12@@2@U_Kfn@?$map@V?$basic_string@DU?$char_traits@D@std@@V?$allocator@D@2@@std@@V12@U?$less@V?$basic_string@DU?$char_traits@D@std@@V?$allocator@D@2@@std@@@2@V?$allocator@V?$basic_string@DU?$char_traits@D@std@@V?$allocator@D@2@@std@@@2@@2@U?$less@V?$basic_string@DU?$char_traits@D@std@@V?$allocator@D@2@@std@@@2@V?$allocator@V?$basic_string@DU?$char_traits@D@std@@V?$allocator@D@2@@std@@@2@@std@@IAEAAPAU_Node@12@XZ 0044e920 f i UiChatCentre.obj
 0001:0004d940       ?_Lrotate@?$_Tree@V?$basic_string@DU?$char_traits@D@std@@V?$allocator@D@2@@std@@U?$pair@$$CBV?$basic_string@DU?$char_traits@D@std@@V?$allocator@D@2@@std@@V12@@2@U_Kfn@?$map@V?$basic_string@DU?$char_traits@D@std@@V?$allocator@D@2@@std@@V12@U?$less@V?$basic_string@DU?$char_traits@D@std@@V?$allocator@D@2@@std@@@2@V?$allocator@V?$basic_string@DU?$char_traits@D@std@@V?$allocator@D@2@@std@@@2@@2@U?$less@V?$basic_string@DU?$char_traits@D@std@@V?$allocator@D@2@@std@@@2@V?$allocator@V?$basic_string@DU?$char_traits@D@std@@V?$allocator@D@2@@std@@@2@@std@@IAEXPAU_Node@12@@Z 0044e940 f i UiChatCentre.obj
 0001:0004dab0       ?_Max@?$_Tree@V?$basic_string@DU?$char_traits@D@std@@V?$allocator@D@2@@std@@U?$pair@$$CBV?$basic_string@DU?$char_traits@D@std@@V?$allocator@D@2@@std@@V12@@2@U_Kfn@?$map@V?$basic_string@DU?$char_traits@D@std@@V?$allocator@D@2@@std@@V12@U?$less@V?$basic_string@DU?$char_traits@D@std@@V?$allocator@D@2@@std@@@2@V?$allocator@V?$basic_string@DU?$char_traits@D@std@@V?$allocator@D@2@@std@@@2@@2@U?$less@V?$basic_string@DU?$char_traits@D@std@@V?$allocator@D@2@@std@@@2@V?$allocator@V?$basic_string@DU?$char_traits@D@std@@V?$allocator@D@2@@std@@@2@@std@@KAPAU_Node@12@PAU312@@Z 0044eab0 f i UiChatCentre.obj
 0001:0004db30       ?_Min@?$_Tree@V?$basic_string@DU?$char_traits@D@std@@V?$allocator@D@2@@std@@U?$pair@$$CBV?$basic_string@DU?$char_traits@D@std@@V?$allocator@D@2@@std@@V12@@2@U_Kfn@?$map@V?$basic_string@DU?$char_traits@D@std@@V?$allocator@D@2@@std@@V12@U?$less@V?$basic_string@DU?$char_traits@D@std@@V?$allocator@D@2@@std@@@2@V?$allocator@V?$basic_string@DU?$char_traits@D@std@@V?$allocator@D@2@@std@@@2@@2@U?$less@V?$basic_string@DU?$char_traits@D@std@@V?$allocator@D@2@@std@@@2@V?$allocator@V?$basic_string@DU?$char_traits@D@std@@V?$allocator@D@2@@std@@@2@@std@@KAPAU_Node@12@PAU312@@Z 0044eb30 f i UiChatCentre.obj
 0001:0004dbb0       ?_Rmost@?$_Tree@V?$basic_string@DU?$char_traits@D@std@@V?$allocator@D@2@@std@@U?$pair@$$CBV?$basic_string@DU?$char_traits@D@std@@V?$allocator@D@2@@std@@V12@@2@U_Kfn@?$map@V?$basic_string@DU?$char_traits@D@std@@V?$allocator@D@2@@std@@V12@U?$less@V?$basic_string@DU?$char_traits@D@std@@V?$allocator@D@2@@std@@@2@V?$allocator@V?$basic_string@DU?$char_traits@D@std@@V?$allocator@D@2@@std@@@2@@2@U?$less@V?$basic_string@DU?$char_traits@D@std@@V?$allocator@D@2@@std@@@2@V?$allocator@V?$basic_string@DU?$char_traits@D@std@@V?$allocator@D@2@@std@@@2@@std@@IAEAAPAU_Node@12@XZ 0044ebb0 f i UiChatCentre.obj
 0001:0004dbd0       ?_Root@?$_Tree@V?$basic_string@DU?$char_traits@D@std@@V?$allocator@D@2@@std@@U?$pair@$$CBV?$basic_string@DU?$char_traits@D@std@@V?$allocator@D@2@@std@@V12@@2@U_Kfn@?$map@V?$basic_string@DU?$char_traits@D@std@@V?$allocator@D@2@@std@@V12@U?$less@V?$basic_string@DU?$char_traits@D@std@@V?$allocator@D@2@@std@@@2@V?$allocator@V?$basic_string@DU?$char_traits@D@std@@V?$allocator@D@2@@std@@@2@@2@U?$less@V?$basic_string@DU?$char_traits@D@std@@V?$allocator@D@2@@std@@@2@V?$allocator@V?$basic_string@DU?$char_traits@D@std@@V?$allocator@D@2@@std@@@2@@std@@IAEAAPAU_Node@12@XZ 0044ebd0 f i UiChatCentre.obj
 0001:0004dbf0       ?_Rrotate@?$_Tree@V?$basic_string@DU?$char_traits@D@std@@V?$allocator@D@2@@std@@U?$pair@$$CBV?$basic_string@DU?$char_traits@D@std@@V?$allocator@D@2@@std@@V12@@2@U_Kfn@?$map@V?$basic_string@DU?$char_traits@D@std@@V?$allocator@D@2@@std@@V12@U?$less@V?$basic_string@DU?$char_traits@D@std@@V?$allocator@D@2@@std@@@2@V?$allocator@V?$basic_string@DU?$char_traits@D@std@@V?$allocator@D@2@@std@@@2@@2@U?$less@V?$basic_string@DU?$char_traits@D@std@@V?$allocator@D@2@@std@@@2@V?$allocator@V?$basic_string@DU?$char_traits@D@std@@V?$allocator@D@2@@std@@@2@@std@@IAEXPAU_Node@12@@Z 0044ebf0 f i UiChatCentre.obj
 0001:0004dd60       ?_Destval@?$_Tree@V?$basic_string@DU?$char_traits@D@std@@V?$allocator@D@2@@std@@U?$pair@$$CBV?$basic_string@DU?$char_traits@D@std@@V?$allocator@D@2@@std@@V12@@2@U_Kfn@?$map@V?$basic_string@DU?$char_traits@D@std@@V?$allocator@D@2@@std@@V12@U?$less@V?$basic_string@DU?$char_traits@D@std@@V?$allocator@D@2@@std@@@2@V?$allocator@V?$basic_string@DU?$char_traits@D@std@@V?$allocator@D@2@@std@@@2@@2@U?$less@V?$basic_string@DU?$char_traits@D@std@@V?$allocator@D@2@@std@@@2@V?$allocator@V?$basic_string@DU?$char_traits@D@std@@V?$allocator@D@2@@std@@@2@@std@@IAEXPAU?$pair@$$CBV?$basic_string@DU?$char_traits@D@std@@V?$allocator@D@2@@std@@V12@@2@@Z 0044ed60 f i UiChatCentre.obj
 0001:0004dd80       ?_Inc@const_iterator@?$_Tree@V?$basic_string@DU?$char_traits@D@std@@V?$allocator@D@2@@std@@U?$pair@$$CBV?$basic_string@DU?$char_traits@D@std@@V?$allocator@D@2@@std@@V12@@2@U_Kfn@?$map@V?$basic_string@DU?$char_traits@D@std@@V?$allocator@D@2@@std@@V12@U?$less@V?$basic_string@DU?$char_traits@D@std@@V?$allocator@D@2@@std@@@2@V?$allocator@V?$basic_string@DU?$char_traits@D@std@@V?$allocator@D@2@@std@@@2@@2@U?$less@V?$basic_string@DU?$char_traits@D@std@@V?$allocator@D@2@@std@@@2@V?$allocator@V?$basic_string@DU?$char_traits@D@std@@V?$allocator@D@2@@std@@@2@@std@@QAEXXZ 0044ed80 f i UiChatCentre.obj
 0001:0004de60       ?_Mynode@const_iterator@?$_Tree@V?$basic_string@DU?$char_traits@D@std@@V?$allocator@D@2@@std@@U?$pair@$$CBV?$basic_string@DU?$char_traits@D@std@@V?$allocator@D@2@@std@@V12@@2@U_Kfn@?$map@V?$basic_string@DU?$char_traits@D@std@@V?$allocator@D@2@@std@@V12@U?$less@V?$basic_string@DU?$char_traits@D@std@@V?$allocator@D@2@@std@@@2@V?$allocator@V?$basic_string@DU?$char_traits@D@std@@V?$allocator@D@2@@std@@@2@@2@U?$less@V?$basic_string@DU?$char_traits@D@std@@V?$allocator@D@2@@std@@@2@V?$allocator@V?$basic_string@DU?$char_traits@D@std@@V?$allocator@D@2@@std@@@2@@std@@QBEPAU_Node@23@XZ 0044ee60 f i UiChatCentre.obj
 0001:0004de70       ??0iterator@?$_Tree@V?$basic_string@DU?$char_traits@D@std@@V?$allocator@D@2@@std@@U?$pair@$$CBV?$basic_string@DU?$char_traits@D@std@@V?$allocator@D@2@@std@@V12@@2@U_Kfn@?$map@V?$basic_string@DU?$char_traits@D@std@@V?$allocator@D@2@@std@@V12@U?$less@V?$basic_string@DU?$char_traits@D@std@@V?$allocator@D@2@@std@@@2@V?$allocator@V?$basic_string@DU?$char_traits@D@std@@V?$allocator@D@2@@std@@@2@@2@U?$less@V?$basic_string@DU?$char_traits@D@std@@V?$allocator@D@2@@std@@@2@V?$allocator@V?$basic_string@DU?$char_traits@D@std@@V?$allocator@D@2@@std@@@2@@std@@QAE@PAU_Node@12@@Z 0044ee70 f i UiChatCentre.obj
 0001:0004de90       ?deallocate@?$allocator@E@std@@QAEXPAXI@Z 0044ee90 f i UiChatCentre.obj
 0001:0004deb0       ?_Key@?$_Tree@V?$basic_string@DU?$char_traits@D@std@@V?$allocator@D@2@@std@@U?$pair@$$CBV?$basic_string@DU?$char_traits@D@std@@V?$allocator@D@2@@std@@E@2@U_Kfn@?$map@V?$basic_string@DU?$char_traits@D@std@@V?$allocator@D@2@@std@@EU?$less@V?$basic_string@DU?$char_traits@D@std@@V?$allocator@D@2@@std@@@2@V?$allocator@E@2@@2@U?$less@V?$basic_string@DU?$char_traits@D@std@@V?$allocator@D@2@@std@@@2@V?$allocator@E@2@@std@@KAABV?$basic_string@DU?$char_traits@D@std@@V?$allocator@D@2@@2@PAU_Node@12@@Z 0044eeb0 f i UiChatCentre.obj
 0001:0004ded0       ?_Value@?$_Tree@V?$basic_string@DU?$char_traits@D@std@@V?$allocator@D@2@@std@@U?$pair@$$CBV?$basic_string@DU?$char_traits@D@std@@V?$allocator@D@2@@std@@E@2@U_Kfn@?$map@V?$basic_string@DU?$char_traits@D@std@@V?$allocator@D@2@@std@@EU?$less@V?$basic_string@DU?$char_traits@D@std@@V?$allocator@D@2@@std@@@2@V?$allocator@E@2@@2@U?$less@V?$basic_string@DU?$char_traits@D@std@@V?$allocator@D@2@@std@@@2@V?$allocator@E@2@@std@@KAAAU?$pair@$$CBV?$basic_string@DU?$char_traits@D@std@@V?$allocator@D@2@@std@@E@2@PAU_Node@12@@Z 0044eed0 f i UiChatCentre.obj
 0001:0004dee0       ?size@?$_Tree@V?$basic_string@DU?$char_traits@D@std@@V?$allocator@D@2@@std@@U?$pair@$$CBV?$basic_string@DU?$char_traits@D@std@@V?$allocator@D@2@@std@@E@2@U_Kfn@?$map@V?$basic_string@DU?$char_traits@D@std@@V?$allocator@D@2@@std@@EU?$less@V?$basic_string@DU?$char_traits@D@std@@V?$allocator@D@2@@std@@@2@V?$allocator@E@2@@2@U?$less@V?$basic_string@DU?$char_traits@D@std@@V?$allocator@D@2@@std@@@2@V?$allocator@E@2@@std@@QBEIXZ 0044eee0 f i UiChatCentre.obj
 0001:0004df00       ?insert@?$_Tree@V?$basic_string@DU?$char_traits@D@std@@V?$allocator@D@2@@std@@U?$pair@$$CBV?$basic_string@DU?$char_traits@D@std@@V?$allocator@D@2@@std@@E@2@U_Kfn@?$map@V?$basic_string@DU?$char_traits@D@std@@V?$allocator@D@2@@std@@EU?$less@V?$basic_string@DU?$char_traits@D@std@@V?$allocator@D@2@@std@@@2@V?$allocator@E@2@@2@U?$less@V?$basic_string@DU?$char_traits@D@std@@V?$allocator@D@2@@std@@@2@V?$allocator@E@2@@std@@QAE?AU?$pair@Viterator@?$_Tree@V?$basic_string@DU?$char_traits@D@std@@V?$allocator@D@2@@std@@U?$pair@$$CBV?$basic_string@DU?$char_traits@D@std@@V?$allocator@D@2@@std@@E@2@U_Kfn@?$map@V?$basic_string@DU?$char_traits@D@std@@V?$allocator@D@2@@std@@EU?$less@V?$basic_string@DU?$char_traits@D@std@@V?$allocator@D@2@@std@@@2@V?$allocator@E@2@@2@U?$less@V?$basic_string@DU?$char_traits@D@std@@V?$allocator@D@2@@std@@@2@V?$allocator@E@2@@std@@_N@2@ABU?$pair@$$CBV?$basic_string@DU?$char_traits@D@std@@V?$allocator@D@2@@std@@E@2@@Z 0044ef00 f i UiChatCentre.obj
 0001:0004e140       ?erase@?$_Tree@V?$basic_string@DU?$char_traits@D@std@@V?$allocator@D@2@@std@@U?$pair@$$CBV?$basic_string@DU?$char_traits@D@std@@V?$allocator@D@2@@std@@E@2@U_Kfn@?$map@V?$basic_string@DU?$char_traits@D@std@@V?$allocator@D@2@@std@@EU?$less@V?$basic_string@DU?$char_traits@D@std@@V?$allocator@D@2@@std@@@2@V?$allocator@E@2@@2@U?$less@V?$basic_string@DU?$char_traits@D@std@@V?$allocator@D@2@@std@@@2@V?$allocator@E@2@@std@@QAE?AViterator@12@V312@@Z 0044f140 f i UiChatCentre.obj
 0001:0004e990       ?lower_bound@?$_Tree@V?$basic_string@DU?$char_traits@D@std@@V?$allocator@D@2@@std@@U?$pair@$$CBV?$basic_string@DU?$char_traits@D@std@@V?$allocator@D@2@@std@@E@2@U_Kfn@?$map@V?$basic_string@DU?$char_traits@D@std@@V?$allocator@D@2@@std@@EU?$less@V?$basic_string@DU?$char_traits@D@std@@V?$allocator@D@2@@std@@@2@V?$allocator@E@2@@2@U?$less@V?$basic_string@DU?$char_traits@D@std@@V?$allocator@D@2@@std@@@2@V?$allocator@E@2@@std@@QAE?AViterator@12@ABV?$basic_string@DU?$char_traits@D@std@@V?$allocator@D@2@@2@@Z 0044f990 f i UiChatCentre.obj
 0001:0004e9c0       ?_Copy@?$_Tree@V?$basic_string@DU?$char_traits@D@std@@V?$allocator@D@2@@std@@U?$pair@$$CBV?$basic_string@DU?$char_traits@D@std@@V?$allocator@D@2@@std@@E@2@U_Kfn@?$map@V?$basic_string@DU?$char_traits@D@std@@V?$allocator@D@2@@std@@EU?$less@V?$basic_string@DU?$char_traits@D@std@@V?$allocator@D@2@@std@@@2@V?$allocator@E@2@@2@U?$less@V?$basic_string@DU?$char_traits@D@std@@V?$allocator@D@2@@std@@@2@V?$allocator@E@2@@std@@IAEXABV12@@Z 0044f9c0 f i UiChatCentre.obj
 0001:0004eac0       ?_Erase@?$_Tree@V?$basic_string@DU?$char_traits@D@std@@V?$allocator@D@2@@std@@U?$pair@$$CBV?$basic_string@DU?$char_traits@D@std@@V?$allocator@D@2@@std@@E@2@U_Kfn@?$map@V?$basic_string@DU?$char_traits@D@std@@V?$allocator@D@2@@std@@EU?$less@V?$basic_string@DU?$char_traits@D@std@@V?$allocator@D@2@@std@@@2@V?$allocator@E@2@@2@U?$less@V?$basic_string@DU?$char_traits@D@std@@V?$allocator@D@2@@std@@@2@V?$allocator@E@2@@std@@IAEXPAU_Node@12@@Z 0044fac0 f i UiChatCentre.obj
 0001:0004eb80       ?_Init@?$_Tree@V?$basic_string@DU?$char_traits@D@std@@V?$allocator@D@2@@std@@U?$pair@$$CBV?$basic_string@DU?$char_traits@D@std@@V?$allocator@D@2@@std@@E@2@U_Kfn@?$map@V?$basic_string@DU?$char_traits@D@std@@V?$allocator@D@2@@std@@EU?$less@V?$basic_string@DU?$char_traits@D@std@@V?$allocator@D@2@@std@@@2@V?$allocator@E@2@@2@U?$less@V?$basic_string@DU?$char_traits@D@std@@V?$allocator@D@2@@std@@@2@V?$allocator@E@2@@std@@IAEXXZ 0044fb80 f i UiChatCentre.obj
 0001:0004ec60       ?_Lmost@?$_Tree@V?$basic_string@DU?$char_traits@D@std@@V?$allocator@D@2@@std@@U?$pair@$$CBV?$basic_string@DU?$char_traits@D@std@@V?$allocator@D@2@@std@@E@2@U_Kfn@?$map@V?$basic_string@DU?$char_traits@D@std@@V?$allocator@D@2@@std@@EU?$less@V?$basic_string@DU?$char_traits@D@std@@V?$allocator@D@2@@std@@@2@V?$allocator@E@2@@2@U?$less@V?$basic_string@DU?$char_traits@D@std@@V?$allocator@D@2@@std@@@2@V?$allocator@E@2@@std@@IAEAAPAU_Node@12@XZ 0044fc60 f i UiChatCentre.obj
 0001:0004ec80       ?_Rmost@?$_Tree@V?$basic_string@DU?$char_traits@D@std@@V?$allocator@D@2@@std@@U?$pair@$$CBV?$basic_string@DU?$char_traits@D@std@@V?$allocator@D@2@@std@@E@2@U_Kfn@?$map@V?$basic_string@DU?$char_traits@D@std@@V?$allocator@D@2@@std@@EU?$less@V?$basic_string@DU?$char_traits@D@std@@V?$allocator@D@2@@std@@@2@V?$allocator@E@2@@2@U?$less@V?$basic_string@DU?$char_traits@D@std@@V?$allocator@D@2@@std@@@2@V?$allocator@E@2@@std@@IAEAAPAU_Node@12@XZ 0044fc80 f i UiChatCentre.obj
 0001:0004eca0       ?_Root@?$_Tree@V?$basic_string@DU?$char_traits@D@std@@V?$allocator@D@2@@std@@U?$pair@$$CBV?$basic_string@DU?$char_traits@D@std@@V?$allocator@D@2@@std@@E@2@U_Kfn@?$map@V?$basic_string@DU?$char_traits@D@std@@V?$allocator@D@2@@std@@EU?$less@V?$basic_string@DU?$char_traits@D@std@@V?$allocator@D@2@@std@@@2@V?$allocator@E@2@@2@U?$less@V?$basic_string@DU?$char_traits@D@std@@V?$allocator@D@2@@std@@@2@V?$allocator@E@2@@std@@IAEAAPAU_Node@12@XZ 0044fca0 f i UiChatCentre.obj
 0001:0004ecc0       ?_Mynode@const_iterator@?$_Tree@V?$basic_string@DU?$char_traits@D@std@@V?$allocator@D@2@@std@@U?$pair@$$CBV?$basic_string@DU?$char_traits@D@std@@V?$allocator@D@2@@std@@E@2@U_Kfn@?$map@V?$basic_string@DU?$char_traits@D@std@@V?$allocator@D@2@@std@@EU?$less@V?$basic_string@DU?$char_traits@D@std@@V?$allocator@D@2@@std@@@2@V?$allocator@E@2@@2@U?$less@V?$basic_string@DU?$char_traits@D@std@@V?$allocator@D@2@@std@@@2@V?$allocator@E@2@@std@@QBEPAU_Node@23@XZ 0044fcc0 f i UiChatCentre.obj
 0001:0004ecd0       ??0iterator@?$_Tree@V?$basic_string@DU?$char_traits@D@std@@V?$allocator@D@2@@std@@U?$pair@$$CBV?$basic_string@DU?$char_traits@D@std@@V?$allocator@D@2@@std@@E@2@U_Kfn@?$map@V?$basic_string@DU?$char_traits@D@std@@V?$allocator@D@2@@std@@EU?$less@V?$basic_string@DU?$char_traits@D@std@@V?$allocator@D@2@@std@@@2@V?$allocator@E@2@@2@U?$less@V?$basic_string@DU?$char_traits@D@std@@V?$allocator@D@2@@std@@@2@V?$allocator@E@2@@std@@QAE@PAU_Node@12@@Z 0044fcd0 f i UiChatCentre.obj
 0001:0004ecf0       ??Eiterator@?$_Tree@V?$basic_string@DU?$char_traits@D@std@@V?$allocator@D@2@@std@@U?$pair@$$CBV?$basic_string@DU?$char_traits@D@std@@V?$allocator@D@2@@std@@E@2@U_Kfn@?$map@V?$basic_string@DU?$char_traits@D@std@@V?$allocator@D@2@@std@@EU?$less@V?$basic_string@DU?$char_traits@D@std@@V?$allocator@D@2@@std@@@2@V?$allocator@E@2@@2@U?$less@V?$basic_string@DU?$char_traits@D@std@@V?$allocator@D@2@@std@@@2@V?$allocator@E@2@@std@@QAE?AV012@H@Z 0044fcf0 f i UiChatCentre.obj
 0001:0004ed20       ?erase@?$list@V?$basic_string@DU?$char_traits@D@std@@V?$allocator@D@2@@std@@V?$allocator@V?$basic_string@DU?$char_traits@D@std@@V?$allocator@D@2@@std@@@2@@std@@QAE?AViterator@12@V312@@Z 0044fd20 f i UiChatCentre.obj
 0001:0004ede0       ?_Prev@_Acc@?$list@V?$basic_string@DU?$char_traits@D@std@@V?$allocator@D@2@@std@@V?$allocator@V?$basic_string@DU?$char_traits@D@std@@V?$allocator@D@2@@std@@@2@@std@@SAAAPAU_Node@23@PAU423@@Z 0044fde0 f i UiChatCentre.obj
 0001:0004edf0       ?_Mynode@const_iterator@?$list@V?$basic_string@DU?$char_traits@D@std@@V?$allocator@D@2@@std@@V?$allocator@V?$basic_string@DU?$char_traits@D@std@@V?$allocator@D@2@@std@@@2@@std@@QBEPAU_Node@23@XZ 0044fdf0 f i UiChatCentre.obj
 0001:0004ee00       ??0iterator@?$list@V?$basic_string@DU?$char_traits@D@std@@V?$allocator@D@2@@std@@V?$allocator@V?$basic_string@DU?$char_traits@D@std@@V?$allocator@D@2@@std@@@2@@std@@QAE@PAU_Node@12@@Z 0044fe00 f i UiChatCentre.obj
 0001:0004ee20       ??Eiterator@?$list@V?$basic_string@DU?$char_traits@D@std@@V?$allocator@D@2@@std@@V?$allocator@V?$basic_string@DU?$char_traits@D@std@@V?$allocator@D@2@@std@@@2@@std@@QAE?AV012@H@Z 0044fe20 f i UiChatCentre.obj
 0001:0004ee50       ??9iterator@?$list@V?$basic_string@DU?$char_traits@D@std@@V?$allocator@D@2@@std@@V?$allocator@V?$basic_string@DU?$char_traits@D@std@@V?$allocator@D@2@@std@@@2@@std@@QBE_NABV012@@Z 0044fe50 f i UiChatCentre.obj
 0001:0004ee80       ??0?$pair@Viterator@?$_Tree@V?$basic_string@DU?$char_traits@D@std@@V?$allocator@D@2@@std@@U?$pair@$$CBV?$basic_string@DU?$char_traits@D@std@@V?$allocator@D@2@@std@@V12@@2@U_Kfn@?$map@V?$basic_string@DU?$char_traits@D@std@@V?$allocator@D@2@@std@@V12@U?$less@V?$basic_string@DU?$char_traits@D@std@@V?$allocator@D@2@@std@@@2@V?$allocator@V?$basic_string@DU?$char_traits@D@std@@V?$allocator@D@2@@std@@@2@@2@U?$less@V?$basic_string@DU?$char_traits@D@std@@V?$allocator@D@2@@std@@@2@V?$allocator@V?$basic_string@DU?$char_traits@D@std@@V?$allocator@D@2@@std@@@2@@std@@_N@std@@QAE@ABViterator@?$_Tree@V?$basic_string@DU?$char_traits@D@std@@V?$allocator@D@2@@std@@U?$pair@$$CBV?$basic_string@DU?$char_traits@D@std@@V?$allocator@D@2@@std@@V12@@2@U_Kfn@?$map@V?$basic_string@DU?$char_traits@D@std@@V?$allocator@D@2@@std@@V12@U?$less@V?$basic_string@DU?$char_traits@D@std@@V?$allocator@D@2@@std@@@2@V?$allocator@V?$basic_string@DU?$char_traits@D@std@@V?$allocator@D@2@@std@@@2@@2@U?$less@V?$basic_string@DU?$char_traits@D@std@@V?$allocator@D@2@@std@@@2@V?$allocator@V?$basic_string@DU?$char_traits@D@std@@V?$allocator@D@2@@std@@@2@@1@AB_N@Z 0044fe80 f i UiChatCentre.obj
 0001:0004eeb0       ??0?$pair@Viterator@?$_Tree@V?$basic_string@DU?$char_traits@D@std@@V?$allocator@D@2@@std@@U?$pair@$$CBV?$basic_string@DU?$char_traits@D@std@@V?$allocator@D@2@@std@@E@2@U_Kfn@?$map@V?$basic_string@DU?$char_traits@D@std@@V?$allocator@D@2@@std@@EU?$less@V?$basic_string@DU?$char_traits@D@std@@V?$allocator@D@2@@std@@@2@V?$allocator@E@2@@2@U?$less@V?$basic_string@DU?$char_traits@D@std@@V?$allocator@D@2@@std@@@2@V?$allocator@E@2@@std@@_N@std@@QAE@ABViterator@?$_Tree@V?$basic_string@DU?$char_traits@D@std@@V?$allocator@D@2@@std@@U?$pair@$$CBV?$basic_string@DU?$char_traits@D@std@@V?$allocator@D@2@@std@@E@2@U_Kfn@?$map@V?$basic_string@DU?$char_traits@D@std@@V?$allocator@D@2@@std@@EU?$less@V?$basic_string@DU?$char_traits@D@std@@V?$allocator@D@2@@std@@@2@V?$allocator@E@2@@2@U?$less@V?$basic_string@DU?$char_traits@D@std@@V?$allocator@D@2@@std@@@2@V?$allocator@E@2@@1@AB_N@Z 0044feb0 f i UiChatCentre.obj
 0001:0004eee0       ??R_Kfn@?$map@V?$basic_string@DU?$char_traits@D@std@@V?$allocator@D@2@@std@@V12@U?$less@V?$basic_string@DU?$char_traits@D@std@@V?$allocator@D@2@@std@@@2@V?$allocator@V?$basic_string@DU?$char_traits@D@std@@V?$allocator@D@2@@std@@@2@@std@@QBEABV?$basic_string@DU?$char_traits@D@std@@V?$allocator@D@2@@2@ABU?$pair@$$CBV?$basic_string@DU?$char_traits@D@std@@V?$allocator@D@2@@std@@V12@@2@@Z 0044fee0 f i UiChatCentre.obj
 0001:0004eef0       ?destroy@?$allocator@V?$basic_string@DU?$char_traits@D@std@@V?$allocator@D@2@@std@@@std@@QAEXPAV?$basic_string@DU?$char_traits@D@std@@V?$allocator@D@2@@2@@Z 0044fef0 f i UiChatCentre.obj
 0001:0004ef10       ?_Copy@?$_Tree@V?$basic_string@DU?$char_traits@D@std@@V?$allocator@D@2@@std@@U?$pair@$$CBV?$basic_string@DU?$char_traits@D@std@@V?$allocator@D@2@@std@@V12@@2@U_Kfn@?$map@V?$basic_string@DU?$char_traits@D@std@@V?$allocator@D@2@@std@@V12@U?$less@V?$basic_string@DU?$char_traits@D@std@@V?$allocator@D@2@@std@@@2@V?$allocator@V?$basic_string@DU?$char_traits@D@std@@V?$allocator@D@2@@std@@@2@@2@U?$less@V?$basic_string@DU?$char_traits@D@std@@V?$allocator@D@2@@std@@@2@V?$allocator@V?$basic_string@DU?$char_traits@D@std@@V?$allocator@D@2@@std@@@2@@std@@IAEPAU_Node@12@PAU312@0@Z 0044ff10 f i UiChatCentre.obj
 0001:0004f040       ?_Insert@?$_Tree@V?$basic_string@DU?$char_traits@D@std@@V?$allocator@D@2@@std@@U?$pair@$$CBV?$basic_string@DU?$char_traits@D@std@@V?$allocator@D@2@@std@@V12@@2@U_Kfn@?$map@V?$basic_string@DU?$char_traits@D@std@@V?$allocator@D@2@@std@@V12@U?$less@V?$basic_string@DU?$char_traits@D@std@@V?$allocator@D@2@@std@@@2@V?$allocator@V?$basic_string@DU?$char_traits@D@std@@V?$allocator@D@2@@std@@@2@@2@U?$less@V?$basic_string@DU?$char_traits@D@std@@V?$allocator@D@2@@std@@@2@V?$allocator@V?$basic_string@DU?$char_traits@D@std@@V?$allocator@D@2@@std@@@2@@std@@IAE?AViterator@12@PAU_Node@12@0ABU?$pair@$$CBV?$basic_string@DU?$char_traits@D@std@@V?$allocator@D@2@@std@@V12@@2@@Z 00450040 f i UiChatCentre.obj
 0001:0004f510       ?_Lbound@?$_Tree@V?$basic_string@DU?$char_traits@D@std@@V?$allocator@D@2@@std@@U?$pair@$$CBV?$basic_string@DU?$char_traits@D@std@@V?$allocator@D@2@@std@@V12@@2@U_Kfn@?$map@V?$basic_string@DU?$char_traits@D@std@@V?$allocator@D@2@@std@@V12@U?$less@V?$basic_string@DU?$char_traits@D@std@@V?$allocator@D@2@@std@@@2@V?$allocator@V?$basic_string@DU?$char_traits@D@std@@V?$allocator@D@2@@std@@@2@@2@U?$less@V?$basic_string@DU?$char_traits@D@std@@V?$allocator@D@2@@std@@@2@V?$allocator@V?$basic_string@DU?$char_traits@D@std@@V?$allocator@D@2@@std@@@2@@std@@IBEPAU_Node@12@ABV?$basic_string@DU?$char_traits@D@std@@V?$allocator@D@2@@2@@Z 00450510 f i UiChatCentre.obj
 0001:0004f5e0       ?_Root@?$_Tree@V?$basic_string@DU?$char_traits@D@std@@V?$allocator@D@2@@std@@U?$pair@$$CBV?$basic_string@DU?$char_traits@D@std@@V?$allocator@D@2@@std@@V12@@2@U_Kfn@?$map@V?$basic_string@DU?$char_traits@D@std@@V?$allocator@D@2@@std@@V12@U?$less@V?$basic_string@DU?$char_traits@D@std@@V?$allocator@D@2@@std@@@2@V?$allocator@V?$basic_string@DU?$char_traits@D@std@@V?$allocator@D@2@@std@@@2@@2@U?$less@V?$basic_string@DU?$char_traits@D@std@@V?$allocator@D@2@@std@@@2@V?$allocator@V?$basic_string@DU?$char_traits@D@std@@V?$allocator@D@2@@std@@@2@@std@@IBEAAPAU_Node@12@XZ 004505e0 f i UiChatCentre.obj
 0001:0004f600       ?_Buynode@?$_Tree@V?$basic_string@DU?$char_traits@D@std@@V?$allocator@D@2@@std@@U?$pair@$$CBV?$basic_string@DU?$char_traits@D@std@@V?$allocator@D@2@@std@@V12@@2@U_Kfn@?$map@V?$basic_string@DU?$char_traits@D@std@@V?$allocator@D@2@@std@@V12@U?$less@V?$basic_string@DU?$char_traits@D@std@@V?$allocator@D@2@@std@@@2@V?$allocator@V?$basic_string@DU?$char_traits@D@std@@V?$allocator@D@2@@std@@@2@@2@U?$less@V?$basic_string@DU?$char_traits@D@std@@V?$allocator@D@2@@std@@@2@V?$allocator@V?$basic_string@DU?$char_traits@D@std@@V?$allocator@D@2@@std@@@2@@std@@IAEPAU_Node@12@PAU312@W4_Redbl@12@@Z 00450600 f i UiChatCentre.obj
 0001:0004f650       ??0const_iterator@?$_Tree@V?$basic_string@DU?$char_traits@D@std@@V?$allocator@D@2@@std@@U?$pair@$$CBV?$basic_string@DU?$char_traits@D@std@@V?$allocator@D@2@@std@@V12@@2@U_Kfn@?$map@V?$basic_string@DU?$char_traits@D@std@@V?$allocator@D@2@@std@@V12@U?$less@V?$basic_string@DU?$char_traits@D@std@@V?$allocator@D@2@@std@@@2@V?$allocator@V?$basic_string@DU?$char_traits@D@std@@V?$allocator@D@2@@std@@@2@@2@U?$less@V?$basic_string@DU?$char_traits@D@std@@V?$allocator@D@2@@std@@@2@V?$allocator@V?$basic_string@DU?$char_traits@D@std@@V?$allocator@D@2@@std@@@2@@std@@QAE@PAU_Node@12@@Z 00450650 f i UiChatCentre.obj
 0001:0004f670       ??Fiterator@?$_Tree@V?$basic_string@DU?$char_traits@D@std@@V?$allocator@D@2@@std@@U?$pair@$$CBV?$basic_string@DU?$char_traits@D@std@@V?$allocator@D@2@@std@@V12@@2@U_Kfn@?$map@V?$basic_string@DU?$char_traits@D@std@@V?$allocator@D@2@@std@@V12@U?$less@V?$basic_string@DU?$char_traits@D@std@@V?$allocator@D@2@@std@@@2@V?$allocator@V?$basic_string@DU?$char_traits@D@std@@V?$allocator@D@2@@std@@@2@@2@U?$less@V?$basic_string@DU?$char_traits@D@std@@V?$allocator@D@2@@std@@@2@V?$allocator@V?$basic_string@DU?$char_traits@D@std@@V?$allocator@D@2@@std@@@2@@std@@QAEAAV012@XZ 00450670 f i UiChatCentre.obj
 0001:0004f690       ??R_Kfn@?$map@V?$basic_string@DU?$char_traits@D@std@@V?$allocator@D@2@@std@@EU?$less@V?$basic_string@DU?$char_traits@D@std@@V?$allocator@D@2@@std@@@2@V?$allocator@E@2@@std@@QBEABV?$basic_string@DU?$char_traits@D@std@@V?$allocator@D@2@@2@ABU?$pair@$$CBV?$basic_string@DU?$char_traits@D@std@@V?$allocator@D@2@@std@@E@2@@Z 00450690 f i UiChatCentre.obj
 0001:0004f6a0       ?_Color@?$_Tree@V?$basic_string@DU?$char_traits@D@std@@V?$allocator@D@2@@std@@U?$pair@$$CBV?$basic_string@DU?$char_traits@D@std@@V?$allocator@D@2@@std@@E@2@U_Kfn@?$map@V?$basic_string@DU?$char_traits@D@std@@V?$allocator@D@2@@std@@EU?$less@V?$basic_string@DU?$char_traits@D@std@@V?$allocator@D@2@@std@@@2@V?$allocator@E@2@@2@U?$less@V?$basic_string@DU?$char_traits@D@std@@V?$allocator@D@2@@std@@@2@V?$allocator@E@2@@std@@KAAAW4_Redbl@12@PAU_Node@12@@Z 004506a0 f i UiChatCentre.obj
 0001:0004f6b0       ?_Left@?$_Tree@V?$basic_string@DU?$char_traits@D@std@@V?$allocator@D@2@@std@@U?$pair@$$CBV?$basic_string@DU?$char_traits@D@std@@V?$allocator@D@2@@std@@E@2@U_Kfn@?$map@V?$basic_string@DU?$char_traits@D@std@@V?$allocator@D@2@@std@@EU?$less@V?$basic_string@DU?$char_traits@D@std@@V?$allocator@D@2@@std@@@2@V?$allocator@E@2@@2@U?$less@V?$basic_string@DU?$char_traits@D@std@@V?$allocator@D@2@@std@@@2@V?$allocator@E@2@@std@@KAAAPAU_Node@12@PAU312@@Z 004506b0 f i UiChatCentre.obj
 0001:0004f6c0       ?_Parent@?$_Tree@V?$basic_string@DU?$char_traits@D@std@@V?$allocator@D@2@@std@@U?$pair@$$CBV?$basic_string@DU?$char_traits@D@std@@V?$allocator@D@2@@std@@E@2@U_Kfn@?$map@V?$basic_string@DU?$char_traits@D@std@@V?$allocator@D@2@@std@@EU?$less@V?$basic_string@DU?$char_traits@D@std@@V?$allocator@D@2@@std@@@2@V?$allocator@E@2@@2@U?$less@V?$basic_string@DU?$char_traits@D@std@@V?$allocator@D@2@@std@@@2@V?$allocator@E@2@@std@@KAAAPAU_Node@12@PAU312@@Z 004506c0 f i UiChatCentre.obj
 0001:0004f6d0       ?_Right@?$_Tree@V?$basic_string@DU?$char_traits@D@std@@V?$allocator@D@2@@std@@U?$pair@$$CBV?$basic_string@DU?$char_traits@D@std@@V?$allocator@D@2@@std@@E@2@U_Kfn@?$map@V?$basic_string@DU?$char_traits@D@std@@V?$allocator@D@2@@std@@EU?$less@V?$basic_string@DU?$char_traits@D@std@@V?$allocator@D@2@@std@@@2@V?$allocator@E@2@@2@U?$less@V?$basic_string@DU?$char_traits@D@std@@V?$allocator@D@2@@std@@@2@V?$allocator@E@2@@std@@KAAAPAU_Node@12@PAU312@@Z 004506d0 f i UiChatCentre.obj
 0001:0004f6e0       ?_Copy@?$_Tree@V?$basic_string@DU?$char_traits@D@std@@V?$allocator@D@2@@std@@U?$pair@$$CBV?$basic_string@DU?$char_traits@D@std@@V?$allocator@D@2@@std@@E@2@U_Kfn@?$map@V?$basic_string@DU?$char_traits@D@std@@V?$allocator@D@2@@std@@EU?$less@V?$basic_string@DU?$char_traits@D@std@@V?$allocator@D@2@@std@@@2@V?$allocator@E@2@@2@U?$less@V?$basic_string@DU?$char_traits@D@std@@V?$allocator@D@2@@std@@@2@V?$allocator@E@2@@std@@IAEPAU_Node@12@PAU312@0@Z 004506e0 f i UiChatCentre.obj
 0001:0004f810       ?_Insert@?$_Tree@V?$basic_string@DU?$char_traits@D@std@@V?$allocator@D@2@@std@@U?$pair@$$CBV?$basic_string@DU?$char_traits@D@std@@V?$allocator@D@2@@std@@E@2@U_Kfn@?$map@V?$basic_string@DU?$char_traits@D@std@@V?$allocator@D@2@@std@@EU?$less@V?$basic_string@DU?$char_traits@D@std@@V?$allocator@D@2@@std@@@2@V?$allocator@E@2@@2@U?$less@V?$basic_string@DU?$char_traits@D@std@@V?$allocator@D@2@@std@@@2@V?$allocator@E@2@@std@@IAE?AViterator@12@PAU_Node@12@0ABU?$pair@$$CBV?$basic_string@DU?$char_traits@D@std@@V?$allocator@D@2@@std@@E@2@@Z 00450810 f i UiChatCentre.obj
 0001:0004fce0       ?_Lbound@?$_Tree@V?$basic_string@DU?$char_traits@D@std@@V?$allocator@D@2@@std@@U?$pair@$$CBV?$basic_string@DU?$char_traits@D@std@@V?$allocator@D@2@@std@@E@2@U_Kfn@?$map@V?$basic_string@DU?$char_traits@D@std@@V?$allocator@D@2@@std@@EU?$less@V?$basic_string@DU?$char_traits@D@std@@V?$allocator@D@2@@std@@@2@V?$allocator@E@2@@2@U?$less@V?$basic_string@DU?$char_traits@D@std@@V?$allocator@D@2@@std@@@2@V?$allocator@E@2@@std@@IBEPAU_Node@12@ABV?$basic_string@DU?$char_traits@D@std@@V?$allocator@D@2@@2@@Z 00450ce0 f i UiChatCentre.obj
 0001:0004fdb0       ?_Lrotate@?$_Tree@V?$basic_string@DU?$char_traits@D@std@@V?$allocator@D@2@@std@@U?$pair@$$CBV?$basic_string@DU?$char_traits@D@std@@V?$allocator@D@2@@std@@E@2@U_Kfn@?$map@V?$basic_string@DU?$char_traits@D@std@@V?$allocator@D@2@@std@@EU?$less@V?$basic_string@DU?$char_traits@D@std@@V?$allocator@D@2@@std@@@2@V?$allocator@E@2@@2@U?$less@V?$basic_string@DU?$char_traits@D@std@@V?$allocator@D@2@@std@@@2@V?$allocator@E@2@@std@@IAEXPAU_Node@12@@Z 00450db0 f i UiChatCentre.obj
 0001:0004ff20       ?_Max@?$_Tree@V?$basic_string@DU?$char_traits@D@std@@V?$allocator@D@2@@std@@U?$pair@$$CBV?$basic_string@DU?$char_traits@D@std@@V?$allocator@D@2@@std@@E@2@U_Kfn@?$map@V?$basic_string@DU?$char_traits@D@std@@V?$allocator@D@2@@std@@EU?$less@V?$basic_string@DU?$char_traits@D@std@@V?$allocator@D@2@@std@@@2@V?$allocator@E@2@@2@U?$less@V?$basic_string@DU?$char_traits@D@std@@V?$allocator@D@2@@std@@@2@V?$allocator@E@2@@std@@KAPAU_Node@12@PAU312@@Z 00450f20 f i UiChatCentre.obj
 0001:0004ffa0       ?_Min@?$_Tree@V?$basic_string@DU?$char_traits@D@std@@V?$allocator@D@2@@std@@U?$pair@$$CBV?$basic_string@DU?$char_traits@D@std@@V?$allocator@D@2@@std@@E@2@U_Kfn@?$map@V?$basic_string@DU?$char_traits@D@std@@V?$allocator@D@2@@std@@EU?$less@V?$basic_string@DU?$char_traits@D@std@@V?$allocator@D@2@@std@@@2@V?$allocator@E@2@@2@U?$less@V?$basic_string@DU?$char_traits@D@std@@V?$allocator@D@2@@std@@@2@V?$allocator@E@2@@std@@KAPAU_Node@12@PAU312@@Z 00450fa0 f i UiChatCentre.obj
 0001:00050020       ?_Root@?$_Tree@V?$basic_string@DU?$char_traits@D@std@@V?$allocator@D@2@@std@@U?$pair@$$CBV?$basic_string@DU?$char_traits@D@std@@V?$allocator@D@2@@std@@E@2@U_Kfn@?$map@V?$basic_string@DU?$char_traits@D@std@@V?$allocator@D@2@@std@@EU?$less@V?$basic_string@DU?$char_traits@D@std@@V?$allocator@D@2@@std@@@2@V?$allocator@E@2@@2@U?$less@V?$basic_string@DU?$char_traits@D@std@@V?$allocator@D@2@@std@@@2@V?$allocator@E@2@@std@@IBEAAPAU_Node@12@XZ 00451020 f i UiChatCentre.obj
 0001:00050040       ?_Rrotate@?$_Tree@V?$basic_string@DU?$char_traits@D@std@@V?$allocator@D@2@@std@@U?$pair@$$CBV?$basic_string@DU?$char_traits@D@std@@V?$allocator@D@2@@std@@E@2@U_Kfn@?$map@V?$basic_string@DU?$char_traits@D@std@@V?$allocator@D@2@@std@@EU?$less@V?$basic_string@DU?$char_traits@D@std@@V?$allocator@D@2@@std@@@2@V?$allocator@E@2@@2@U?$less@V?$basic_string@DU?$char_traits@D@std@@V?$allocator@D@2@@std@@@2@V?$allocator@E@2@@std@@IAEXPAU_Node@12@@Z 00451040 f i UiChatCentre.obj
 0001:000501b0       ?_Buynode@?$_Tree@V?$basic_string@DU?$char_traits@D@std@@V?$allocator@D@2@@std@@U?$pair@$$CBV?$basic_string@DU?$char_traits@D@std@@V?$allocator@D@2@@std@@E@2@U_Kfn@?$map@V?$basic_string@DU?$char_traits@D@std@@V?$allocator@D@2@@std@@EU?$less@V?$basic_string@DU?$char_traits@D@std@@V?$allocator@D@2@@std@@@2@V?$allocator@E@2@@2@U?$less@V?$basic_string@DU?$char_traits@D@std@@V?$allocator@D@2@@std@@@2@V?$allocator@E@2@@std@@IAEPAU_Node@12@PAU312@W4_Redbl@12@@Z 004511b0 f i UiChatCentre.obj
 0001:00050200       ?_Destval@?$_Tree@V?$basic_string@DU?$char_traits@D@std@@V?$allocator@D@2@@std@@U?$pair@$$CBV?$basic_string@DU?$char_traits@D@std@@V?$allocator@D@2@@std@@E@2@U_Kfn@?$map@V?$basic_string@DU?$char_traits@D@std@@V?$allocator@D@2@@std@@EU?$less@V?$basic_string@DU?$char_traits@D@std@@V?$allocator@D@2@@std@@@2@V?$allocator@E@2@@2@U?$less@V?$basic_string@DU?$char_traits@D@std@@V?$allocator@D@2@@std@@@2@V?$allocator@E@2@@std@@IAEXPAU?$pair@$$CBV?$basic_string@DU?$char_traits@D@std@@V?$allocator@D@2@@std@@E@2@@Z 00451200 f i UiChatCentre.obj
 0001:00050220       ??0const_iterator@?$_Tree@V?$basic_string@DU?$char_traits@D@std@@V?$allocator@D@2@@std@@U?$pair@$$CBV?$basic_string@DU?$char_traits@D@std@@V?$allocator@D@2@@std@@E@2@U_Kfn@?$map@V?$basic_string@DU?$char_traits@D@std@@V?$allocator@D@2@@std@@EU?$less@V?$basic_string@DU?$char_traits@D@std@@V?$allocator@D@2@@std@@@2@V?$allocator@E@2@@2@U?$less@V?$basic_string@DU?$char_traits@D@std@@V?$allocator@D@2@@std@@@2@V?$allocator@E@2@@std@@QAE@PAU_Node@12@@Z 00451220 f i UiChatCentre.obj
 0001:00050240       ??Eiterator@?$_Tree@V?$basic_string@DU?$char_traits@D@std@@V?$allocator@D@2@@std@@U?$pair@$$CBV?$basic_string@DU?$char_traits@D@std@@V?$allocator@D@2@@std@@E@2@U_Kfn@?$map@V?$basic_string@DU?$char_traits@D@std@@V?$allocator@D@2@@std@@EU?$less@V?$basic_string@DU?$char_traits@D@std@@V?$allocator@D@2@@std@@@2@V?$allocator@E@2@@2@U?$less@V?$basic_string@DU?$char_traits@D@std@@V?$allocator@D@2@@std@@@2@V?$allocator@E@2@@std@@QAEAAV012@XZ 00451240 f i UiChatCentre.obj
 0001:00050260       ??Fiterator@?$_Tree@V?$basic_string@DU?$char_traits@D@std@@V?$allocator@D@2@@std@@U?$pair@$$CBV?$basic_string@DU?$char_traits@D@std@@V?$allocator@D@2@@std@@E@2@U_Kfn@?$map@V?$basic_string@DU?$char_traits@D@std@@V?$allocator@D@2@@std@@EU?$less@V?$basic_string@DU?$char_traits@D@std@@V?$allocator@D@2@@std@@@2@V?$allocator@E@2@@2@U?$less@V?$basic_string@DU?$char_traits@D@std@@V?$allocator@D@2@@std@@@2@V?$allocator@E@2@@std@@QAEAAV012@XZ 00451260 f i UiChatCentre.obj
 0001:00050280       ??Eiterator@?$list@V?$basic_string@DU?$char_traits@D@std@@V?$allocator@D@2@@std@@V?$allocator@V?$basic_string@DU?$char_traits@D@std@@V?$allocator@D@2@@std@@@2@@std@@QAEAAV012@XZ 00451280 f i UiChatCentre.obj
 0001:000502b0       ??8iterator@?$list@V?$basic_string@DU?$char_traits@D@std@@V?$allocator@D@2@@std@@V?$allocator@V?$basic_string@DU?$char_traits@D@std@@V?$allocator@D@2@@std@@@2@@std@@QBE_NABV012@@Z 004512b0 f i UiChatCentre.obj
 0001:000502d0       ?_Consval@?$_Tree@V?$basic_string@DU?$char_traits@D@std@@V?$allocator@D@2@@std@@U?$pair@$$CBV?$basic_string@DU?$char_traits@D@std@@V?$allocator@D@2@@std@@V12@@2@U_Kfn@?$map@V?$basic_string@DU?$char_traits@D@std@@V?$allocator@D@2@@std@@V12@U?$less@V?$basic_string@DU?$char_traits@D@std@@V?$allocator@D@2@@std@@@2@V?$allocator@V?$basic_string@DU?$char_traits@D@std@@V?$allocator@D@2@@std@@@2@@2@U?$less@V?$basic_string@DU?$char_traits@D@std@@V?$allocator@D@2@@std@@@2@V?$allocator@V?$basic_string@DU?$char_traits@D@std@@V?$allocator@D@2@@std@@@2@@std@@IAEXPAU?$pair@$$CBV?$basic_string@DU?$char_traits@D@std@@V?$allocator@D@2@@std@@V12@@2@ABU32@@Z 004512d0 f i UiChatCentre.obj
 0001:000502f0       ?_Dec@const_iterator@?$_Tree@V?$basic_string@DU?$char_traits@D@std@@V?$allocator@D@2@@std@@U?$pair@$$CBV?$basic_string@DU?$char_traits@D@std@@V?$allocator@D@2@@std@@V12@@2@U_Kfn@?$map@V?$basic_string@DU?$char_traits@D@std@@V?$allocator@D@2@@std@@V12@U?$less@V?$basic_string@DU?$char_traits@D@std@@V?$allocator@D@2@@std@@@2@V?$allocator@V?$basic_string@DU?$char_traits@D@std@@V?$allocator@D@2@@std@@@2@@2@U?$less@V?$basic_string@DU?$char_traits@D@std@@V?$allocator@D@2@@std@@@2@V?$allocator@V?$basic_string@DU?$char_traits@D@std@@V?$allocator@D@2@@std@@@2@@std@@QAEXXZ 004512f0 f i UiChatCentre.obj
 0001:00050400       ?_Charalloc@?$allocator@E@std@@QAEPADI@Z 00451400 f i UiChatCentre.obj
 0001:00050420       ?_Consval@?$_Tree@V?$basic_string@DU?$char_traits@D@std@@V?$allocator@D@2@@std@@U?$pair@$$CBV?$basic_string@DU?$char_traits@D@std@@V?$allocator@D@2@@std@@E@2@U_Kfn@?$map@V?$basic_string@DU?$char_traits@D@std@@V?$allocator@D@2@@std@@EU?$less@V?$basic_string@DU?$char_traits@D@std@@V?$allocator@D@2@@std@@@2@V?$allocator@E@2@@2@U?$less@V?$basic_string@DU?$char_traits@D@std@@V?$allocator@D@2@@std@@@2@V?$allocator@E@2@@std@@IAEXPAU?$pair@$$CBV?$basic_string@DU?$char_traits@D@std@@V?$allocator@D@2@@std@@E@2@ABU32@@Z 00451420 f i UiChatCentre.obj
 0001:00050440       ?_Dec@const_iterator@?$_Tree@V?$basic_string@DU?$char_traits@D@std@@V?$allocator@D@2@@std@@U?$pair@$$CBV?$basic_string@DU?$char_traits@D@std@@V?$allocator@D@2@@std@@E@2@U_Kfn@?$map@V?$basic_string@DU?$char_traits@D@std@@V?$allocator@D@2@@std@@EU?$less@V?$basic_string@DU?$char_traits@D@std@@V?$allocator@D@2@@std@@@2@V?$allocator@E@2@@2@U?$less@V?$basic_string@DU?$char_traits@D@std@@V?$allocator@D@2@@std@@@2@V?$allocator@E@2@@std@@QAEXXZ 00451440 f i UiChatCentre.obj
 0001:00050550       ?_Inc@const_iterator@?$_Tree@V?$basic_string@DU?$char_traits@D@std@@V?$allocator@D@2@@std@@U?$pair@$$CBV?$basic_string@DU?$char_traits@D@std@@V?$allocator@D@2@@std@@E@2@U_Kfn@?$map@V?$basic_string@DU?$char_traits@D@std@@V?$allocator@D@2@@std@@EU?$less@V?$basic_string@DU?$char_traits@D@std@@V?$allocator@D@2@@std@@@2@V?$allocator@E@2@@2@U?$less@V?$basic_string@DU?$char_traits@D@std@@V?$allocator@D@2@@std@@@2@V?$allocator@E@2@@std@@QAEXXZ 00451550 f i UiChatCentre.obj
 0001:00050630       ?swap@std@@YAXAAW4_Redbl@?$_Tree@V?$basic_string@DU?$char_traits@D@std@@V?$allocator@D@2@@std@@U?$pair@$$CBV?$basic_string@DU?$char_traits@D@std@@V?$allocator@D@2@@std@@V12@@2@U_Kfn@?$map@V?$basic_string@DU?$char_traits@D@std@@V?$allocator@D@2@@std@@V12@U?$less@V?$basic_string@DU?$char_traits@D@std@@V?$allocator@D@2@@std@@@2@V?$allocator@V?$basic_string@DU?$char_traits@D@std@@V?$allocator@D@2@@std@@@2@@2@U?$less@V?$basic_string@DU?$char_traits@D@std@@V?$allocator@D@2@@std@@@2@V?$allocator@V?$basic_string@DU?$char_traits@D@std@@V?$allocator@D@2@@std@@@2@@1@0@Z 00451630 f i UiChatCentre.obj
 0001:00050660       ?_Allocate@std@@YAPADHPAD@Z 00451660 f i UiChatCentre.obj
 0001:00050680       ?_Construct@std@@YAXPAV?$basic_string@DU?$char_traits@D@std@@V?$allocator@D@2@@1@ABV21@@Z 00451680 f i UiChatCentre.obj
 0001:000506f0       ??3@YAXPAX0@Z              004516f0 f i UiChatCentre.obj
 0001:00050700       ?_Destroy@std@@YAXPAU?$pair@$$CBV?$basic_string@DU?$char_traits@D@std@@V?$allocator@D@2@@std@@V12@@1@@Z 00451700 f i UiChatCentre.obj
 0001:00050710       ?swap@std@@YAXAAW4_Redbl@?$_Tree@V?$basic_string@DU?$char_traits@D@std@@V?$allocator@D@2@@std@@U?$pair@$$CBV?$basic_string@DU?$char_traits@D@std@@V?$allocator@D@2@@std@@E@2@U_Kfn@?$map@V?$basic_string@DU?$char_traits@D@std@@V?$allocator@D@2@@std@@EU?$less@V?$basic_string@DU?$char_traits@D@std@@V?$allocator@D@2@@std@@@2@V?$allocator@E@2@@2@U?$less@V?$basic_string@DU?$char_traits@D@std@@V?$allocator@D@2@@std@@@2@V?$allocator@E@2@@1@0@Z 00451710 f i UiChatCentre.obj
 0001:00050740       ?_Destroy@std@@YAXPAV?$basic_string@DU?$char_traits@D@std@@V?$allocator@D@2@@1@@Z 00451740 f i UiChatCentre.obj
 0001:00050750       ?_Destroy@std@@YAXPAU?$pair@$$CBV?$basic_string@DU?$char_traits@D@std@@V?$allocator@D@2@@std@@E@1@@Z 00451750 f i UiChatCentre.obj
 0001:00050760       ?_Construct@std@@YAXPAU?$pair@$$CBV?$basic_string@DU?$char_traits@D@std@@V?$allocator@D@2@@std@@V12@@1@ABU21@@Z 00451760 f i UiChatCentre.obj
 0001:000507d0       ?_Construct@std@@YAXPAU?$pair@$$CBV?$basic_string@DU?$char_traits@D@std@@V?$allocator@D@2@@std@@E@1@ABU21@@Z 004517d0 f i UiChatCentre.obj
 0001:00050840       ??_G?$pair@$$CBV?$basic_string@DU?$char_traits@D@std@@V?$allocator@D@2@@std@@V12@@std@@QAEPAXI@Z 00451840 f i UiChatCentre.obj
 0001:00050870       ??_G?$basic_string@DU?$char_traits@D@std@@V?$allocator@D@2@@std@@QAEPAXI@Z 00451870 f i UiChatCentre.obj
 0001:000508a0       ??_G?$pair@$$CBV?$basic_string@DU?$char_traits@D@std@@V?$allocator@D@2@@std@@E@std@@QAEPAXI@Z 004518a0 f i UiChatCentre.obj
 0001:000508d0       ??0?$pair@$$CBV?$basic_string@DU?$char_traits@D@std@@V?$allocator@D@2@@std@@V12@@std@@QAE@ABU01@@Z 004518d0 f i UiChatCentre.obj
 0001:00050930       ??0?$pair@$$CBV?$basic_string@DU?$char_traits@D@std@@V?$allocator@D@2@@std@@E@std@@QAE@ABU01@@Z 00451930 f i UiChatCentre.obj
 0001:0005099f       ??0KUiChatPhrase@@QAE@XZ   0045199f f   UiChatPhrase.obj
 0001:000509e2       ??1KUiChatPhrase@@QAE@XZ   004519e2 f   UiChatPhrase.obj
 0001:00050a3c       ?ClearAllPhrase@KUiChatPhrase@@QAEXXZ 00451a3c f   UiChatPhrase.obj
 0001:00050a5d       ?GetPhrase@KUiChatPhrase@@QAEHHPAD@Z 00451a5d f   UiChatPhrase.obj
 0001:00050ac9       ?SetPhrase@KUiChatPhrase@@QAEHHPADH@Z 00451ac9 f   UiChatPhrase.obj
 0001:00050b5b       ?GetPhraseCount@KUiChatPhrase@@QAEHXZ 00451b5b f   UiChatPhrase.obj
 0001:00050b6b       ?SavePrivateSetting@KUiChatPhrase@@QAEHPAVKIniFile@@PBDH@Z 00451b6b f   UiChatPhrase.obj
 0001:00050c20       ?LoadEntireEmote@KUiChatPhrase@@QAEHXZ 00451c20 f   UiChatPhrase.obj
 0001:00050d2e       ?SetEmote@KUiChatPhrase@@QAEHPAD000H@Z 00451d2e f   UiChatPhrase.obj
 0001:00050f28       ?LoadEmotePhrase@KUiChatPhrase@@AAEHPAVKIniFile@@@Z 00451f28 f   UiChatPhrase.obj
 0001:00050fc6       ?LoadMenuEmote@KUiChatPhrase@@AAEHPAVKIniFile@@@Z 00451fc6 f   UiChatPhrase.obj
 0001:0005106a       ?HandleLoad@KUiChatPhrase@@AAEHPAVKIniFile@@PAUEMOTE_PHRASE@1@HPBD@Z 0045206a f   UiChatPhrase.obj
 0001:0005126e       ?ConstructFunctionAlias@KUiChatPhrase@@QAEHXZ 0045226e f   UiChatPhrase.obj
 0001:000514ef       ?GetEmoteCount@KUiChatPhrase@@QAEHW4EMOTE_TYPE@1@@Z 004524ef f   UiChatPhrase.obj
 0001:00051516       ?GetEmote@KUiChatPhrase@@QAEHPBDPADHH@Z 00452516 f   UiChatPhrase.obj
 0001:00051574       ?GetEmote@KUiChatPhrase@@QAEHHPADHH@Z 00452574 f   UiChatPhrase.obj
 0001:000516b3       ?GetMenuEmote@KUiChatPhrase@@QAEHPBDPADHH@Z 004526b3 f   UiChatPhrase.obj
 0001:000516eb       ?GetMenuEmote@KUiChatPhrase@@QAEHHPADHH@Z 004526eb f   UiChatPhrase.obj
 0001:000517ef       ?GetMenuEmoteName@KUiChatPhrase@@QAEHHPADH@Z 004527ef f   UiChatPhrase.obj
 0001:00051880       ?FindEmote@KUiChatPhrase@@AAEHW4EMOTE_TYPE@1@PBD@Z 00452880 f   UiChatPhrase.obj
 0001:00051937       ?ConvertEmoteString@KUiChatPhrase@@QAEHPADHPBD1@Z 00452937 f   UiChatPhrase.obj
 0001:00051b70       ?clear@?$list@V?$basic_string@DU?$char_traits@D@std@@V?$allocator@D@2@@std@@V?$allocator@V?$basic_string@DU?$char_traits@D@std@@V?$allocator@D@2@@std@@@2@@std@@QAEXXZ 00452b70 f i UiChatPhrase.obj
 0001:00051bb0       ??0KUiChatRoom@@AAE@XZ     00452bb0 f   UiChatRoom.obj
 0001:00051d28       ??1KUiChatRoom@@EAE@XZ     00452d28 f   UiChatRoom.obj
 0001:00051e45       ?GetIfVisible@KUiChatRoom@@SAPAV1@XZ 00452e45 f   UiChatRoom.obj
 0001:00051e6b       ?OpenWindow@KUiChatRoom@@SAPAV1@XZ 00452e6b f   UiChatRoom.obj
 0001:00051f5a       ?Initialize@KUiChatRoom@@AAEXXZ 00452f5a f   UiChatRoom.obj
 0001:00052172       ?CloseWindow@KUiChatRoom@@SAX_N@Z 00453172 f   UiChatRoom.obj
 0001:000521b4       ?LoadScheme@KUiChatRoom@@SAXPBD@Z 004531b4 f   UiChatRoom.obj
 0001:00052597       ?WndProc@KUiChatRoom@@EAEHIIH@Z 00453597 f   UiChatRoom.obj
 0001:00052b78       ?OnClickButton@KUiChatRoom@@AAEXPAVKWndWindow@@@Z 00453b78 f   UiChatRoom.obj
 0001:00052e92       ?Breathe@KUiChatRoom@@EAEXXZ 00453e92 f   UiChatRoom.obj
 0001:00053179       ?UpdateInterface@KUiChatRoom@@SAXXZ 00454179 f   UiChatRoom.obj
 0001:000531ee       ?ServerRequestRoomList@KUiChatRoom@@SAXPAUKOneRoom@@@Z 004541ee f   UiChatRoom.obj
 0001:000535f8       ?ServerRequestMemberList@KUiChatRoom@@SAXPAUKOneMem@@@Z 004545f8 f   UiChatRoom.obj
 0001:00053954       ?ServerRequestBlackList@KUiChatRoom@@SAXPAUKOneMem@@@Z 00454954 f   UiChatRoom.obj
 0001:00053996       ?Join@KUiChatRoom@@SAXPBDH@Z 00454996 f   UiChatRoom.obj
 0001:00053b48       ?Leave@KUiChatRoom@@SAXXZ  00454b48 f   UiChatRoom.obj
 0001:00053c30       ??_EKUiChatRoom@@EAEPAXI@Z 00454c30 f i UiChatRoom.obj
 0001:00053c30       ??_GKUiChatRoom@@EAEPAXI@Z 00454c30 f i UiChatRoom.obj
 0001:00053c9f       ?UIMessageBox@@YAXPBDPAVKWndWindow@@00IH@Z 00454c9f f   UiInformation.obj
 0001:00053cc8       ?UiCloseMessageBox@@YAXXZ  00454cc8 f   UiInformation.obj
 0001:00053cd7       ??0KUiInformation@@QAE@XZ  00454cd7 f   UiInformation.obj
 0001:00053d96       ?Initialize@KUiInformation@@QAEXXZ 00454d96 f   UiInformation.obj
 0001:00053e03       ?LoadScheme@KUiInformation@@QAEXPBD@Z 00454e03 f   UiInformation.obj
 0001:00053f88       ?Show@KUiInformation@@QAEXPBD00PAVKWndWindow@@IHH@Z 00454f88 f   UiInformation.obj
 0001:00054108       ?Hide@KUiInformation@@AAEXH@Z 00455108 f   UiInformation.obj
 0001:0005416c       ?Close@KUiInformation@@QAEXXZ 0045516c f   UiInformation.obj
 0001:0005418b       ?WndProc@KUiInformation@@EAEHIIH@Z 0045518b f   UiInformation.obj
 0001:00054254       ?Breathe@KUiInformation@@EAEXXZ 00455254 f   UiInformation.obj
 0001:000542a0       ??1KUiInformation@@UAE@XZ  004552a0 f i UiInformation.obj
 0001:00054320       ??_EKUiInformation@@UAEPAXI@Z 00455320 f i UiInformation.obj
 0001:00054320       ??_GKUiInformation@@UAEPAXI@Z 00455320 f i UiInformation.obj
 0001:0005438f       ?UIMessageBox1@@YAXPBDHPAVKWndWindow@@00I0H@Z 0045538f f   UiInformation1.obj
 0001:000543be       ?UiCloseMessageBox1@@YAXXZ 004553be f   UiInformation1.obj
 0001:000543cd       ??0KUiInformation1@@QAE@XZ 004553cd f   UiInformation1.obj
 0001:00054484       ?SpeakWords@KUiInformation1@@QAEXPAUKUiInformationParam@@HH@Z 00455484 f   UiInformation1.obj
 0001:00054582       ?Initialize@KUiInformation1@@QAEXXZ 00455582 f   UiInformation1.obj
 0001:00054600       ?LoadScheme@KUiInformation1@@QAEXPBD@Z 00455600 f   UiInformation1.obj
 0001:00054746       ?Show@KUiInformation1@@QAEXPBDH00PAVKWndWindow@@I0H@Z 00455746 f   UiInformation1.obj
 0001:000548d2       ?Hide@KUiInformation1@@AAEXH@Z 004558d2 f   UiInformation1.obj
 0001:00054956       ?Close@KUiInformation1@@QAEXXZ 00455956 f   UiInformation1.obj
 0001:00054969       ?PaintWindow@KUiInformation1@@EAEXXZ 00455969 f   UiInformation1.obj
 0001:00054a41       ?WndProc@KUiInformation1@@EAEHIIH@Z 00455a41 f   UiInformation1.obj
 0001:00054ab6       ?Breathe@KUiInformation1@@EAEXXZ 00455ab6 f   UiInformation1.obj
 0001:00054b00       ??1KUiInformation1@@UAE@XZ 00455b00 f i UiInformation1.obj
 0001:00054b90       ??_GKUiInformation1@@UAEPAXI@Z 00455b90 f i UiInformation1.obj
 0001:00054b90       ??_EKUiInformation1@@UAEPAXI@Z 00455b90 f i UiInformation1.obj
 0001:00054bff       ?UIMessageBox2@@YAXPBDHH@Z 00455bff f   UiInformation2.obj
 0001:00054c1a       ??0KUiInformation2@@QAE@XZ 00455c1a f   UiInformation2.obj
 0001:00054c9b       ?SpeakWords@KUiInformation2@@QAEXPAUKUiInformationParam@@H@Z 00455c9b f   UiInformation2.obj
 0001:00054e1a       ?Initialize@KUiInformation2@@QAEXXZ 00455e1a f   UiInformation2.obj
 0001:00054e56       ?LoadScheme@KUiInformation2@@QAEXPBD@Z 00455e56 f   UiInformation2.obj
 0001:00054f23       ?Show@KUiInformation2@@QAEXPBDHH@Z 00455f23 f   UiInformation2.obj
 0001:00054f7e       ?Hide@KUiInformation2@@UAEXXZ 00455f7e f   UiInformation2.obj
 0001:000550b6       ?WndProc@KUiInformation2@@EAEHIIH@Z 004560b6 f   UiInformation2.obj
 0001:00055169       ?Close@KUiInformation2@@QAEXXZ 00456169 f   UiInformation2.obj
 0001:000551ce       ??1KUiInformation2@@UAE@XZ 004561ce f   UiInformation2.obj
 0001:00055240       ?TopChildFromPoint@KUiInformation2@@UAEPAVKWndWindow@@HH@Z 00456240 f i UiInformation2.obj
 0001:00055250       ??_EKUiInformation2@@UAEPAXI@Z 00456250 f i UiInformation2.obj
 0001:00055250       ??_GKUiInformation2@@UAEPAXI@Z 00456250 f i UiInformation2.obj
 0001:00055280       ??0KUiTeamManage@@AAE@XZ   00456280 f   UiTeamManage.obj
 0001:000553e2       ?GetIfVisible@KUiTeamManage@@SAPAV1@XZ 004563e2 f   UiTeamManage.obj
 0001:00055408       ?OpenWindow@KUiTeamManage@@SAPAV1@XZ 00456408 f   UiTeamManage.obj
 0001:000554d6       ?CloseWindow@KUiTeamManage@@SAXXZ 004564d6 f   UiTeamManage.obj
 0001:00055504       ?Initialize@KUiTeamManage@@AAEXXZ 00456504 f   UiTeamManage.obj
 0001:000556f6       ?LoadScheme@KUiTeamManage@@AAEXPAVKIniFile@@@Z 004566f6 f   UiTeamManage.obj
 0001:0005589d       ?LoadScheme@KUiTeamManage@@SAXPBD@Z 0045689d f   UiTeamManage.obj
 0001:00055945       ?WndProc@KUiTeamManage@@MAEHIIH@Z 00456945 f   UiTeamManage.obj
 0001:00055ad6       ?OnSelTeamMember@KUiTeamManage@@IAEXH@Z 00456ad6 f   UiTeamManage.obj
 0001:00055b70       ?OnSelNearby@KUiTeamManage@@IAEXH@Z 00456b70 f   UiTeamManage.obj
 0001:00055bd6       ?Clear@KUiTeamManage@@IAEXXZ 00456bd6 f   UiTeamManage.obj
 0001:00055cfd       ?UpdateData@KUiTeamManage@@QAEXPAUKUiPlayerTeam@@@Z 00456cfd f   UiTeamManage.obj
 0001:00055f19       ?OnAppoint@KUiTeamManage@@IAEXXZ 00456f19 f   UiTeamManage.obj
 0001:00055f63       ?OnKick@KUiTeamManage@@IAEXXZ 00456f63 f   UiTeamManage.obj
 0001:00055fad       ?OnInvite@KUiTeamManage@@IAEXXZ 00456fad f   UiTeamManage.obj
 0001:0005601d       ?OnRefresh@KUiTeamManage@@IAEXXZ 0045701d f   UiTeamManage.obj
 0001:00056102       ?OnLeave@KUiTeamManage@@IAEXXZ 00457102 f   UiTeamManage.obj
 0001:00056130       ??_GKUiTeamManage@@EAEPAXI@Z 00457130 f i UiTeamManage.obj
 0001:00056130       ??_EKUiTeamManage@@EAEPAXI@Z 00457130 f i UiTeamManage.obj
 0001:00056160       ??1KUiTeamManage@@EAE@XZ   00457160 f i UiTeamManage.obj
 0001:00056290       ?SelfName@KUiPlayerBar@@SAPBDXZ 00457290 f i UiTeamManage.obj
 0001:000562b0       ??0KUiChatItem@@AAE@XZ     004572b0 f   UiChatItem.obj
 0001:00056371       ??1KUiChatItem@@EAE@XZ     00457371 f   UiChatItem.obj
 0001:000563c8       ?OpenWindow@KUiChatItem@@SAPAV1@H@Z 004573c8 f   UiChatItem.obj
 0001:00056497       ?CloseWindow@KUiChatItem@@SAXXZ 00457497 f   UiChatItem.obj
 0001:000564f3       ?GetIfVisible@KUiChatItem@@SAPAV1@XZ 004574f3 f   UiChatItem.obj
 0001:00056519       ?Initialize@KUiChatItem@@AAEXXZ 00457519 f   UiChatItem.obj
 0001:000565b2       ?LoadScheme@KUiChatItem@@SAXPBD@Z 004575b2 f   UiChatItem.obj
 0001:00056865       ?WndProc@KUiChatItem@@EAEHIIH@Z 00457865 f   UiChatItem.obj
 0001:0005690b       ?UpdateData@KUiChatItem@@AAEXH@Z 0045790b f   UiChatItem.obj
 0001:00056b1c       ?PaintWindow@KUiChatItem@@EAEXXZ 00457b1c f   UiChatItem.obj
 0001:00056e80       ??_GKUiChatItem@@EAEPAXI@Z 00457e80 f i UiChatItem.obj
 0001:00056e80       ??_EKUiChatItem@@EAEPAXI@Z 00457e80 f i UiChatItem.obj
 0001:00056eb0       ?OpenWindow@KUiHeaderControlBar@@SAPAV1@XZ 00457eb0 f   UiHeaderControlBar.obj
 0001:00056f6d       ?CloseWindow@KUiHeaderControlBar@@SAXXZ 00457f6d f   UiHeaderControlBar.obj
 0001:00056f90       ?Initialize@KUiHeaderControlBar@@AAEXXZ 00457f90 f   UiHeaderControlBar.obj
 0001:00057020       ?LoadScheme@KUiHeaderControlBar@@SAXPBD@Z 00458020 f   UiHeaderControlBar.obj
 0001:0005711a       ?DefaultScheme@KUiHeaderControlBar@@SAXPBD@Z 0045811a f   UiHeaderControlBar.obj
 0001:00057200       ?Breathe@KUiHeaderControlBar@@EAEXXZ 00458200 f   UiHeaderControlBar.obj
 0001:00057220       ??0KUiHeaderControlBar@@QAE@XZ 00458220 f i UiHeaderControlBar.obj
 0001:00057290       ??_GKUiHeaderControlBar@@EAEPAXI@Z 00458290 f i UiHeaderControlBar.obj
 0001:00057290       ??_EKUiHeaderControlBar@@EAEPAXI@Z 00458290 f i UiHeaderControlBar.obj
 0001:000572c0       ??1KUiHeaderControlBar@@EAE@XZ 004582c0 f i UiHeaderControlBar.obj
 0001:00057330       ?VerticalSplitTwoWindow@@YAHPAVKWndWindow@@0H@Z 00458330 f   UiMsgCentrePad.obj
 0001:00057427       ?WndProc@KSysMsgCentrePad@@UAEHIIH@Z 00458427 f   UiMsgCentrePad.obj
 0001:00057651       ?ScrollBottom@KSysMsgCentrePad@@QAEXXZ 00458651 f   UiMsgCentrePad.obj
 0001:000576c8       ?OpenWindow@KUiMsgCentrePad@@SAPAV1@XZ 004586c8 f   UiMsgCentrePad.obj
 0001:00057774       ?CloseWindow@KUiMsgCentrePad@@SAX_N@Z 00458774 f   UiMsgCentrePad.obj
 0001:000577bb       ??0KUiMsgCentrePad@@AAE@XZ 004587bb f   UiMsgCentrePad.obj
 0001:000579d5       ?SetAutoDelMsgInterval@KUiMsgCentrePad@@AAEXI@Z 004589d5 f   UiMsgCentrePad.obj
 0001:00057a08       ?SystemMessageArrival@KUiMsgCentrePad@@SAXPBDG@Z 00458a08 f   UiMsgCentrePad.obj
 0001:00057ad0       ?ChannelMessageArrival@KUiMsgCentrePad@@AAEXHPADPBDGPAVKWndMessageListBox@@_N1E@Z 00458ad0 f   UiMsgCentrePad.obj
 0001:000588c0       ?MSNMessageArrival@KUiMsgCentrePad@@AAEXPAD0PBDGPAVKWndMessageListBox@@1@Z 004598c0 f   UiMsgCentrePad.obj
 0001:00058b20       ?ShowMSNMessage@KUiMsgCentrePad@@AAEXPADPBDGPAVKWndMessageListBox@@TKRColor@@33G1@Z 00459b20 f   UiMsgCentrePad.obj
 0001:000593fe       ?NewChannelMessageArrival@KUiMsgCentrePad@@SAHKPADPBDG1E@Z 0045a3fe f   UiMsgCentrePad.obj
 0001:00059599       ?GetIfVisible@KUiMsgCentrePad@@SAPAV1@XZ 0045a599 f   UiMsgCentrePad.obj
 0001:000595bf       ?NewMSNMessageArrival@KUiMsgCentrePad@@SAXPAD0PBDG1@Z 0045a5bf f   UiMsgCentrePad.obj
 0001:00059605       ?ShowSomeoneMessage@KUiMsgCentrePad@@SAXPADPBDG@Z 0045a605 f   UiMsgCentrePad.obj
 0001:00059710       ?OpenChannel@KUiMsgCentrePad@@SAXPADKE@Z 0045a710 f   UiMsgCentrePad.obj
 0001:00059824       ?CloseActivateChannel@KUiMsgCentrePad@@AAEXH@Z 0045a824 f   UiMsgCentrePad.obj
 0001:0005987d       ?QueryAllChannel@KUiMsgCentrePad@@SAXXZ 0045a87d f   UiMsgCentrePad.obj
 0001:000598c2       ?ReplaceChannelName@KUiMsgCentrePad@@SAXPADI0@Z 0045a8c2 f   UiMsgCentrePad.obj
 0001:000599c8       ?ReplaceSpecialField@KUiMsgCentrePad@@SA_NPAD0@Z 0045a9c8 f   UiMsgCentrePad.obj
 0001:00059d77       ?CloseSelfChannel@KUiMsgCentrePad@@SAXW4SelfChannel@1@@Z 0045ad77 f   UiMsgCentrePad.obj
 0001:00059dc0       ?GetChannelSubscribe@KUiMsgCentrePad@@SA_NH@Z 0045adc0 f   UiMsgCentrePad.obj
 0001:00059e00       ?IsChannelType@KUiMsgCentrePad@@SA_NHW4SelfChannel@1@@Z 0045ae00 f   UiMsgCentrePad.obj
 0001:00059e64       ?FindActivateChannelResourceIndex@KUiMsgCentrePad@@AAEHPAD@Z 0045ae64 f   UiMsgCentrePad.obj
 0001:00059f1d       ?FindActivateChannelIndex@KUiMsgCentrePad@@AAEHPAD@Z 0045af1d f   UiMsgCentrePad.obj
 0001:00059fbd       ?FindActivateChannelIndex@KUiMsgCentrePad@@AAEHK@Z 0045afbd f   UiMsgCentrePad.obj
 0001:0005a010       ?FindActivateChannelCost@KUiMsgCentrePad@@AAEEK@Z 0045b010 f   UiMsgCentrePad.obj
 0001:0005a075       ?FindChannelResourceIndex@KUiMsgCentrePad@@AAEHPAD@Z 0045b075 f   UiMsgCentrePad.obj
 0001:0005a0e7       ?FindActivateChannelIndexByKey@KUiMsgCentrePad@@AAEHPAD@Z 0045b0e7 f   UiMsgCentrePad.obj
 0001:0005a1c0       ?IsNeverCloseActivateChannel@KUiMsgCentrePad@@AAEHH@Z 0045b1c0 f   UiMsgCentrePad.obj
 0001:0005a225       ?GetChannelMenuinfo@KUiMsgCentrePad@@SA_NHPAG0PATKRColor@@1PADPAF@Z 0045b225 f   UiMsgCentrePad.obj
 0001:0005a5e1       ?GetChannelID@KUiMsgCentrePad@@SAKH@Z 0045b5e1 f   UiMsgCentrePad.obj
 0001:0005a621       ?GetChannelTitle@KUiMsgCentrePad@@SAPADH@Z 0045b621 f   UiMsgCentrePad.obj
 0001:0005a68e       ?GetChannelCount@KUiMsgCentrePad@@SAKXZ 0045b68e f   UiMsgCentrePad.obj
 0001:0005a6ab       ?GetChannelIndex@KUiMsgCentrePad@@SAHPAD@Z 0045b6ab f   UiMsgCentrePad.obj
 0001:0005a6cd       ?GetChannelIndex@KUiMsgCentrePad@@SAHK@Z 0045b6cd f   UiMsgCentrePad.obj
 0001:0005a6ef       ?GetChannelCost@KUiMsgCentrePad@@SAEK@Z 0045b6ef f   UiMsgCentrePad.obj
 0001:0005a710       ?PushChannelData@KUiMsgCentrePad@@SAHKPBDH@Z 0045b710 f   UiMsgCentrePad.obj
 0001:0005a986       ?GetChannelData@KUiMsgCentrePad@@SAHAAKAAEAAPADAAH@Z 0045b986 f   UiMsgCentrePad.obj
 0001:0005aa97       ?PopChannelData@KUiMsgCentrePad@@SAHK@Z 0045ba97 f   UiMsgCentrePad.obj
 0001:0005ac34       ?SetReply@KUiMsgCentrePad@@SAXPBDH@Z 0045bc34 f   UiMsgCentrePad.obj
 0001:0005aca4       ?ClearReply@KUiMsgCentrePad@@SAXXZ 0045bca4 f   UiMsgCentrePad.obj
 0001:0005ad11       ?GetPeopleMenuinfo@KUiMsgCentrePad@@SA_NPADPAG1PATKRColor@@2@Z 0045bd11 f   UiMsgCentrePad.obj
 0001:0005ae06       ?SendQueryChannelID@KUiMsgCentrePad@@AAEXH@Z 0045be06 f   UiMsgCentrePad.obj
 0001:0005af22       ?SendChannelSubscribe@KUiMsgCentrePad@@AAEXH_N@Z 0045bf22 f   UiMsgCentrePad.obj
 0001:0005afd8       ?AddActivateChannel@KUiMsgCentrePad@@AAEHABUKChannelActivateInfo@@@Z 0045bfd8 f   UiMsgCentrePad.obj
 0001:0005b11c       ?ReleaseActivateChannel@KUiMsgCentrePad@@AAEHH@Z 0045c11c f   UiMsgCentrePad.obj
 0001:0005b1bf       ?ReleaseActivateChannelAll@KUiMsgCentrePad@@SAHXZ 0045c1bf f   UiMsgCentrePad.obj
 0001:0005b22f       ?Initialize@KUiMsgCentrePad@@AAEXXZ 0045c22f f   UiMsgCentrePad.obj
 0001:0005b49b       ?ShowChatTab@KUiMsgCentrePad@@AAEXPAVKIniFile@@@Z 0045c49b f   UiMsgCentrePad.obj
 0001:0005b60e       ?Breathe@KUiMsgCentrePad@@UAEXXZ 0045c60e f   UiMsgCentrePad.obj
 0001:0005b69c       ?LoadScheme@KUiMsgCentrePad@@SAXPBD@Z 0045c69c f   UiMsgCentrePad.obj
 0001:0005b73e       ?DefaultScheme@KUiMsgCentrePad@@SAXPBD@Z 0045c73e f   UiMsgCentrePad.obj
 0001:0005b847       ?HideAllMessage@KUiMsgCentrePad@@SAXXZ 0045c847 f   UiMsgCentrePad.obj
 0001:0005b8a5       ?ShowAllMessage@KUiMsgCentrePad@@SAXXZ 0045c8a5 f   UiMsgCentrePad.obj
 0001:0005b903       ?LoadScheme@KUiMsgCentrePad@@AAEXPAVKIniFile@@@Z 0045c903 f   UiMsgCentrePad.obj
 0001:0005cfa6       ?PtInWindow@KUiMsgCentrePad@@EAEHHH@Z 0045dfa6 f   UiMsgCentrePad.obj
 0001:0005d202       ?WndProc@KUiMsgCentrePad@@EAEHIIH@Z 0045e202 f   UiMsgCentrePad.obj
 0001:0005d739       ?GetMessageSendName@KUiMsgCentrePad@@AAEHPAVKWndWindow@@HPAD@Z 0045e739 f   UiMsgCentrePad.obj
 0001:0005d816       ?GetMessageSendName@KUiMsgCentrePad@@AAEHPAVKWndWindow@@HHPAD@Z 0045e816 f   UiMsgCentrePad.obj
 0001:0005d89c       ?PaintWindow@KUiMsgCentrePad@@EAEXXZ 0045e89c f   UiMsgCentrePad.obj
 0001:0005d9ff       ?DragWndPos@KUiMsgCentrePad@@AAEXH@Z 0045e9ff f   UiMsgCentrePad.obj
 0001:0005dad7       ?DragWndSize@KUiMsgCentrePad@@AAEXH@Z 0045ead7 f   UiMsgCentrePad.obj
 0001:0005dbc6       ?ChanageHeight@KUiMsgCentrePad@@AAEHH_N@Z 0045ebc6 f   UiMsgCentrePad.obj
 0001:0005dd21       ?Clear@KUiMsgCentrePad@@SAXXZ 0045ed21 f   UiMsgCentrePad.obj
 0001:0005dd7f       ?Expand@KUiMsgCentrePad@@SAXXZ 0045ed7f f   UiMsgCentrePad.obj
 0001:0005dec0       ?PopupChannelMenu@KUiMsgCentrePad@@AAEXHH@Z 0045eec0 f   UiMsgCentrePad.obj
 0001:0005e0fe       ?CheckChannel@KUiMsgCentrePad@@SAHH_N@Z 0045f0fe f   UiMsgCentrePad.obj
 0001:0005e275       ?FilterTextColor@KUiMsgCentrePad@@AAEHPADGABTKRColor@@@Z 0045f275 f   UiMsgCentrePad.obj
 0001:0005e308       ?GetSelfPosition@KUiMsgCentrePad@@SAHPAH0@Z 0045f308 f   UiMsgCentrePad.obj
 0001:0005e361       ?GetSelfSize@KUiMsgCentrePad@@SAHPAH0@Z 0045f361 f   UiMsgCentrePad.obj
 0001:0005e3ba       ?SetFontSize@KUiMsgCentrePad@@SAXH@Z 0045f3ba f   UiMsgCentrePad.obj
 0001:0005e40a       ?GetFontSize@KUiMsgCentrePad@@SAHXZ 0045f40a f   UiMsgCentrePad.obj
 0001:0005e449       ?SetChannelTextColor@KUiMsgCentrePad@@SAHPADKK@Z 0045f449 f   UiMsgCentrePad.obj
 0001:0005e4da       ?GetChannelTextColor@KUiMsgCentrePad@@SAPADHAAK0@Z 0045f4da f   UiMsgCentrePad.obj
 0001:0005e54e       ?SetMSNTextColor@KUiMsgCentrePad@@SAXHKK@Z 0045f54e f   UiMsgCentrePad.obj
 0001:0005e618       ?GetMSNTextColor@KUiMsgCentrePad@@SAXHAAK0@Z 0045f618 f   UiMsgCentrePad.obj
 0001:0005e6b0       ??_EKUiMsgCentrePad@@EAEPAXI@Z 0045f6b0 f i UiMsgCentrePad.obj
 0001:0005e6b0       ??_GKUiMsgCentrePad@@EAEPAXI@Z 0045f6b0 f i UiMsgCentrePad.obj
 0001:0005e6e0       ??1KUiMsgCentrePad@@EAE@XZ 0045f6e0 f i UiMsgCentrePad.obj
 0001:0005e820       ??1KSysMsgCentrePad@@UAE@XZ 0045f820 f i UiMsgCentrePad.obj
 0001:0005e8b0       ??0KSysMsgCentrePad@@QAE@XZ 0045f8b0 f i UiMsgCentrePad.obj
 0001:0005e940       ??_EKSysMsgCentrePad@@UAEPAXI@Z 0045f940 f i UiMsgCentrePad.obj
 0001:0005e940       ??_GKSysMsgCentrePad@@UAEPAXI@Z 0045f940 f i UiMsgCentrePad.obj
 0001:0005e970       ?GetMaxValue@KWndScrollBar@@QAEHXZ 0045f970 f i UiMsgCentrePad.obj
 0001:0005e990       ?IsDraggingSlide@KWndScrollBar@@QAEHXZ 0045f990 f i UiMsgCentrePad.obj
 0001:0005e9b0       ?GetFontSize@KWndMessageListBox@@QAEHXZ 0045f9b0 f i UiMsgCentrePad.obj
 0001:0005e9d0       ?GetMaxLineWidth@KWndMessageListBox@@QAEHXZ 0045f9d0 f i UiMsgCentrePad.obj
 0001:0005e9f0       ?GetScrollBar@KScrollMessageListBox@@QAEPAVKWndScrollBar@@XZ 0045f9f0 f i UiMsgCentrePad.obj
 0001:0005ea10       ?GetFontSize@KScrollMessageListBox@@QAEHXZ 0045fa10 f i UiMsgCentrePad.obj
 0001:0005ea30       ??0KUiRankData@@AAE@XZ     0045fa30 f   UiRankData.obj
 0001:0005ede3       ??1KUiRankData@@EAE@XZ     0045fde3 f   UiRankData.obj
 0001:0005f157       ?OpenWindow@KUiRankData@@SAPAV1@XZ 00460157 f   UiRankData.obj
 0001:0005f20f       ?CloseWindow@KUiRankData@@SAX_N@Z 0046020f f   UiRankData.obj
 0001:0005f24e       ?GetIfVisible@KUiRankData@@SAPAV1@XZ 0046024e f   UiRankData.obj
 0001:0005f274       ?Initialize@KUiRankData@@AAEXXZ 00460274 f   UiRankData.obj
 0001:0005f719       ?LoadScheme@KUiRankData@@AAEXPBD@Z 00460719 f   UiRankData.obj
 0001:00061c98       ?Breathe@KUiRankData@@EAEXXZ 00462c98 f   UiRankData.obj
 0001:00062206       ?WndProc@KUiRankData@@EAEHIIH@Z 00463206 f   UiRankData.obj
 0001:00062215       ?PaintWindow@KUiRankData@@EAEXXZ 00463215 f   UiRankData.obj
 0001:000622f0       ??_GKUiRankData@@EAEPAXI@Z 004632f0 f i UiRankData.obj
 0001:000622f0       ??_EKUiRankData@@EAEPAXI@Z 004632f0 f i UiRankData.obj
 0001:00062320       ?SetHAlign@KWndText@@QAEXI@Z 00463320 f i UiRankData.obj
 0001:00062340       ?OpenWindow@KUiToolsControlBar@@SAPAV1@XZ 00463340 f   UiToolsControlBar.obj
 0001:000623ec       ?CloseWindow@KUiToolsControlBar@@SAXXZ 004633ec f   UiToolsControlBar.obj
 0001:0006240f       ?Initialize@KUiToolsControlBar@@AAEXXZ 0046340f f   UiToolsControlBar.obj
 0001:0006249e       ?LoadScheme@KUiToolsControlBar@@SAXPBD@Z 0046349e f   UiToolsControlBar.obj
 0001:0006259d       ?WndProc@KUiToolsControlBar@@EAEHIIH@Z 0046359d f   UiToolsControlBar.obj
 0001:0006264f       ?DefaultScheme@KUiToolsControlBar@@SAXPBD@Z 0046364f f   UiToolsControlBar.obj
 0001:0006273a       ?Breathe@KUiToolsControlBar@@EAEXXZ 0046373a f   UiToolsControlBar.obj
 0001:00062750       ?SwitchPK@KUiToolsControlBar@@SAXXZ 00463750 f   UiToolsControlBar.obj
 0001:000628ac       ?SwitchFastPK@KUiToolsControlBar@@SAXXZ 004638ac f   UiToolsControlBar.obj
 0001:00062925       ?SwitchPK@KUiToolsControlBar@@AAEXH@Z 00463925 f   UiToolsControlBar.obj
 0001:000629c0       ??0KUiToolsControlBar@@QAE@XZ 004639c0 f i UiToolsControlBar.obj
 0001:00062a30       ??_EKUiToolsControlBar@@EAEPAXI@Z 00463a30 f i UiToolsControlBar.obj
 0001:00062a30       ??_GKUiToolsControlBar@@EAEPAXI@Z 00463a30 f i UiToolsControlBar.obj
 0001:00062a60       ??1KUiToolsControlBar@@EAE@XZ 00463a60 f i UiToolsControlBar.obj
 0001:00062ad0       ??0KUiPlayerShop@@AAE@XZ   00463ad0 f   UiPlayerShop.obj
 0001:00062b75       ?GetIfVisible@KUiPlayerShop@@SAPAV1@XZ 00463b75 f   UiPlayerShop.obj
 0001:00062b7f       ?OpenWindow@KUiPlayerShop@@SAPAV1@PAUKUiPlayerItem@@@Z 00463b7f f   UiPlayerShop.obj
 0001:00062c98       ?CloseWindow@KUiPlayerShop@@SAXXZ 00463c98 f   UiPlayerShop.obj
 0001:00062cfc       ?Initialize@KUiPlayerShop@@AAEXXZ 00463cfc f   UiPlayerShop.obj
 0001:00062daf       ?LoadScheme@KUiPlayerShop@@SAXPBD@Z 00463daf f   UiPlayerShop.obj
 0001:00062ee1       ?CancelTrade@KUiPlayerShop@@SAXXZ 00463ee1 f   UiPlayerShop.obj
 0001:00062eeb       ?WndProc@KUiPlayerShop@@UAEHIIH@Z 00463eeb f   UiPlayerShop.obj
 0001:00062f7f       ?OnBuyItem@KUiPlayerShop@@AAEXPAUKUiDraggedObject@@@Z 00463f7f f   UiPlayerShop.obj
 0001:00063024       ?OnClickButton@KUiPlayerShop@@AAEXPAVKWndButton@@H@Z 00464024 f   UiPlayerShop.obj
 0001:00063053       ?UpdateData@KUiPlayerShop@@QAEXPAUKUiPlayerItem@@@Z 00464053 f   UiPlayerShop.obj
 0001:0006307f       ?Clear@KUiPlayerShop@@AAEXXZ 0046407f f   UiPlayerShop.obj
 0001:000630d0       ?UpdateItem@KUiPlayerShop@@QAEXXZ 004640d0 f   UiPlayerShop.obj
 0001:00063260       ??_EKUiPlayerShop@@EAEPAXI@Z 00464260 f i UiPlayerShop.obj
 0001:00063260       ??_GKUiPlayerShop@@EAEPAXI@Z 00464260 f i UiPlayerShop.obj
 0001:00063290       ??1KUiPlayerShop@@EAE@XZ   00464290 f i UiPlayerShop.obj
 0001:00063310       ?OpenWindow@KUiSetPrice@@SAPAV1@HPAUKUiObjAtContRegion@@PAUKUiItemBuySelInfo@@@Z 00464310 f   UiSetPrice.obj
 0001:00063435       ??0KUiSetPrice@@AAE@XZ     00464435 f   UiSetPrice.obj
 0001:000634e9       ?GetIfVisible@KUiSetPrice@@SAPAV1@XZ 004644e9 f   UiSetPrice.obj
 0001:0006350f       ?CloseWindow@KUiSetPrice@@SAX_N@Z 0046450f f   UiSetPrice.obj
 0001:00063551       ?Show@KUiSetPrice@@EAEXXZ  00464551 f   UiSetPrice.obj
 0001:000635bd       ?Hide@KUiSetPrice@@EAEXXZ  004645bd f   UiSetPrice.obj
 0001:000635dc       ?Initialize@KUiSetPrice@@AAEHXZ 004645dc f   UiSetPrice.obj
 0001:0006368b       ?LoadScheme@KUiSetPrice@@AAEXPBD@Z 0046468b f   UiSetPrice.obj
 0001:000637d7       ?WndProc@KUiSetPrice@@EAEHIIH@Z 004647d7 f   UiSetPrice.obj
 0001:00063892       ?OnCheckInput@KUiSetPrice@@AAEXXZ 00464892 f   UiSetPrice.obj
 0001:0006391e       ?OnSetPrice@KUiSetPrice@@AAEXXZ 0046491e f   UiSetPrice.obj
 0001:00063967       ?OnCancel@KUiSetPrice@@AAEXXZ 00464967 f   UiSetPrice.obj
 0001:000639a0       ??_EKUiSetPrice@@EAEPAXI@Z 004649a0 f i UiSetPrice.obj
 0001:000639a0       ??_GKUiSetPrice@@EAEPAXI@Z 004649a0 f i UiSetPrice.obj
 0001:000639d0       ??1KUiSetPrice@@EAE@XZ     004649d0 f i UiSetPrice.obj
 0001:00063a60       ??0KUiShop@@AAE@XZ         00464a60 f   UiShop.obj
 0001:00063b4d       ?GetIfVisible@KUiShop@@SAPAV1@XZ 00464b4d f   UiShop.obj
 0001:00063b57       ?OpenWindow@KUiShop@@SAPAV1@XZ 00464b57 f   UiShop.obj
 0001:00063c5c       ?CloseWindow@KUiShop@@SAXXZ 00464c5c f   UiShop.obj
 0001:00063c9f       ?Initialize@KUiShop@@AAEXXZ 00464c9f f   UiShop.obj
 0001:00063da0       ?LoadScheme@KUiShop@@SAXPBD@Z 00464da0 f   UiShop.obj
 0001:00063f6e       ?CancelTrade@KUiShop@@SAXXZ 00464f6e f   UiShop.obj
 0001:00063f78       ?WndProc@KUiShop@@UAEHIIH@Z 00464f78 f   UiShop.obj
 0001:0006408c       ?OnBuyItem@KUiShop@@AAEXPAUKUiDraggedObject@@_N@Z 0046508c f   UiShop.obj
 0001:000641eb       ?OnClickButton@KUiShop@@AAEXPAVKWndButton@@H@Z 004651eb f   UiShop.obj
 0001:0006435a       ?SetPage@KUiShop@@AAEXH@Z  0046535a f   UiShop.obj
 0001:000643fd       ?UpdateItem@KUiShop@@QAEXPAUKUiObjAtContRegion@@H@Z 004653fd f   UiShop.obj
 0001:00064491       ?UpdateData@KUiShop@@UAEXXZ 00465491 f   UiShop.obj
 0001:000645b5       ?Clear@KUiShop@@AAEXXZ     004655b5 f   UiShop.obj
 0001:00064610       ??_GKUiShop@@EAEPAXI@Z     00465610 f i UiShop.obj
 0001:00064610       ??_EKUiShop@@EAEPAXI@Z     00465610 f i UiShop.obj
 0001:00064640       ??1KUiShop@@EAE@XZ         00465640 f i UiShop.obj
 0001:00064710       ??0KUiShoppingCart@@AAE@XZ 00465710 f   UiSuperShop.obj
 0001:00064937       ?GetIfVisible@KUiShoppingCart@@SAPAV1@XZ 00465937 f   UiSuperShop.obj
 0001:0006495d       ?OpenWindow@KUiShoppingCart@@SAPAV1@PAUKUiObjAtContRegion@@PAUKUiItemBuySelInfo@@@Z 0046595d f   UiSuperShop.obj
 0001:00064a77       ?Breathe@KUiShoppingCart@@EAEXXZ 00465a77 f   UiSuperShop.obj
 0001:00064bdc       ?AddCount@KUiShoppingCart@@AAEXXZ 00465bdc f   UiSuperShop.obj
 0001:00064c7f       ?DelCount@KUiShoppingCart@@AAEXXZ 00465c7f f   UiSuperShop.obj
 0001:00064d2f       ?OnCheckInput@KUiShoppingCart@@AAEXXZ 00465d2f f   UiSuperShop.obj
 0001:00064db4       ?Show@KUiShoppingCart@@UAEXXZ 00465db4 f   UiSuperShop.obj
 0001:00064de6       ?UpdateData@KUiShoppingCart@@EAEXXZ 00465de6 f   UiSuperShop.obj
 0001:00064ee5       ?CloseWindow@KUiShoppingCart@@SAX_N@Z 00465ee5 f   UiSuperShop.obj
 0001:00064f27       ?Initialize@KUiShoppingCart@@AAEXXZ 00465f27 f   UiSuperShop.obj
 0001:00065147       ?LoadScheme@KUiShoppingCart@@AAEXPBD@Z 00466147 f   UiSuperShop.obj
 0001:000654d1       ?CartRelease@KUiShoppingCart@@AAEXXZ 004664d1 f   UiSuperShop.obj
 0001:00065527       ?WndProc@KUiShoppingCart@@EAEHIIH@Z 00466527 f   UiSuperShop.obj
 0001:000657b6       ?Initialize@KWndSellItem@@QAEXXZ 004667b6 f   UiSuperShop.obj
 0001:000658b1       ?LoadScheme@KWndSellItem@@QAEXPBD@Z 004668b1 f   UiSuperShop.obj
 0001:00065adb       ?Clear@KWndSellItem@@QAEXXZ 00466adb f   UiSuperShop.obj
 0001:00065b85       ?PaintWindow@KWndSellItem@@UAEXXZ 00466b85 f   UiSuperShop.obj
 0001:00065b90       ?WndProc@KWndSellItem@@EAEHIIH@Z 00466b90 f   UiSuperShop.obj
 0001:00065c7b       ??0KUiSuperShop@@AAE@XZ    00466c7b f   UiSuperShop.obj
 0001:00065e57       ??1KUiSuperShop@@EAE@XZ    00466e57 f   UiSuperShop.obj
 0001:00065f7c       ?GetIfVisible@KUiSuperShop@@SAPAV1@XZ 00466f7c f   UiSuperShop.obj
 0001:00065fa2       ?OpenWindow@KUiSuperShop@@SAPAV1@PAUBuySellInfo@@@Z 00466fa2 f   UiSuperShop.obj
 0001:00066097       ?CloseWindow@KUiSuperShop@@SAX_N@Z 00467097 f   UiSuperShop.obj
 0001:000660ef       ?Initialize@KUiSuperShop@@AAEXXZ 004670ef f   UiSuperShop.obj
 0001:000662b8       ?LoadScheme@KUiSuperShop@@SAXPBD@Z 004672b8 f   UiSuperShop.obj
 0001:000667e5       ?UpdateShop@KUiSuperShop@@SAXPAUBuySellInfo@@@Z 004677e5 f   UiSuperShop.obj
 0001:000668f6       ?SetSellTypeStart@KUiSuperShop@@AAEXH@Z 004678f6 f   UiSuperShop.obj
 0001:00066b76       ?SetCurrSellSort@KUiSuperShop@@AAEXH@Z 00467b76 f   UiSuperShop.obj
 0001:00066bfc       ?PageChangeInfo@KUiSuperShop@@AAEXXZ 00467bfc f   UiSuperShop.obj
 0001:00066cfd       ?ClearPage@KUiSuperShop@@AAEXXZ 00467cfd f   UiSuperShop.obj
 0001:00066d3c       ?BuyItem@KUiSuperShop@@SAXH@Z 00467d3c f   UiSuperShop.obj
 0001:00066d85       ?SetPage@KUiSuperShop@@AAEXH@Z 00467d85 f   UiSuperShop.obj
 0001:00066e40       ?UpdateItem@KUiSuperShop@@AAEXPAUKUiObjAtContRegion@@H@Z 00467e40 f   UiSuperShop.obj
 0001:000670ec       ?UpdateData@KUiSuperShop@@EAEXXZ 004680ec f   UiSuperShop.obj
 0001:000671bd       ?Clear@KUiSuperShop@@AAEXXZ 004681bd f   UiSuperShop.obj
 0001:00067216       ?SellSortChange@KUiSuperShop@@AAEXH@Z 00468216 f   UiSuperShop.obj
 0001:000672c4       ?CancelTrade@KUiSuperShop@@AAEXXZ 004682c4 f   UiSuperShop.obj
 0001:000672d9       ?WndProc@KUiSuperShop@@EAEHIIH@Z 004682d9 f   UiSuperShop.obj
 0001:000675d5       ?PutItem@KUiSuperShop@@SAXPAUKUiObjAtContRegion@@@Z 004685d5 f   UiSuperShop.obj
 0001:0006765d       ?Breathe@KUiSuperShop@@EAEXXZ 0046865d f   UiSuperShop.obj
 0001:000676f1       ?GetMaxFrame@KCanGetNumFrame@@QAEHXZ 004686f1 f   UiSuperShop.obj
 0001:00067705       ?GetCurrentFrame@KCanGetNumFrame@@QAEHXZ 00468705 f   UiSuperShop.obj
 0001:0006771a       ??0KUiDynamicShop@@AAE@XZ  0046871a f   UiSuperShop.obj
 0001:0006786d       ?GetIfVisible@KUiDynamicShop@@SAPAV1@XZ 0046886d f   UiSuperShop.obj
 0001:00067877       ?OpenWindow@KUiDynamicShop@@SAPAV1@PAUBuySellInfo@@@Z 00468877 f   UiSuperShop.obj
 0001:0006796f       ?CloseWindow@KUiDynamicShop@@SAXXZ 0046896f f   UiSuperShop.obj
 0001:000679b2       ?Initialize@KUiDynamicShop@@AAEXXZ 004689b2 f   UiSuperShop.obj
 0001:00067b4e       ?LoadScheme@KUiDynamicShop@@SAXPBD@Z 00468b4e f   UiSuperShop.obj
 0001:00067dee       ?CancelTrade@KUiDynamicShop@@SAXXZ 00468dee f   UiSuperShop.obj
 0001:00067df8       ?WndProc@KUiDynamicShop@@UAEHIIH@Z 00468df8 f   UiSuperShop.obj
 0001:00067f0c       ?OnBuyItem@KUiDynamicShop@@AAEXPAUKUiDraggedObject@@_N@Z 00468f0c f   UiSuperShop.obj
 0001:0006806b       ?OnClickButton@KUiDynamicShop@@AAEXPAVKWndButton@@H@Z 0046906b f   UiSuperShop.obj
 0001:0006821f       ?SellSortChange@KUiDynamicShop@@AAEXH@Z 0046921f f   UiSuperShop.obj
 0001:00068283       ?SetPage@KUiDynamicShop@@AAEXH@Z 00469283 f   UiSuperShop.obj
 0001:0006841a       ?UpdateItem@KUiDynamicShop@@QAEXPAUKUiObjAtContRegion@@H@Z 0046941a f   UiSuperShop.obj
 0001:000684b8       ?UpdateShop@KUiDynamicShop@@QAEXPAUBuySellInfo@@@Z 004694b8 f   UiSuperShop.obj
 0001:00068579       ?UpdateData@KUiDynamicShop@@UAEXXZ 00469579 f   UiSuperShop.obj
 0001:00068666       ?Clear@KUiDynamicShop@@AAEXXZ 00469666 f   UiSuperShop.obj
 0001:000686c0       ??_EKUiShoppingCart@@EAEPAXI@Z 004696c0 f i UiSuperShop.obj
 0001:000686c0       ??_GKUiShoppingCart@@EAEPAXI@Z 004696c0 f i UiSuperShop.obj
 0001:000686f0       ??1KUiShoppingCart@@EAE@XZ 004696f0 f i UiSuperShop.obj
 0001:00068890       ?Clear@BuySellInfo@@QAEXXZ 00469890 f i UiSuperShop.obj
 0001:000688e0       ??_EKUiSuperShop@@EAEPAXI@Z 004698e0 f i UiSuperShop.obj
 0001:000688e0       ??_GKUiSuperShop@@EAEPAXI@Z 004698e0 f i UiSuperShop.obj
 0001:00068910       ??0KWndSellItem@@QAE@XZ    00469910 f i UiSuperShop.obj
 0001:00068a10       ??1KWndSellItem@@UAE@XZ    00469a10 f i UiSuperShop.obj
 0001:00068b00       ??_GKWndSellItem@@UAEPAXI@Z 00469b00 f i UiSuperShop.obj
 0001:00068b00       ??_EKWndSellItem@@UAEPAXI@Z 00469b00 f i UiSuperShop.obj
 0001:00068b30       ??0KCanGetNumFrame@@QAE@XZ 00469b30 f i UiSuperShop.obj
 0001:00068b50       ??1KCanGetNumFrame@@UAE@XZ 00469b50 f i UiSuperShop.obj
 0001:00068b70       ??_GKCanGetNumFrame@@UAEPAXI@Z 00469b70 f i UiSuperShop.obj
 0001:00068b70       ??_EKCanGetNumFrame@@UAEPAXI@Z 00469b70 f i UiSuperShop.obj
 0001:00068ba0       ??_EKUiDynamicShop@@EAEPAXI@Z 00469ba0 f i UiSuperShop.obj
 0001:00068ba0       ??_GKUiDynamicShop@@EAEPAXI@Z 00469ba0 f i UiSuperShop.obj
 0001:00068bd0       ??1KUiDynamicShop@@EAE@XZ  00469bd0 f i UiSuperShop.obj
 0001:00068ce0       ?OpenWindow@KUiTrade@@SAPAV1@PAUKUiPlayerItem@@H@Z 00469ce0 f   UiTrade.obj
 0001:00068e25       ?GetIfVisible@KUiTrade@@SAPAV1@XZ 00469e25 f   UiTrade.obj
 0001:00068e2f       ?CloseWindow@KUiTrade@@SAXXZ 00469e2f f   UiTrade.obj
 0001:00068ea5       ??0KUiTrade@@AAE@XZ        00469ea5 f   UiTrade.obj
 0001:00069048       ??1KUiTrade@@EAE@XZ        0046a048 f   UiTrade.obj
 0001:00069177       ?Initialize@KUiTrade@@AAEXXZ 0046a177 f   UiTrade.obj
 0001:000693c9       ?LoadScheme@KUiTrade@@SAXPBD@Z 0046a3c9 f   UiTrade.obj
 0001:00069466       ?LoadScheme@KUiTrade@@AAEXPAVKIniFile@@@Z 0046a466 f   UiTrade.obj
 0001:000696f1       ?UpdateTakewithItems@KUiTrade@@AAEXXZ 0046a6f1 f   UiTrade.obj
 0001:00069853       ?OnChangedTakewithItem@KUiTrade@@QAEXPAUKUiObjAtRegion@@H@Z 0046a853 f   UiTrade.obj
 0001:000698df       ?OnSelfChangedItem@KUiTrade@@QAEXPAUKUiObjAtRegion@@H@Z 0046a8df f   UiTrade.obj
 0001:00069989       ?OnOppositeChangedItem@KUiTrade@@QAEXPAUKUiObjAtRegion@@H@Z 0046a989 f   UiTrade.obj
 0001:00069a92       ?UpdateOperData@KUiTrade@@QAEXHH@Z 0046aa92 f   UiTrade.obj
 0001:00069d93       ?WndProc@KUiTrade@@EAEHIIH@Z 0046ad93 f   UiTrade.obj
 0001:00069fa6       ?Breathe@KUiTrade@@EAEXXZ  0046afa6 f   UiTrade.obj
 0001:00069fe6       ?OnItemPickDrop@KUiTrade@@AAEXPAUITEM_PICKDROP_PLACE@@0@Z 0046afe6 f   UiTrade.obj
 0001:0006a11c       ?OnAdjustMoney@KUiTrade@@AAEX_N@Z 0046b11c f   UiTrade.obj
 0001:0006a1da       ?OnAdjustedMoney@KUiTrade@@AAEXXZ 0046b1da f   UiTrade.obj
 0001:0006a249       ?OnModififyMoney@KUiTrade@@AAEXXZ 0046b249 f   UiTrade.obj
 0001:0006a30a       ?OnTrade@KUiTrade@@AAEXXZ  0046b30a f   UiTrade.obj
 0001:0006a346       ?OnOk@KUiTrade@@AAEXH@Z    0046b346 f   UiTrade.obj
 0001:0006a384       ?OnCancelTrade@KUiTrade@@AAEXXZ 0046b384 f   UiTrade.obj
 0001:0006a3b9       ?UpdateTradeEnd@KUiTrade@@QAEXH@Z 0046b3b9 f   UiTrade.obj
 0001:0006a3e0       ??_EKUiTrade@@EAEPAXI@Z    0046b3e0 f i UiTrade.obj
 0001:0006a3e0       ??_GKUiTrade@@EAEPAXI@Z    0046b3e0 f i UiTrade.obj
 0001:0006a410       ?OpenWindow@KUiTradeConfirm@@SAPAV1@PAUKUiObjAtContRegion@@PAUKUiItemBuySelInfo@@W4TRADE_CONFIRM_ACTION@@@Z 0046b410 f   UiTradeConfirmWnd.obj
 0001:0006a7a8       ??0KUiTradeConfirm@@AAE@XZ 0046b7a8 f   UiTradeConfirmWnd.obj
 0001:0006a8f4       ?GetIfVisible@KUiTradeConfirm@@SAPAV1@XZ 0046b8f4 f   UiTradeConfirmWnd.obj
 0001:0006a91a       ?CloseWindow@KUiTradeConfirm@@SAX_N@Z 0046b91a f   UiTradeConfirmWnd.obj
 0001:0006a95c       ?Show@KUiTradeConfirm@@EAEXXZ 0046b95c f   UiTradeConfirmWnd.obj
 0001:0006aa02       ?Hide@KUiTradeConfirm@@EAEXXZ 0046ba02 f   UiTradeConfirmWnd.obj
 0001:0006aa21       ?Initialize@KUiTradeConfirm@@AAEHXZ 0046ba21 f   UiTradeConfirmWnd.obj
 0001:0006ab76       ?LoadScheme@KUiTradeConfirm@@AAEXPBD@Z 0046bb76 f   UiTradeConfirmWnd.obj
 0001:0006ae57       ?WndProc@KUiTradeConfirm@@EAEHIIH@Z 0046be57 f   UiTradeConfirmWnd.obj
 0001:0006affb       ?OnBuy@KUiTradeConfirm@@AAEXXZ 0046bffb f   UiTradeConfirmWnd.obj
 0001:0006b094       ?OnSale@KUiTradeConfirm@@AAEXXZ 0046c094 f   UiTradeConfirmWnd.obj
 0001:0006b0d0       ?OnRepair@KUiTradeConfirm@@AAEXXZ 0046c0d0 f   UiTradeConfirmWnd.obj
 0001:0006b10c       ?OnIncrease@KUiTradeConfirm@@AAEXXZ 0046c10c f   UiTradeConfirmWnd.obj
 0001:0006b15a       ?OnDecrease@KUiTradeConfirm@@AAEXXZ 0046c15a f   UiTradeConfirmWnd.obj
 0001:0006b1a8       ?OnCheckInput@KUiTradeConfirm@@AAEXXZ 0046c1a8 f   UiTradeConfirmWnd.obj
 0001:0006b270       ?OnCancel@KUiTradeConfirm@@AAEXXZ 0046c270 f   UiTradeConfirmWnd.obj
 0001:0006b285       ?Breathe@KUiTradeConfirm@@EAEXXZ 0046c285 f   UiTradeConfirmWnd.obj
 0001:0006b2d0       ??_GKUiTradeConfirm@@EAEPAXI@Z 0046c2d0 f i UiTradeConfirmWnd.obj
 0001:0006b2d0       ??_EKUiTradeConfirm@@EAEPAXI@Z 0046c2d0 f i UiTradeConfirmWnd.obj
 0001:0006b300       ??1KUiTradeConfirm@@EAE@XZ 0046c300 f i UiTradeConfirmWnd.obj
 0001:0006b44f       ?WndProc@KUiGameSpace@@UAEHIIH@Z 0046c44f f   UiGame.obj
 0001:0006b811       ?PaintWindow@KUiGameSpace@@UAEXXZ 0046c811 f   UiGame.obj
 0001:0006b82c       ?OnMouseMoveCursor@KUiGameSpace@@QAEXHH@Z 0046c82c f   UiGame.obj
 0001:0006b99f       ?ProcessPeople@@YAXPAUKUiPlayerItem@@H@Z 0046c99f f   UiGame.obj
 0001:0006bc93       ?ProcessEmote@@YAXPAD0H@Z  0046cc93 f   UiGame.obj
 0001:0006bea4       ?PopUpContextPeopleMenu@@YAXABUKUiPlayerItem@@HH@Z 0046cea4 f   UiGame.obj
 0001:0006c239       ?PopUpContextEmoteMenu@@YAXPADHH@Z 0046d239 f   UiGame.obj
 0001:0006c41f       ?SwitchHoldCursor@@YAXXZ   0046d41f f   UiGame.obj
 0001:0006c4a0       ??1KUiGameSpace@@UAE@XZ    0046d4a0 f i UiGame.obj
 0001:0006c4c0       ??0KUiGameSpace@@QAE@XZ    0046d4c0 f i UiGame.obj
 0001:0006c4e0       ??_EKUiGameSpace@@UAEPAXI@Z 0046d4e0 f i UiGame.obj
 0001:0006c4e0       ??_GKUiGameSpace@@UAEPAXI@Z 0046d4e0 f i UiGame.obj
 0001:0006c510       ??0KUiSysMsgCentre@@AAE@XZ 0046d510 f   UiSysMsgCentre.obj
 0001:0006c661       ??1KUiSysMsgCentre@@EAE@XZ 0046d661 f   UiSysMsgCentre.obj
 0001:0006c6e3       ?OpenWindow@KUiSysMsgCentre@@SAPAV1@XZ 0046d6e3 f   UiSysMsgCentre.obj
 0001:0006c78f       ?Initialize@KUiSysMsgCentre@@AAEXXZ 0046d78f f   UiSysMsgCentre.obj
 0001:0006c8b8       ?CloseWindow@KUiSysMsgCentre@@SAXXZ 0046d8b8 f   UiSysMsgCentre.obj
 0001:0006c8e6       ?LoadScheme@KUiSysMsgCentre@@SAXPBD@Z 0046d8e6 f   UiSysMsgCentre.obj
 0001:0006c988       ?LoadScheme@KUiSysMsgCentre@@AAEXPAVKIniFile@@@Z 0046d988 f   UiSysMsgCentre.obj
 0001:0006cbe7       ?WndProc@KUiSysMsgCentre@@EAEHIIH@Z 0046dbe7 f   UiSysMsgCentre.obj
 0001:0006ce32       ?OnConfirmOperFinished@KUiSysMsgCentre@@AAEXIH@Z 0046de32 f   UiSysMsgCentre.obj
 0001:0006d17f       ?PtInWindow@KUiSysMsgCentre@@EAEHHH@Z 0046e17f f   UiSysMsgCentre.obj
 0001:0006d20b       ?Breathe@KUiSysMsgCentre@@EAEXXZ 0046e20b f   UiSysMsgCentre.obj
 0001:0006d345       ?AMessageArrival@KUiSysMsgCentre@@SA_NPAUKSystemMessage@@PAX@Z 0046e345 f   UiSysMsgCentre.obj
 0001:0006d4e0       ?FilterSameMsg@KUiSysMsgCentre@@AAE_NPAUKSystemMessage@@PAX@Z 0046e4e0 f   UiSysMsgCentre.obj
 0001:0006d72e       ?Clear@KUiSysMsgCentre@@AAEXXZ 0046e72e f   UiSysMsgCentre.obj
 0001:0006d7fc       ?GetAMsgSpace@KUiSysMsgCentre@@AAEPAUKSystemMessage@@H@Z 0046e7fc f   UiSysMsgCentre.obj
 0001:0006d909       ?SetPopupMsgDest@KUiSysMsgCentre@@AAEXXZ 0046e909 f   UiSysMsgCentre.obj
 0001:0006da2a       ?ConfirmMsg@KUiSysMsgCentre@@AAEXPAUKSystemMessage@@_N@Z 0046ea2a f   UiSysMsgCentre.obj
 0001:0006df33       ?DeleteMsgInHeap@KUiSysMsgCentre@@AAEXHH_N0@Z 0046ef33 f   UiSysMsgCentre.obj
 0001:0006e0df       ?MovePopupedMsgToHeap@KUiSysMsgCentre@@AAEXXZ 0046f0df f   UiSysMsgCentre.obj
 0001:0006e1ba       ?AddAMsgToHeap@KUiSysMsgCentre@@AAE_NPAUKSystemMessage@@H_N@Z 0046f1ba f   UiSysMsgCentre.obj
 0001:0006e2dd       ?PaintWindow@KUiSysMsgCentre@@EAEXXZ 0046f2dd f   UiSysMsgCentre.obj
 0001:0006e760       ??_GKUiSysMsgCentre@@EAEPAXI@Z 0046f760 f i UiSysMsgCentre.obj
 0001:0006e760       ??_EKUiSysMsgCentre@@EAEPAXI@Z 0046f760 f i UiSysMsgCentre.obj
 0001:0006e790       ?OpenWindow@KUiCaveList@@SAPAV1@XZ 0046f790 f   UiCaveList.obj
 0001:0006e870       ?CloseWindow@KUiCaveList@@SAXXZ 0046f870 f   UiCaveList.obj
 0001:0006e8a6       ?GetIfVisible@KUiCaveList@@SAPAV1@XZ 0046f8a6 f   UiCaveList.obj
 0001:0006e8cc       ?Initialize@KUiCaveList@@AAEXXZ 0046f8cc f   UiCaveList.obj
 0001:0006e9d1       ?WndProc@KUiCaveList@@EAEHIIH@Z 0046f9d1 f   UiCaveList.obj
 0001:0006ea32       ?UpdateData@KUiCaveList@@EAEXXZ 0046fa32 f   UiCaveList.obj
 0001:0006ebf1       ?Breathe@KUiCaveList@@EAEXXZ 0046fbf1 f   UiCaveList.obj
 0001:0006ec20       ??0KUiCaveList@@AAE@XZ     0046fc20 f i UiCaveList.obj
 0001:0006ec80       ??_EKUiCaveList@@EAEPAXI@Z 0046fc80 f i UiCaveList.obj
 0001:0006ec80       ??_GKUiCaveList@@EAEPAXI@Z 0046fc80 f i UiCaveList.obj
 0001:0006ecb0       ??1KUiCaveList@@EAE@XZ     0046fcb0 f i UiCaveList.obj
 0001:0006ed10       ??0KUiMiniMap@@AAE@XZ      0046fd10 f   UiMiniMap.obj
 0001:0006ede3       ?OpenWindow@KUiMiniMap@@SAPAV1@XZ 0046fde3 f   UiMiniMap.obj
 0001:0006eea4       ?GetIfVisible@KUiMiniMap@@SAPAV1@XZ 0046fea4 f   UiMiniMap.obj
 0001:0006eeca       ?Initialize@KUiMiniMap@@AAEXXZ 0046feca f   UiMiniMap.obj
 0001:0006efca       ?CloseWindow@KUiMiniMap@@SAX_N@Z 0046ffca f   UiMiniMap.obj
 0001:0006f03e       ?LoadScheme@KUiMiniMap@@SAXPBD@Z 0047003e f   UiMiniMap.obj
 0001:0006f157       ?LoadScheme@KUiMiniMap@@AAEXPAVKIniFile@@@Z 00470157 f   UiMiniMap.obj
 0001:0006f311       ?WndProc@KUiMiniMap@@EAEHIIH@Z 00470311 f   UiMiniMap.obj
 0001:0006f8ba       ?StopScrollMap@KUiMiniMap@@AAEXXZ 004708ba f   UiMiniMap.obj
 0001:0006f8f1       ?MapMoveBack@KUiMiniMap@@AAEXXZ 004708f1 f   UiMiniMap.obj
 0001:0006f958       ?PaintWindow@KUiMiniMap@@EAEXXZ 00470958 f   UiMiniMap.obj
 0001:0006fa2d       ?Breathe@KUiMiniMap@@EAEXXZ 00470a2d f   UiMiniMap.obj
 0001:0006faba       ?UpdateSceneTimeInfo@KUiMiniMap@@SAXPAUKUiSceneTimeInfo@@@Z 00470aba f   UiMiniMap.obj
 0001:0006fc61       ?Show@KUiMiniMap@@UAEXXZ   00470c61 f   UiMiniMap.obj
 0001:0006fcaf       ?Hide@KUiMiniMap@@UAEXXZ   00470caf f   UiMiniMap.obj
 0001:0006fce1       ?MapScroll@KUiMiniMap@@AAEXH@Z 00470ce1 f   UiMiniMap.obj
 0001:0006fdcf       ?MapToggleStatus@@YAXXZ    00470dcf f   UiMiniMap.obj
 0001:0006fe25       ?MapGetMode@@YA?AW4MINIMAP_MODE@@XZ 00470e25 f   UiMiniMap.obj
 0001:0006fe2f       ?MapSetMode@@YAXW4MINIMAP_MODE@@@Z 00470e2f f   UiMiniMap.obj
 0001:0006ff90       ??_EKUiMiniMap@@EAEPAXI@Z  00470f90 f i UiMiniMap.obj
 0001:0006ff90       ??_GKUiMiniMap@@EAEPAXI@Z  00470f90 f i UiMiniMap.obj
 0001:0006ffc0       ??1KUiMiniMap@@EAE@XZ      00470fc0 f i UiMiniMap.obj
 0001:00070090       ?GetColor@KUiSelColor@@SAIH@Z 00471090 f   UiSelColor.obj
 0001:000700c2       ?LoadScheme@KUiSelColor@@SAXPBD@Z 004710c2 f   UiSelColor.obj
 0001:000702f4       ?PopupMenu@KUiSelColor@@SAXPAVKWndWindow@@IHHH@Z 004712f4 f   UiSelColor.obj
 0001:0007033c       ?CancelMenu@KUiSelColor@@SAXXZ 0047133c f   UiSelColor.obj
 0001:00070350       ??0KUiNewPlayerStartMsg@@AAE@XZ 00471350 f   UiNewPlayerStartMsg.obj
 0001:000703f2       ??1KUiNewPlayerStartMsg@@EAE@XZ 004713f2 f   UiNewPlayerStartMsg.obj
 0001:00070491       ?OpenWindow@KUiNewPlayerStartMsg@@SAPAV1@XZ 00471491 f   UiNewPlayerStartMsg.obj
 0001:00070543       ?CloseWindow@KUiNewPlayerStartMsg@@SAX_N@Z 00471543 f   UiNewPlayerStartMsg.obj
 0001:00070594       ?Initialize@KUiNewPlayerStartMsg@@AAEXXZ 00471594 f   UiNewPlayerStartMsg.obj
 0001:000706a2       ?LoadList@KUiNewPlayerStartMsg@@AAEXXZ 004716a2 f   UiNewPlayerStartMsg.obj
 0001:00070752       ?LoadScheme@KUiNewPlayerStartMsg@@AAEXPBD@Z 00471752 f   UiNewPlayerStartMsg.obj
 0001:000708bf       ?WndProc@KUiNewPlayerStartMsg@@EAEHIIH@Z 004718bf f   UiNewPlayerStartMsg.obj
 0001:00070928       ?OnKeyDown@KUiNewPlayerStartMsg@@AAEHI@Z 00471928 f   UiNewPlayerStartMsg.obj
 0001:00070966       ?OnClickButton@KUiNewPlayerStartMsg@@AAEXPAVKWndButton@@@Z 00471966 f   UiNewPlayerStartMsg.obj
 0001:00070a3f       ?OnOk@KUiNewPlayerStartMsg@@AAEXXZ 00471a3f f   UiNewPlayerStartMsg.obj
 0001:00070a60       ??_EKUiNewPlayerStartMsg@@EAEPAXI@Z 00471a60 f i UiNewPlayerStartMsg.obj
 0001:00070a60       ??_GKUiNewPlayerStartMsg@@EAEPAXI@Z 00471a60 f i UiNewPlayerStartMsg.obj
 0001:00070a90       ??0KUiHelper@@AAE@XZ       00471a90 f   UiHelper.obj
 0001:00070aaf       ??1KUiHelper@@EAE@XZ       00471aaf f   UiHelper.obj
 0001:00070acb       ?OpenWindow@KUiHelper@@SAPAV1@_N@Z 00471acb f   UiHelper.obj
 0001:00070ba0       ?CloseWindow@KUiHelper@@SAX_N@Z 00471ba0 f   UiHelper.obj
 0001:00070bdf       ?GetIfVisible@KUiHelper@@SAPAV1@XZ 00471bdf f   UiHelper.obj
 0001:00070c05       ?Initialize@KUiHelper@@AAEXXZ 00471c05 f   UiHelper.obj
 0001:00070c51       ?WndProc@KUiHelper@@EAEHIIH@Z 00471c51 f   UiHelper.obj
 0001:00070cc6       ?LoadScheme@KUiHelper@@QAEXPBD@Z 00471cc6 f   UiHelper.obj
 0001:00070e20       ?Show@KUiHelper@@EAEXXZ    00471e20 f   UiHelper.obj
 0001:00070ebd       ?SelectInterfacePic@KUiHelper@@SAXXZ 00471ebd f   UiHelper.obj
 0001:00070f05       ?SelectKeyboardPic@KUiHelper@@SAXXZ 00471f05 f   UiHelper.obj
 0001:00070f4d       ?SelectWuxingPic@KUiHelper@@SAXXZ 00471f4d f   UiHelper.obj
 0001:00070fa0       ?Breathe@KUiHelper@@EAEXXZ 00471fa0 f i UiHelper.obj
 0001:00070fc0       ??_EKUiHelper@@EAEPAXI@Z   00471fc0 f i UiHelper.obj
 0001:00070fc0       ??_GKUiHelper@@EAEPAXI@Z   00471fc0 f i UiHelper.obj
 0001:00070ff0       ?GetIfVisible@KUiHelper2@@SAPAV1@XZ 00471ff0 f   UiHelper2.obj
 0001:00071016       ??0KUiHelper2@@AAE@XZ      00472016 f   UiHelper2.obj
 0001:000710fb       ??1KUiHelper2@@EAE@XZ      004720fb f   UiHelper2.obj
 0001:000711dc       ?OpenWindow@KUiHelper2@@SAPAV1@_N@Z 004721dc f   UiHelper2.obj
 0001:0007129d       ?Initialize@KUiHelper2@@AAEXXZ 0047229d f   UiHelper2.obj
 0001:000713de       ?CloseWindow@KUiHelper2@@SAX_N@Z 004723de f   UiHelper2.obj
 0001:0007141d       ?LoadScheme@KUiHelper2@@SAXPBD@Z 0047241d f   UiHelper2.obj
 0001:00071619       ?WndProc@KUiHelper2@@EAEHIIH@Z 00472619 f   UiHelper2.obj
 0001:0007187a       ?Clear@KUiHelper2@@AAEXXZ  0047287a f   UiHelper2.obj
 0001:000718a8       ?LoadIndexList@KUiHelper2@@AAEXPBD@Z 004728a8 f   UiHelper2.obj
 0001:00071b4b       ?UpdateData@KUiHelper2@@AAEXH@Z 00472b4b f   UiHelper2.obj
 0001:00071c90       ??_GKUiHelper2@@EAEPAXI@Z  00472c90 f i UiHelper2.obj
 0001:00071c90       ??_EKUiHelper2@@EAEPAXI@Z  00472c90 f i UiHelper2.obj
 0001:00071cc0       ?LaunchReconnect@KReconnectWnd@@SA_NH@Z 00472cc0 f   UiReconnect.obj
 0001:00071d9d       ?IsReconnecttingGoingOn@KReconnectWnd@@SA_NXZ 00472d9d f   UiReconnect.obj
 0001:00071dae       ?FirstReconnect@KReconnectWnd@@AAEXXZ 00472dae f   UiReconnect.obj
 0001:00071e3c       ?StartReconnect@KReconnectWnd@@AAE_NXZ 00472e3c f   UiReconnect.obj
 0001:00071ec0       ?Exit@KReconnectWnd@@SAX_N@Z 00472ec0 f   UiReconnect.obj
 0001:00071f0a       ?Breathe@KReconnectWnd@@EAEXXZ 00472f0a f   UiReconnect.obj
 0001:00072279       ?WndProc@KReconnectWnd@@EAEHIIH@Z 00473279 f   UiReconnect.obj
 0001:000722c0       ??0KReconnectWnd@@AAE@XZ   004732c0 f i UiReconnect.obj
 0001:000722e0       ??_GKReconnectWnd@@EAEPAXI@Z 004732e0 f i UiReconnect.obj
 0001:000722e0       ??_EKReconnectWnd@@EAEPAXI@Z 004732e0 f i UiReconnect.obj
 0001:00072310       ??1KReconnectWnd@@EAE@XZ   00473310 f i UiReconnect.obj
 0001:00072330       ?LoadData@KTaskDataFile@@SAXXZ 00473330 f   UiTaskDataFile.obj
 0001:0007259b       ?SaveData@KTaskDataFile@@SA_NXZ 0047359b f   UiTaskDataFile.obj
 0001:000727ce       ?GetFileName@KTaskDataFile@@CAXPADH@Z 004737ce f   UiTaskDataFile.obj
 0001:000727fc       ?ClearAll@KTaskDataFile@@SAXXZ 004737fc f   UiTaskDataFile.obj
 0001:0007285a       ?GetPersonalRecord@KTaskDataFile@@SAHPADH@Z 0047385a f   UiTaskDataFile.obj
 0001:000728b5       ?SetPersonalRecord@KTaskDataFile@@SA_NPBDH@Z 004738b5 f   UiTaskDataFile.obj
 0001:00072938       ?GetSystemHeaderCount@KTaskDataFile@@SAHH@Z 00473938 f   UiTaskDataFile.obj
 0001:0007299e       ?GetSystemRecordCount@KTaskDataFile@@SAHXZ 0047399e f   UiTaskDataFile.obj
 0001:000729a8       ?GetSystemRecord@KTaskDataFile@@SAPBUTASK_SYSTEM_RECORD@@H@Z 004739a8 f   UiTaskDataFile.obj
 0001:00072a07       ?InsertSystemRecord@KTaskDataFile@@SA_NPAUTASK_SYSTEM_RECORD@@@Z 00473a07 f   UiTaskDataFile.obj
 0001:00072b24       ?AppendSystemRecord@KTaskDataFile@@CAXPAUKTaskSystemRecordNode@1@@Z 00473b24 f   UiTaskDataFile.obj
 0001:00072b90       ?InsertSystemRecord@KTaskDataFile@@CAXPAUKTaskSystemRecordNode@1@@Z 00473b90 f   UiTaskDataFile.obj
 0001:00072be0       ??0KUiTaskNote@@AAE@XZ     00473be0 f   UiTaskNote.obj
 0001:00072d13       ??1KUiTaskNote@@EAE@XZ     00473d13 f   UiTaskNote.obj
 0001:00072df5       ?OpenWindow@KUiTaskNote@@SAPAV1@XZ 00473df5 f   UiTaskNote.obj
 0001:00072ec1       ?CloseWindow@KUiTaskNote@@SAX_N@Z 00473ec1 f   UiTaskNote.obj
 0001:00072f10       ?GetIfVisible@KUiTaskNote@@SAPAV1@XZ 00473f10 f   UiTaskNote.obj
 0001:00072f36       ?InitData@KUiTaskNote@@AAEXXZ 00473f36 f   UiTaskNote.obj
 0001:00072f58       ?SaveData@KUiTaskNote@@AAEXXZ 00473f58 f   UiTaskNote.obj
 0001:00072f68       ?LoadScheme@KUiTaskNote@@SAXPBD@Z 00473f68 f   UiTaskNote.obj
 0001:00073495       ?Initialize@KUiTaskNote@@AAEXXZ 00474495 f   UiTaskNote.obj
 0001:000735ec       ?WndProc@KUiTaskNote@@EAEHIIH@Z 004745ec f   UiTaskNote.obj
 0001:00073879       ?OnClose@KUiTaskNote@@AAEXXZ 00474879 f   UiTaskNote.obj
 0001:0007388e       ?WakeUp@KUiTaskNote@@SAXPAUKMissionRecord@@@Z 0047488e f   UiTaskNote.obj
 0001:00073962       ?UpdateData@KUiTaskNote@@AAEXH@Z 00474962 f   UiTaskNote.obj
 0001:00073d44       ?UpdateList@KUiTaskNote@@AAEXH@Z 00474d44 f   UiTaskNote.obj
 0001:000741fa       ??0KUiMissionNote@@AAE@XZ  004751fa f   UiTaskNote.obj
 0001:00074275       ??1KUiMissionNote@@EAE@XZ  00475275 f   UiTaskNote.obj
 0001:000742ed       ?OpenWindow@KUiMissionNote@@SAPAV1@PAUKMissionRecord@@@Z 004752ed f   UiTaskNote.obj
 0001:0007442c       ?CloseWindow@KUiMissionNote@@SAX_N@Z 0047542c f   UiTaskNote.obj
 0001:0007446b       ?GetIfVisible@KUiMissionNote@@SAPAV1@XZ 0047546b f   UiTaskNote.obj
 0001:00074491       ?LoadScheme@KUiMissionNote@@SAXPBD@Z 00475491 f   UiTaskNote.obj
 0001:000745b5       ?Initialize@KUiMissionNote@@AAEXXZ 004755b5 f   UiTaskNote.obj
 0001:00074643       ?WndProc@KUiMissionNote@@EAEHIIH@Z 00475643 f   UiTaskNote.obj
 0001:0007469c       ?PtInWindow@KUiMissionNote@@EAEHHH@Z 0047569c f   UiTaskNote.obj
 0001:000746f0       ??_EKUiTaskNote@@EAEPAXI@Z 004756f0 f i UiTaskNote.obj
 0001:000746f0       ??_GKUiTaskNote@@EAEPAXI@Z 004756f0 f i UiTaskNote.obj
 0001:00074720       ??0KWndTaskButton@@QAE@XZ  00475720 f i UiTaskNote.obj
 0001:00074790       ??1KWndTaskButton@@QAE@XZ  00475790 f i UiTaskNote.obj
 0001:000747f0       ??_EKUiMissionNote@@EAEPAXI@Z 004757f0 f i UiTaskNote.obj
 0001:000747f0       ??_GKUiMissionNote@@EAEPAXI@Z 004757f0 f i UiTaskNote.obj
 0001:00074820       ?OpenWindow@KUiWorldmap@@SAPAV1@XZ 00475820 f   UiWorldMap.obj
 0001:00074900       ?CloseWindow@KUiWorldmap@@SAXXZ 00475900 f   UiWorldMap.obj
 0001:00074936       ?GetIfVisible@KUiWorldmap@@SAPAV1@XZ 00475936 f   UiWorldMap.obj
 0001:0007495c       ?Initialize@KUiWorldmap@@AAEXXZ 0047595c f   UiWorldMap.obj
 0001:00074c5b       ?WndProc@KUiWorldmap@@EAEHIIH@Z 00475c5b f   UiWorldMap.obj
 0001:00074cbc       ?UpdateData@KUiWorldmap@@EAEXXZ 00475cbc f   UiWorldMap.obj
 0001:00075478       ?PaintWindow@KUiWorldmap@@EAEXXZ 00476478 f   UiWorldMap.obj
 0001:000755b0       ??0KUiWorldmap@@AAE@XZ     004765b0 f i UiWorldMap.obj
 0001:000756a0       ??_GKUiWorldmap@@EAEPAXI@Z 004766a0 f i UiWorldMap.obj
 0001:000756a0       ??_EKUiWorldmap@@EAEPAXI@Z 004766a0 f i UiWorldMap.obj
 0001:000756d0       ??1KUiWorldmap@@EAE@XZ     004766d0 f i UiWorldMap.obj
 0001:000757c0       ??0KUiNewsMessage@@AAE@XZ  004767c0 f   UiNewsMessage.obj
 0001:00075880       ?EnableIdleMsg@KUiNewsMessage@@SAXH@Z 00476880 f   UiNewsMessage.obj
 0001:000758ef       ?AddMessage@KUiNewsMessage@@AAE_NPAUKNewsMessage@@II@Z 004768ef f   UiNewsMessage.obj
 0001:0007596c       ?SeparateMsg@KUiNewsMessage@@AAEPAUKNewsMessageNode@@XZ 0047696c f   UiNewsMessage.obj
 0001:00075a0d       ?AddToTail@KUiNewsMessage@@AAEXPAUKNewsMessageNode@@@Z 00476a0d f   UiNewsMessage.obj
 0001:00075a65       ?Clear@KUiNewsMessage@@AAEXXZ 00476a65 f   UiNewsMessage.obj
 0001:00075ab5       ?OpenWindow@KUiNewsMessage@@SAPAV1@XZ 00476ab5 f   UiNewsMessage.obj
 0001:00075b7c       ?GetIfVisible@KUiNewsMessage@@SAPAV1@XZ 00476b7c f   UiNewsMessage.obj
 0001:00075ba2       ?CloseWindow@KUiNewsMessage@@SAXH@Z 00476ba2 f   UiNewsMessage.obj
 0001:00075be8       ?Initialize@KUiNewsMessage@@AAEXXZ 00476be8 f   UiNewsMessage.obj
 0001:00075c48       ?LoadScheme@KUiNewsMessage@@SAXPBD@Z 00476c48 f   UiNewsMessage.obj
 0001:00075f21       ?PtInWindow@KUiNewsMessage@@EAEHHH@Z 00476f21 f   UiNewsMessage.obj
 0001:00075f30       ?MessageArrival@KUiNewsMessage@@SAXPAUKNewsMessage@@PAU_SYSTEMTIME@@@Z 00476f30 f   UiNewsMessage.obj
 0001:000760e8       ?PaintWindow@KUiNewsMessage@@EAEXXZ 004770e8 f   UiNewsMessage.obj
 0001:00076387       ?PickAMessage@KUiNewsMessage@@AAE_NXZ 00477387 f   UiNewsMessage.obj
 0001:00076539       ?PickFromIni@KUiNewsMessage@@AAEXXZ 00477539 f   UiNewsMessage.obj
 0001:00076600       ?Breathe@KUiNewsMessage@@EAEXXZ 00477600 f   UiNewsMessage.obj
 0001:00076678       ?ConvertMsg@KUiNewsMessage@@AAEXXZ 00477678 f   UiNewsMessage.obj
 0001:0007677f       ?MakeCountingMsg@KUiNewsMessage@@AAE_NXZ 0047777f f   UiNewsMessage.obj
 0001:00076a0f       ?Reset@KUiNewsMessage@@AAEXXZ 00477a0f f   UiNewsMessage.obj
 0001:00076a92       ?ScrollMsg@KUiNewsMessage@@AAE_NXZ 00477a92 f   UiNewsMessage.obj
 0001:00076dd0       ??_GKUiNewsMessage@@EAEPAXI@Z 00477dd0 f i UiNewsMessage.obj
 0001:00076dd0       ??_EKUiNewsMessage@@EAEPAXI@Z 00477dd0 f i UiNewsMessage.obj
 0001:00076e00       ??1KUiNewsMessage@@EAE@XZ  00477e00 f i UiNewsMessage.obj
 0001:00076e60       ??0KUiNewsMessage2@@AAE@XZ 00477e60 f   UiNewsMessage2.obj
 0001:00076f20       ?EnableIdleMsg@KUiNewsMessage2@@SAXH@Z 00477f20 f   UiNewsMessage2.obj
 0001:00076f8f       ?AddMessage@KUiNewsMessage2@@AAE_NPAUKNewsMessage@@II@Z 00477f8f f   UiNewsMessage2.obj
 0001:0007700c       ?SeparateMsg@KUiNewsMessage2@@AAEPAUKNewsMessageNode1@@XZ 0047800c f   UiNewsMessage2.obj
 0001:000770ad       ?AddToTail@KUiNewsMessage2@@AAEXPAUKNewsMessageNode1@@@Z 004780ad f   UiNewsMessage2.obj
 0001:00077105       ?Clear@KUiNewsMessage2@@AAEXXZ 00478105 f   UiNewsMessage2.obj
 0001:00077155       ?OpenWindow@KUiNewsMessage2@@SAPAV1@XZ 00478155 f   UiNewsMessage2.obj
 0001:0007721c       ?GetIfVisible@KUiNewsMessage2@@SAPAV1@XZ 0047821c f   UiNewsMessage2.obj
 0001:00077242       ?CloseWindow@KUiNewsMessage2@@SAXH@Z 00478242 f   UiNewsMessage2.obj
 0001:00077288       ?Initialize@KUiNewsMessage2@@AAEXXZ 00478288 f   UiNewsMessage2.obj
 0001:000772e8       ?LoadScheme@KUiNewsMessage2@@SAXPBD@Z 004782e8 f   UiNewsMessage2.obj
 0001:000775c1       ?PtInWindow@KUiNewsMessage2@@EAEHHH@Z 004785c1 f   UiNewsMessage2.obj
 0001:000775d0       ?MessageArrival@KUiNewsMessage2@@SAXPAUKNewsMessage@@PAU_SYSTEMTIME@@@Z 004785d0 f   UiNewsMessage2.obj
 0001:00077788       ?PaintWindow@KUiNewsMessage2@@EAEXXZ 00478788 f   UiNewsMessage2.obj
 0001:00077a27       ?PickAMessage@KUiNewsMessage2@@AAE_NXZ 00478a27 f   UiNewsMessage2.obj
 0001:00077bd9       ?PickFromIni@KUiNewsMessage2@@AAEXXZ 00478bd9 f   UiNewsMessage2.obj
 0001:00077ca0       ?Breathe@KUiNewsMessage2@@EAEXXZ 00478ca0 f   UiNewsMessage2.obj
 0001:00077d18       ?ConvertMsg@KUiNewsMessage2@@AAEXXZ 00478d18 f   UiNewsMessage2.obj
 0001:00077e1f       ?MakeCountingMsg@KUiNewsMessage2@@AAE_NXZ 00478e1f f   UiNewsMessage2.obj
 0001:000780af       ?Reset@KUiNewsMessage2@@AAEXXZ 004790af f   UiNewsMessage2.obj
 0001:00078132       ?ScrollMsg@KUiNewsMessage2@@AAE_NXZ 00479132 f   UiNewsMessage2.obj
 0001:00078470       ??_GKUiNewsMessage2@@EAEPAXI@Z 00479470 f i UiNewsMessage2.obj
 0001:00078470       ??_EKUiNewsMessage2@@EAEPAXI@Z 00479470 f i UiNewsMessage2.obj
 0001:000784a0       ??1KUiNewsMessage2@@EAE@XZ 004794a0 f i UiNewsMessage2.obj
 0001:00078500       ??0KUiNewsSysMsg@@AAE@XZ   00479500 f   UiNewsSysMsg.obj
 0001:00078533       ?AddMessage@KUiNewsSysMsg@@AAE_NPAUKNewsSysMsg@@@Z 00479533 f   UiNewsSysMsg.obj
 0001:000785b9       ?GetSystemMessageCount@KUiNewsSysMsg@@AAEHXZ 004795b9 f   UiNewsSysMsg.obj
 0001:000785c9       ?RemoveSystemMessage@KUiNewsSysMsg@@AAE_NH@Z 004795c9 f   UiNewsSysMsg.obj
 0001:0007867c       ?GetSystemMessage@KUiNewsSysMsg@@AAEPBUKNewsSysMsg@@H@Z 0047967c f   UiNewsSysMsg.obj
 0001:000786e0       ?OpenWindow@KUiNewsSysMsg@@SAPAV1@XZ 004796e0 f   UiNewsSysMsg.obj
 0001:00078794       ?GetIfVisible@KUiNewsSysMsg@@SAPAV1@XZ 00479794 f   UiNewsSysMsg.obj
 0001:000787ba       ?CloseWindow@KUiNewsSysMsg@@SAXH@Z 004797ba f   UiNewsSysMsg.obj
 0001:00078800       ?ClearAll@KUiNewsSysMsg@@AAEXXZ 00479800 f   UiNewsSysMsg.obj
 0001:00078838       ?Initialize@KUiNewsSysMsg@@AAEXXZ 00479838 f   UiNewsSysMsg.obj
 0001:0007887b       ?LoadScheme@KUiNewsSysMsg@@SAXPBD@Z 0047987b f   UiNewsSysMsg.obj
 0001:00078b21       ?PtInWindow@KUiNewsSysMsg@@EAEHHH@Z 00479b21 f   UiNewsSysMsg.obj
 0001:00078b30       ?MessageArrival@KUiNewsSysMsg@@SAXPBDG@Z 00479b30 f   UiNewsSysMsg.obj
 0001:00078bb8       ?PaintWindow@KUiNewsSysMsg@@EAEXXZ 00479bb8 f   UiNewsSysMsg.obj
 0001:00078d30       ??_EKUiNewsSysMsg@@EAEPAXI@Z 00479d30 f i UiNewsSysMsg.obj
 0001:00078d30       ??_GKUiNewsSysMsg@@EAEPAXI@Z 00479d30 f i UiNewsSysMsg.obj
 0001:00078d60       ??1KUiNewsSysMsg@@EAE@XZ   00479d60 f i UiNewsSysMsg.obj
 0001:00078e96       ??0KUiStrengthRank@@QAE@XZ 00479e96 f   UiStrengthRank.obj
 0001:00078f79       ??1KUiStrengthRank@@UAE@XZ 00479f79 f   UiStrengthRank.obj
 0001:0007904b       ?GetIfVisible@KUiStrengthRank@@SAPAV1@XZ 0047a04b f   UiStrengthRank.obj
 0001:00079071       ?OpenWindow@KUiStrengthRank@@SAPAV1@XZ 0047a071 f   UiStrengthRank.obj
 0001:00079132       ?OpenDefaultWindow@KUiStrengthRank@@SAPAV1@XZ 0047a132 f   UiStrengthRank.obj
 0001:000791fe       ?ArrangeDefaultData@KUiStrengthRank@@AAEXXZ 0047a1fe f   UiStrengthRank.obj
 0001:0007938c       ?Initialize@KUiStrengthRank@@AAEXXZ 0047a38c f   UiStrengthRank.obj
 0001:000795cd       ?CloseWindow@KUiStrengthRank@@SAX_N@Z 0047a5cd f   UiStrengthRank.obj
 0001:00079622       ?Breathe@KUiStrengthRank@@EAEXXZ 0047a622 f   UiStrengthRank.obj
 0001:00079694       ?WndProc@KUiStrengthRank@@EAEHIIH@Z 0047a694 f   UiStrengthRank.obj
 0001:00079814       ?LoadScheme@KUiStrengthRank@@SAXPBD@Z 0047a814 f   UiStrengthRank.obj
 0001:00079a78       ?ReleasePic@KUiStrengthRank@@AAEXXZ 0047aa78 f   UiStrengthRank.obj
 0001:00079ad6       ?ReleaseData@KUiStrengthRank@@AAEXXZ 0047aad6 f   UiStrengthRank.obj
 0001:00079b2b       ?UpdateRankData@KUiStrengthRank@@AAEXH@Z 0047ab2b f   UiStrengthRank.obj
 0001:00079c05       ?LoadIndexIni@KUiStrengthRank@@AAEHPAVKIniFile@@@Z 0047ac05 f   UiStrengthRank.obj
 0001:00079db6       ?LoadRankIni@KUiStrengthRank@@AAEHPAVKIniFile@@H@Z 0047adb6 f   UiStrengthRank.obj
 0001:00079f89       ?SendGetRankToCore@KUiStrengthRank@@AAEXH@Z 0047af89 f   UiStrengthRank.obj
 0001:00079fff       ?ConstructIndexView@KUiStrengthRank@@AAEXXZ 0047afff f   UiStrengthRank.obj
 0001:0007a078       ?ConstructRankView@KUiStrengthRank@@AAEXXZ 0047b078 f   UiStrengthRank.obj
 0001:0007a4e8       ?NewIndexArrive@KUiStrengthRank@@SAXIPAUKRankIndex@@_N@Z 0047b4e8 f   UiStrengthRank.obj
 0001:0007a59f       ?NewRankArrive@KUiStrengthRank@@SAXIPAUKRankMessage@@@Z 0047b59f f   UiStrengthRank.obj
 0001:0007a5c4       ?AddIndex@KUiStrengthRank@@CAXIPAUKRankIndex@@_N@Z 0047b5c4 f   UiStrengthRank.obj
 0001:0007a75a       ?AddRank@KUiStrengthRank@@CAXIPAUKRankMessage@@@Z 0047b75a f   UiStrengthRank.obj
 0001:0007a82c       ?StoreTempIni@KUiStrengthRank@@CAXXZ 0047b82c f   UiStrengthRank.obj
 0001:0007ab3a       ?StoreNewDataToTempFile@KUiStrengthRank@@CAXIPAUKRankIndex@@@Z 0047bb3a f   UiStrengthRank.obj
 0001:0007ad50       ?StoreNewDataToTempFile@KUiStrengthRank@@CAXIPAUKRankMessage@@@Z 0047bd50 f   UiStrengthRank.obj
 0001:0007aef1       ?AttachTempFile@KUiStrengthRank@@SAHXZ 0047bef1 f   UiStrengthRank.obj
 0001:0007afcc       ?RemoveTempFile@KUiStrengthRank@@SAXXZ 0047bfcc f   UiStrengthRank.obj
 0001:0007b01f       ?TDrawOutString@@YAHPADHHH@Z 0047c01f f   UiStrengthRank.obj
 0001:0007b0d0       ??_GKUiStrengthRank@@UAEPAXI@Z 0047c0d0 f i UiStrengthRank.obj
 0001:0007b0d0       ??_EKUiStrengthRank@@UAEPAXI@Z 0047c0d0 f i UiStrengthRank.obj
 0001:0007b100       ??0?$KLinkStruct@UKRankIndexNode@@@@QAE@XZ 0047c100 f i UiStrengthRank.obj
 0001:0007b140       ??1?$KLinkStruct@UKRankIndexNode@@@@UAE@XZ 0047c140 f i UiStrengthRank.obj
 0001:0007b160       ?GetCount@?$KLinkStruct@UKRankIndexNode@@@@QAEHXZ 0047c160 f i UiStrengthRank.obj
 0001:0007b180       ?AddItem@?$KLinkStruct@UKRankIndexNode@@@@QAEPAUKRankIndexNode@@U2@@Z 0047c180 f i UiStrengthRank.obj
 0001:0007b320       ?GetItem@?$KLinkStruct@UKRankIndexNode@@@@QAEPAUKRankIndexNode@@H@Z 0047c320 f i UiStrengthRank.obj
 0001:0007b3d0       ?NextItem@?$KLinkStruct@UKRankIndexNode@@@@QAEPAUKRankIndexNode@@XZ 0047c3d0 f i UiStrengthRank.obj
 0001:0007b400       ?Reset@?$KLinkStruct@UKRankIndexNode@@@@QAEPAUKRankIndexNode@@XZ 0047c400 f i UiStrengthRank.obj
 0001:0007b420       ?Clear@?$KLinkStruct@UKRankIndexNode@@@@QAEXXZ 0047c420 f i UiStrengthRank.obj
 0001:0007b470       ??0?$KLinkStruct@UKRankNode@@@@QAE@XZ 0047c470 f i UiStrengthRank.obj
 0001:0007b4b0       ??1?$KLinkStruct@UKRankNode@@@@UAE@XZ 0047c4b0 f i UiStrengthRank.obj
 0001:0007b4d0       ?GetCount@?$KLinkStruct@UKRankNode@@@@QAEHXZ 0047c4d0 f i UiStrengthRank.obj
 0001:0007b4f0       ?AddItem@?$KLinkStruct@UKRankNode@@@@QAEPAUKRankNode@@U2@@Z 0047c4f0 f i UiStrengthRank.obj
 0001:0007b690       ?NextItem@?$KLinkStruct@UKRankNode@@@@QAEPAUKRankNode@@XZ 0047c690 f i UiStrengthRank.obj
 0001:0007b6c0       ?Reset@?$KLinkStruct@UKRankNode@@@@QAEPAUKRankNode@@XZ 0047c6c0 f i UiStrengthRank.obj
 0001:0007b6e0       ?Clear@?$KLinkStruct@UKRankNode@@@@QAEXXZ 0047c6e0 f i UiStrengthRank.obj
 0001:0007b730       ??_E?$KLinkStruct@UKRankIndexNode@@@@UAEPAXI@Z 0047c730 f i UiStrengthRank.obj
 0001:0007b730       ??_G?$KLinkStruct@UKRankIndexNode@@@@UAEPAXI@Z 0047c730 f i UiStrengthRank.obj
 0001:0007b760       ??_E?$KLinkStruct@UKRankNode@@@@UAEPAXI@Z 0047c760 f i UiStrengthRank.obj
 0001:0007b760       ??_G?$KLinkStruct@UKRankNode@@@@UAEPAXI@Z 0047c760 f i UiStrengthRank.obj
 0001:0007b790       ?RemoveItem@?$KLinkStruct@UKRankIndexNode@@@@QAEHXZ 0047c790 f i UiStrengthRank.obj
 0001:0007b930       ?RemoveItem@?$KLinkStruct@UKRankNode@@@@QAEHXZ 0047c930 f i UiStrengthRank.obj
 0001:0007bad0       ??0KUiTongAssignBox@@QAE@XZ 0047cad0 f   UiTongAssignBox.obj
 0001:0007bbfa       ??1KUiTongAssignBox@@UAE@XZ 0047cbfa f   UiTongAssignBox.obj
 0001:0007bcf3       ?OpenWindow@KUiTongAssignBox@@SAPAV1@XZ 0047ccf3 f   UiTongAssignBox.obj
 0001:0007bdd0       ?GetIfVisible@KUiTongAssignBox@@SAPAV1@XZ 0047cdd0 f   UiTongAssignBox.obj
 0001:0007bdf6       ?CloseWindow@KUiTongAssignBox@@SAX_N@Z 0047cdf6 f   UiTongAssignBox.obj
 0001:0007be44       ?Initialize@KUiTongAssignBox@@AAEXXZ 0047ce44 f   UiTongAssignBox.obj
 0001:0007bf79       ?LoadScheme@KUiTongAssignBox@@SAXPBD@Z 0047cf79 f   UiTongAssignBox.obj
 0001:0007c386       ?WndProc@KUiTongAssignBox@@UAEHIIH@Z 0047d386 f   UiTongAssignBox.obj
 0001:0007c5a1       ?LinkToMainWindow@KUiTongAssignBox@@SAXPAVKWndWindow@@@Z 0047d5a1 f   UiTongAssignBox.obj
 0001:0007c5c3       ?ArrangeData@KUiTongAssignBox@@SAXHPAD0HH@Z 0047d5c3 f   UiTongAssignBox.obj
 0001:0007c89e       ?UpdateCheckButton@KUiTongAssignBox@@AAEXH@Z 0047d89e f   UiTongAssignBox.obj
 0001:0007caac       ?PopupConfirmWindow@KUiTongAssignBox@@AAEXPBDI@Z 0047daac f   UiTongAssignBox.obj
 0001:0007cb11       ?OnConfirm@KUiTongAssignBox@@AAEXXZ 0047db11 f   UiTongAssignBox.obj
 0001:0007cb70       ??_EKUiTongAssignBox@@UAEPAXI@Z 0047db70 f i UiTongAssignBox.obj
 0001:0007cb70       ??_GKUiTongAssignBox@@UAEPAXI@Z 0047db70 f i UiTongAssignBox.obj
 0001:0007cba0       ??0KUiTongCreateSheet@@QAE@XZ 0047dba0 f   UiTongCreateSheet.obj
 0001:0007ccd0       ??1KUiTongCreateSheet@@UAE@XZ 0047dcd0 f   UiTongCreateSheet.obj
 0001:0007cdc9       ?OpenWindow@KUiTongCreateSheet@@SAPAV1@XZ 0047ddc9 f   UiTongCreateSheet.obj
 0001:0007ce99       ?GetIfVisible@KUiTongCreateSheet@@SAPAV1@XZ 0047de99 f   UiTongCreateSheet.obj
 0001:0007cebf       ?CloseWindow@KUiTongCreateSheet@@SAX_N@Z 0047debf f   UiTongCreateSheet.obj
 0001:0007cf0d       ?Initialize@KUiTongCreateSheet@@AAEXXZ 0047df0d f   UiTongCreateSheet.obj
 0001:0007d042       ?LoadScheme@KUiTongCreateSheet@@SAXPBD@Z 0047e042 f   UiTongCreateSheet.obj
 0001:0007d326       ?LinkToMainWindow@KUiTongCreateSheet@@SAXPAVKWndWindow@@@Z 0047e326 f   UiTongCreateSheet.obj
 0001:0007d348       ?ArrangeData@KUiTongCreateSheet@@SAXPBDHI@Z 0047e348 f   UiTongCreateSheet.obj
 0001:0007d454       ?WndProc@KUiTongCreateSheet@@EAEHIIH@Z 0047e454 f   UiTongCreateSheet.obj
 0001:0007d544       ?AlignmentButtonCheck@KUiTongCreateSheet@@AAEXH@Z 0047e544 f   UiTongCreateSheet.obj
 0001:0007d5dd       ?OnDone@KUiTongCreateSheet@@AAEXXZ 0047e5dd f   UiTongCreateSheet.obj
 0001:0007da80       ??_EKUiTongCreateSheet@@UAEPAXI@Z 0047ea80 f i UiTongCreateSheet.obj
 0001:0007da80       ??_GKUiTongCreateSheet@@UAEPAXI@Z 0047ea80 f i UiTongCreateSheet.obj
 0001:0007dab0       ??0KUiTongGetString@@AAE@XZ 0047eab0 f   UiTongGetString.obj
 0001:0007db4d       ?OpenWindow@KUiTongGetString@@SAPAV1@_NPBD1PAVKWndWindow@@IHH@Z 0047eb4d f   UiTongGetString.obj
 0001:0007dcd7       ?CloseWindow@KUiTongGetString@@SAX_N@Z 0047ecd7 f   UiTongGetString.obj
 0001:0007dd37       ?GetIfVisible@KUiTongGetString@@SAPAV1@XZ 0047ed37 f   UiTongGetString.obj
 0001:0007dd5d       ?Show@KUiTongGetString@@AAEX_N@Z 0047ed5d f   UiTongGetString.obj
 0001:0007ddff       ?Hide@KUiTongGetString@@EAEXXZ 0047edff f   UiTongGetString.obj
 0001:0007de28       ?Initialize@KUiTongGetString@@AAEXXZ 0047ee28 f   UiTongGetString.obj
 0001:0007decf       ?LoadScheme@KUiTongGetString@@SAXPBD@Z 0047eecf f   UiTongGetString.obj
 0001:0007e020       ?WndProc@KUiTongGetString@@EAEHIIH@Z 0047f020 f   UiTongGetString.obj
 0001:0007e0c6       ?OnOk@KUiTongGetString@@AAEXXZ 0047f0c6 f   UiTongGetString.obj
 0001:0007e1c0       ?OnCancel@KUiTongGetString@@AAEXXZ 0047f1c0 f   UiTongGetString.obj
 0001:0007e210       ??_EKUiTongGetString@@EAEPAXI@Z 0047f210 f i UiTongGetString.obj
 0001:0007e210       ??_GKUiTongGetString@@EAEPAXI@Z 0047f210 f i UiTongGetString.obj
 0001:0007e240       ??1KUiTongGetString@@EAE@XZ 0047f240 f i UiTongGetString.obj
 0001:0007e2d0       ??0KUiTongManager@@QAE@XZ  0047f2d0 f   UiTongManager.obj
 0001:0007e6c6       ??1KUiTongManager@@UAE@XZ  0047f6c6 f   UiTongManager.obj
 0001:0007ea3d       ?OpenWindow@KUiTongManager@@SAPAV1@XZ 0047fa3d f   UiTongManager.obj
 0001:0007eb0b       ?OpenWindow@KUiTongManager@@SAPAV1@PAD@Z 0047fb0b f   UiTongManager.obj
 0001:0007eb32       ?ArrangeComposition@KUiTongManager@@QAEXPAD@Z 0047fb32 f   UiTongManager.obj
 0001:0007ec66       ?GetIfVisible@KUiTongManager@@SAPAV1@XZ 0047fc66 f   UiTongManager.obj
 0001:0007ec8c       ?CloseWindow@KUiTongManager@@SAX_N@Z 0047fc8c f   UiTongManager.obj
 0001:0007eccb       ?Initialize@KUiTongManager@@AAEXXZ 0047fccb f   UiTongManager.obj
 0001:0007f0cd       ?LoadScheme@KUiTongManager@@SAXPBD@Z 004800cd f   UiTongManager.obj
 0001:0007fabd       ?WndProc@KUiTongManager@@UAEHIIH@Z 00480abd f   UiTongManager.obj
 0001:00080671       ?OnCheckInput@KUiTongManager@@AAEXXZ 00481671 f   UiTongManager.obj
 0001:00080702       ?UpdateBtnTheme@KUiTongManager@@AAEXHH@Z 00481702 f   UiTongManager.obj
 0001:00080d4d       ?UpdateTongInfoView@KUiTongManager@@AAEXXZ 00481d4d f   UiTongManager.obj
 0001:000810d0       ?UpdateTongListView@KUiTongManager@@AAEXXZ 004820d0 f   UiTongManager.obj
 0001:000814bd       ?GetCurrentSelectedData@KUiTongManager@@AAEPAV?$KLinkStruct@UKPilgarlicItem@@@@XZ 004824bd f   UiTongManager.obj
 0001:0008150a       ?GetSelectedPlayer@KUiTongManager@@AAEPAUKPilgarlicItem@@XZ 0048250a f   UiTongManager.obj
 0001:0008154e       ?UpdateListCheckButton@KUiTongManager@@AAEXH@Z 0048254e f   UiTongManager.obj
 0001:0008161c       ?UpdatePageofList@KUiTongManager@@AAEXXZ 0048261c f   UiTongManager.obj
 0001:000817e5       ?ClearTongData@KUiTongManager@@AAEXXZ 004827e5 f   UiTongManager.obj
 0001:000818ce       ?PopupConfirmWindow@KUiTongManager@@AAEXPBDI@Z 004828ce f   UiTongManager.obj
 0001:00081a03       ?OpenJiyuPopup@KUiTongManager@@AAEXH@Z 00482a03 f   UiTongManager.obj
 0001:00081bfe       ?NewDataArrive@KUiTongManager@@SAXPAUKUiGameObjectWithName@@PAUKTongMemberItem@@@Z 00482bfe f   UiTongManager.obj
 0001:00081da9       ?IsPlayerExist@KUiTongManager@@CAHPAUKPilgarlicItem@@PAV?$KLinkStruct@UKPilgarlicItem@@@@@Z 00482da9 f   UiTongManager.obj
 0001:00081e0a       ?TongInfoArrive@KUiTongManager@@SAXPAUKUiPlayerRelationWithOther@@PAUKTongInfo@@@Z 00482e0a f   UiTongManager.obj
 0001:00081f3a       ?SaveNewData@KUiTongManager@@CAXPAUKUiGameObjectWithName@@PAUKTongMemberItem@@@Z 00482f3a f   UiTongManager.obj
 0001:000821eb       ?SaveWholeData@KUiTongManager@@CAXH@Z 004831eb f   UiTongManager.obj
 0001:0008245c       ?LoadData@KUiTongManager@@AAEXH@Z 0048345c f   UiTongManager.obj
 0001:000825b0       ?LoadDataHandler@KUiTongManager@@AAEHPAV?$KLinkStruct@UKPilgarlicItem@@@@PBD@Z 004835b0 f   UiTongManager.obj
 0001:00082823       ?RequestData@KUiTongManager@@CAXHH@Z 00483823 f   UiTongManager.obj
 0001:0008286c       ?RemoveTempFile@KUiTongManager@@SAHXZ 0048386c f   UiTongManager.obj
 0001:000828c5       ?OnAction@KUiTongManager@@AAEXH@Z 004838c5 f   UiTongManager.obj
 0001:00082a17       ?OnRefresh@KUiTongManager@@AAEXXZ 00483a17 f   UiTongManager.obj
 0001:00082c02       ?ResponseResult@KUiTongManager@@SAXPAUKUiGameObjectWithName@@H@Z 00483c02 f   UiTongManager.obj
 0001:00082cb6       ?ResponseLeave@KUiTongManager@@AAEXPAUKUiGameObjectWithName@@H@Z 00483cb6 f   UiTongManager.obj
 0001:00082cd8       ?ResponseDismiss@KUiTongManager@@AAEXPAUKUiGameObjectWithName@@H@Z 00483cd8 f   UiTongManager.obj
 0001:00082d59       ?ResponseDemise@KUiTongManager@@AAEXPAUKUiGameObjectWithName@@H@Z 00483d59 f   UiTongManager.obj
 0001:00082d7b       ?ResponseAssign@KUiTongManager@@AAEXPAUKUiGameObjectWithName@@H@Z 00483d7b f   UiTongManager.obj
 0001:00082eb3       ?ResponseApply@KUiTongManager@@AAEXPAUKUiGameObjectWithName@@H@Z 00483eb3 f   UiTongManager.obj
 0001:00082f6c       ?FindPlayer@KUiTongManager@@AAEPAV?$KLinkStruct@UKPilgarlicItem@@@@PAD@Z 00483f6c f   UiTongManager.obj
 0001:00082feb       ?HandleFind@KUiTongManager@@AAEPAV?$KLinkStruct@UKPilgarlicItem@@@@PAV2@PAD@Z 00483feb f   UiTongManager.obj
 0001:00083079       ?OnMoney@KUiTongManager@@AAEXHHH@Z 00484079 f   UiTongManager.obj
 0001:000830d3       ?StringToHash@@YAKPBDH@Z   004840d3 f   UiTongManager.obj
 0001:000831d0       ??_EKUiTongManager@@UAEPAXI@Z 004841d0 f i UiTongManager.obj
 0001:000831d0       ??_GKUiTongManager@@UAEPAXI@Z 004841d0 f i UiTongManager.obj
 0001:00083200       ?GetCount@KWndList2@@QAEHXZ 00484200 f i UiTongManager.obj
 0001:00083220       ??0?$KLinkStruct@UKPilgarlicItem@@@@QAE@XZ 00484220 f i UiTongManager.obj
 0001:00083260       ??1?$KLinkStruct@UKPilgarlicItem@@@@UAE@XZ 00484260 f i UiTongManager.obj
 0001:00083280       ?GetCount@?$KLinkStruct@UKPilgarlicItem@@@@QAEHXZ 00484280 f i UiTongManager.obj
 0001:000832a0       ?AddItem@?$KLinkStruct@UKPilgarlicItem@@@@QAEPAUKPilgarlicItem@@U2@@Z 004842a0 f i UiTongManager.obj
 0001:00083420       ?GetItem@?$KLinkStruct@UKPilgarlicItem@@@@QAEPAUKPilgarlicItem@@H@Z 00484420 f i UiTongManager.obj
 0001:000834d0       ?Current@?$KLinkStruct@UKPilgarlicItem@@@@QAEPAUKPilgarlicItem@@XZ 004844d0 f i UiTongManager.obj
 0001:000834f0       ?RemoveItem@?$KLinkStruct@UKPilgarlicItem@@@@QAEHXZ 004844f0 f i UiTongManager.obj
 0001:00083680       ?NextItem@?$KLinkStruct@UKPilgarlicItem@@@@QAEPAUKPilgarlicItem@@XZ 00484680 f i UiTongManager.obj
 0001:000836b0       ?Reset@?$KLinkStruct@UKPilgarlicItem@@@@QAEPAUKPilgarlicItem@@XZ 004846b0 f i UiTongManager.obj
 0001:000836d0       ?Begin@?$KLinkStruct@UKPilgarlicItem@@@@QAEPAUKPilgarlicItem@@XZ 004846d0 f i UiTongManager.obj
 0001:000836f0       ?Clear@?$KLinkStruct@UKPilgarlicItem@@@@QAEXXZ 004846f0 f i UiTongManager.obj
 0001:00083740       ??_G?$KLinkStruct@UKPilgarlicItem@@@@UAEPAXI@Z 00484740 f i UiTongManager.obj
 0001:00083740       ??_E?$KLinkStruct@UKPilgarlicItem@@@@UAEPAXI@Z 00484740 f i UiTongManager.obj
 0001:00083770       ??0KUiEnchase@@AAE@XZ      00484770 f   UiEnchase.obj
 0001:0008388b       ??1KUiEnchase@@EAE@XZ      0048488b f   UiEnchase.obj
 0001:00083996       ?OpenWindow@KUiEnchase@@SAPAV1@XZ 00484996 f   UiEnchase.obj
 0001:00083a79       ?CloseWindow@KUiEnchase@@SAX_N@Z 00484a79 f   UiEnchase.obj
 0001:00083ad4       ?GetIfVisible@KUiEnchase@@SAPAV1@XZ 00484ad4 f   UiEnchase.obj
 0001:00083afa       ?LoadScheme@KUiEnchase@@SAXPBD@Z 00484afa f   UiEnchase.obj
 0001:00083c99       ?Initialize@KUiEnchase@@AAEXXZ 00484c99 f   UiEnchase.obj
 0001:00084035       ?WndProc@KUiEnchase@@EAEHIIH@Z 00485035 f   UiEnchase.obj
 0001:00084149       ?UpdateItemObjBox@KUiEnchase@@SAXPAUKUiObjAtRegion@@H@Z 00485149 f   UiEnchase.obj
 0001:00084219       ?UpdateItemMatrixBox@KUiEnchase@@SAXPAUKUiObjAtRegion@@H@Z 00485219 f   UiEnchase.obj
 0001:0008427a       ?Breathe@KUiEnchase@@EAEXXZ 0048527a f   UiEnchase.obj
 0001:0008433f       ??0KUiEnchase_Upgrade@@QAE@XZ 0048533f f   UiEnchase.obj
 0001:00084432       ??1KUiEnchase_Upgrade@@UAE@XZ 00485432 f   UiEnchase.obj
 0001:00084511       ?OpenWindow@KUiEnchase_Upgrade@@SAPAV1@XZ 00485511 f   UiEnchase.obj
 0001:000845f1       ?GetIfVisible@KUiEnchase_Upgrade@@SAPAV1@XZ 004855f1 f   UiEnchase.obj
 0001:00084617       ?CloseWindow@KUiEnchase_Upgrade@@SAX_N@Z 00485617 f   UiEnchase.obj
 0001:00084656       ?Show@KUiEnchase_Upgrade@@UAEXXZ 00485656 f   UiEnchase.obj
 0001:000846da       ?Hide@KUiEnchase_Upgrade@@UAEXXZ 004856da f   UiEnchase.obj
 0001:000846ed       ?Initialize@KUiEnchase_Upgrade@@QAEXXZ 004856ed f   UiEnchase.obj
 0001:0008490c       ?LoadScheme@KUiEnchase_Upgrade@@QAEXPBD@Z 0048590c f   UiEnchase.obj
 0001:00084cfd       ?WndProc@KUiEnchase_Upgrade@@EAEHIIH@Z 00485cfd f   UiEnchase.obj
 0001:00084e04       ?UpdateDataObjBox@KUiEnchase_Upgrade@@QAEXXZ 00485e04 f   UiEnchase.obj
 0001:00084e9a       ?UpdateItemObjBox@KUiEnchase_Upgrade@@QAEXPAUKUiObjAtRegion@@H@Z 00485e9a f   UiEnchase.obj
 0001:00084f40       ?OnItemPickDrop@KUiEnchase_Upgrade@@AAEXPAUITEM_PICKDROP_PLACE@@0@Z 00485f40 f   UiEnchase.obj
 0001:00085068       ?Breathe@KUiEnchase_Upgrade@@UAEXXZ 00486068 f   UiEnchase.obj
 0001:00085181       ?PlayEffect@KUiEnchase_Upgrade@@AAEHXZ 00486181 f   UiEnchase.obj
 0001:000851c6       ?GetMaxFrame@KGetFarmImage_Upgrade@@QAEHXZ 004861c6 f   UiEnchase.obj
 0001:000851da       ?GetCurrentFrame@KGetFarmImage_Upgrade@@QAEHXZ 004861da f   UiEnchase.obj
 0001:000851ef       ??0KUiEnchase_Compound@@QAE@XZ 004861ef f   UiEnchase.obj
 0001:00085318       ??1KUiEnchase_Compound@@UAE@XZ 00486318 f   UiEnchase.obj
 0001:0008542d       ?OpenWindow@KUiEnchase_Compound@@SAPAV1@XZ 0048642d f   UiEnchase.obj
 0001:000854fd       ?GetIfVisible@KUiEnchase_Compound@@SAPAV1@XZ 004864fd f   UiEnchase.obj
 0001:00085523       ?CloseWindow@KUiEnchase_Compound@@SAX_N@Z 00486523 f   UiEnchase.obj
 0001:00085562       ?Show@KUiEnchase_Compound@@UAEXXZ 00486562 f   UiEnchase.obj
 0001:0008558c       ?Hide@KUiEnchase_Compound@@UAEXXZ 0048658c f   UiEnchase.obj
 0001:0008559f       ?Initialize@KUiEnchase_Compound@@QAEXXZ 0048659f f   UiEnchase.obj
 0001:00085852       ?LoadScheme@KUiEnchase_Compound@@QAEXPBD@Z 00486852 f   UiEnchase.obj
 0001:00085d91       ?WndProc@KUiEnchase_Compound@@EAEHIIH@Z 00486d91 f   UiEnchase.obj
 0001:00085fae       ?UpdateData@KUiEnchase_Compound@@EAEXXZ 00486fae f   UiEnchase.obj
 0001:00086044       ?UpdateItemObjBox@KUiEnchase_Compound@@QAEXPAUKUiObjAtRegion@@H@Z 00487044 f   UiEnchase.obj
 0001:000860ea       ?OnItemPickDrop@KUiEnchase_Compound@@AAEXPAUITEM_PICKDROP_PLACE@@0@Z 004870ea f   UiEnchase.obj
 0001:00086212       ?PopUp@KUiEnchase_Compound@@QAEXXZ 00487212 f   UiEnchase.obj
 0001:0008632f       ?ApplyShow@KUiEnchase_Compound@@QAEXH@Z 0048732f f   UiEnchase.obj
 0001:000865ef       ?Breathe@KUiEnchase_Compound@@UAEXXZ 004875ef f   UiEnchase.obj
 0001:00086817       ?PlayEffect@KUiEnchase_Compound@@AAEHXZ 00487817 f   UiEnchase.obj
 0001:00086930       ?GetMaxFrame@KGetFrameImage_Compound@@QAEHXZ 00487930 f   UiEnchase.obj
 0001:00086944       ?GetCurrentFrame@KGetFrameImage_Compound@@QAEHXZ 00487944 f   UiEnchase.obj
 0001:00086959       ??0KUiEnchase_Distill@@QAE@XZ 00487959 f   UiEnchase.obj
 0001:00086a94       ??1KUiEnchase_Distill@@UAE@XZ 00487a94 f   UiEnchase.obj
 0001:00086bbb       ?OpenWindow@KUiEnchase_Distill@@SAPAV1@XZ 00487bbb f   UiEnchase.obj
 0001:00086ca1       ?GetIfVisible@KUiEnchase_Distill@@SAPAV1@XZ 00487ca1 f   UiEnchase.obj
 0001:00086cc7       ?CloseWindow@KUiEnchase_Distill@@SAX_N@Z 00487cc7 f   UiEnchase.obj
 0001:00086d06       ?Show@KUiEnchase_Distill@@UAEXXZ 00487d06 f   UiEnchase.obj
 0001:00086d8a       ?Hide@KUiEnchase_Distill@@UAEXXZ 00487d8a f   UiEnchase.obj
 0001:00086d9d       ?Initialize@KUiEnchase_Distill@@QAEXXZ 00487d9d f   UiEnchase.obj
 0001:00087077       ?LoadScheme@KUiEnchase_Distill@@QAEXPBD@Z 00488077 f   UiEnchase.obj
 0001:000876c9       ?WndProc@KUiEnchase_Distill@@EAEHIIH@Z 004886c9 f   UiEnchase.obj
 0001:000877d0       ?UpdateDataObjBox@KUiEnchase_Distill@@QAEXXZ 004887d0 f   UiEnchase.obj
 0001:00087866       ?UpdateItemObjBox@KUiEnchase_Distill@@QAEXPAUKUiObjAtRegion@@H@Z 00488866 f   UiEnchase.obj
 0001:0008790c       ?UpdateDataMatrixBox@KUiEnchase_Distill@@QAEXXZ 0048890c f   UiEnchase.obj
 0001:000879c8       ?UpdateItemMatrixBox@KUiEnchase_Distill@@QAEXPAUKUiObjAtRegion@@H@Z 004889c8 f   UiEnchase.obj
 0001:00087a5c       ?OnItemPickDrop@KUiEnchase_Distill@@AAEXPAUITEM_PICKDROP_PLACE@@0@Z 00488a5c f   UiEnchase.obj
 0001:00087c39       ?Breathe@KUiEnchase_Distill@@UAEXXZ 00488c39 f   UiEnchase.obj
 0001:00087dd6       ?PlayEffect@KUiEnchase_Distill@@AAEHXZ 00488dd6 f   UiEnchase.obj
 0001:00087e4c       ?GetMaxFrame@KGetFarmImage_Distill@@QAEHXZ 00488e4c f   UiEnchase.obj
 0001:00087e60       ?GetCurrentFrame@KGetFarmImage_Distill@@QAEHXZ 00488e60 f   UiEnchase.obj
 0001:00087e75       ??0KUiEnchase_Forge@@QAE@XZ 00488e75 f   UiEnchase.obj
 0001:00087f68       ??1KUiEnchase_Forge@@UAE@XZ 00488f68 f   UiEnchase.obj
 0001:00088047       ?OpenWindow@KUiEnchase_Forge@@SAPAV1@XZ 00489047 f   UiEnchase.obj
 0001:00088127       ?GetIfVisible@KUiEnchase_Forge@@SAPAV1@XZ 00489127 f   UiEnchase.obj
 0001:0008814d       ?CloseWindow@KUiEnchase_Forge@@SAX_N@Z 0048914d f   UiEnchase.obj
 0001:0008818c       ?Show@KUiEnchase_Forge@@UAEXXZ 0048918c f   UiEnchase.obj
 0001:00088213       ?Hide@KUiEnchase_Forge@@UAEXXZ 00489213 f   UiEnchase.obj
 0001:00088226       ?Initialize@KUiEnchase_Forge@@QAEXXZ 00489226 f   UiEnchase.obj
 0001:00088426       ?LoadScheme@KUiEnchase_Forge@@QAEXPBD@Z 00489426 f   UiEnchase.obj
 0001:00088817       ?WndProc@KUiEnchase_Forge@@EAEHIIH@Z 00489817 f   UiEnchase.obj
 0001:0008891e       ?UpdateData@KUiEnchase_Forge@@UAEXXZ 0048991e f   UiEnchase.obj
 0001:000889b4       ?UpdateItemObjBox@KUiEnchase_Forge@@QAEXPAUKUiObjAtRegion@@H@Z 004899b4 f   UiEnchase.obj
 0001:00088a5a       ?OnItemPickDrop@KUiEnchase_Forge@@AAEXPAUITEM_PICKDROP_PLACE@@0@Z 00489a5a f   UiEnchase.obj
 0001:00088b82       ?Breathe@KUiEnchase_Forge@@UAEXXZ 00489b82 f   UiEnchase.obj
 0001:00088c9b       ?PlayEffect@KUiEnchase_Forge@@AAEHXZ 00489c9b f   UiEnchase.obj
 0001:00088ce0       ?GetMaxFrame@KGetFarmImage_Forge@@QAEHXZ 00489ce0 f   UiEnchase.obj
 0001:00088cf4       ?GetCurrentFrame@KGetFarmImage_Forge@@QAEHXZ 00489cf4 f   UiEnchase.obj
 0001:00088d09       ??0KUiEnchase_Enchase@@QAE@XZ 00489d09 f   UiEnchase.obj
 0001:00088e44       ??1KUiEnchase_Enchase@@UAE@XZ 00489e44 f   UiEnchase.obj
 0001:00088f6b       ?OpenWindow@KUiEnchase_Enchase@@SAPAV1@XZ 00489f6b f   UiEnchase.obj
 0001:0008904b       ?GetIfVisible@KUiEnchase_Enchase@@SAPAV1@XZ 0048a04b f   UiEnchase.obj
 0001:00089071       ?CloseWindow@KUiEnchase_Enchase@@SAX_N@Z 0048a071 f   UiEnchase.obj
 0001:000890b0       ?Show@KUiEnchase_Enchase@@UAEXXZ 0048a0b0 f   UiEnchase.obj
 0001:00089134       ?Hide@KUiEnchase_Enchase@@UAEXXZ 0048a134 f   UiEnchase.obj
 0001:00089147       ?Initialize@KUiEnchase_Enchase@@QAEXXZ 0048a147 f   UiEnchase.obj
 0001:00089421       ?LoadScheme@KUiEnchase_Enchase@@QAEXPBD@Z 0048a421 f   UiEnchase.obj
 0001:00089a73       ?WndProc@KUiEnchase_Enchase@@EAEHIIH@Z 0048aa73 f   UiEnchase.obj
 0001:00089b7a       ?UpdateDataObjBox@KUiEnchase_Enchase@@QAEXXZ 0048ab7a f   UiEnchase.obj
 0001:00089c10       ?UpdateItemObjBox@KUiEnchase_Enchase@@QAEXPAUKUiObjAtRegion@@H@Z 0048ac10 f   UiEnchase.obj
 0001:00089cb6       ?UpdateDataMatrixBox@KUiEnchase_Enchase@@QAEXXZ 0048acb6 f   UiEnchase.obj
 0001:00089d72       ?UpdateItemMatrixBox@KUiEnchase_Enchase@@QAEXPAUKUiObjAtRegion@@H@Z 0048ad72 f   UiEnchase.obj
 0001:00089e06       ?OnItemPickDrop@KUiEnchase_Enchase@@AAEXPAUITEM_PICKDROP_PLACE@@0@Z 0048ae06 f   UiEnchase.obj
 0001:00089fe3       ?Breathe@KUiEnchase_Enchase@@UAEXXZ 0048afe3 f   UiEnchase.obj
 0001:0008a180       ?PlayEffect@KUiEnchase_Enchase@@AAEHXZ 0048b180 f   UiEnchase.obj
 0001:0008a1f6       ?GetMaxFrame@KGetFarmImage_Enchase@@QAEHXZ 0048b1f6 f   UiEnchase.obj
 0001:0008a20a       ?GetCurrentFrame@KGetFarmImage_Enchase@@QAEHXZ 0048b20a f   UiEnchase.obj
 0001:0008a220       ??_GKUiEnchase@@EAEPAXI@Z  0048b220 f i UiEnchase.obj
 0001:0008a220       ??_EKUiEnchase@@EAEPAXI@Z  0048b220 f i UiEnchase.obj
 0001:0008a250       ??_GKUiEnchase_Upgrade@@UAEPAXI@Z 0048b250 f i UiEnchase.obj
 0001:0008a250       ??_EKUiEnchase_Upgrade@@UAEPAXI@Z 0048b250 f i UiEnchase.obj
 0001:0008a280       ??0KGetFarmImage_Upgrade@@QAE@XZ 0048b280 f i UiEnchase.obj
 0001:0008a2a0       ??1KGetFarmImage_Upgrade@@UAE@XZ 0048b2a0 f i UiEnchase.obj
 0001:0008a2c0       ??_GKGetFarmImage_Upgrade@@UAEPAXI@Z 0048b2c0 f i UiEnchase.obj
 0001:0008a2c0       ??_EKGetFarmImage_Upgrade@@UAEPAXI@Z 0048b2c0 f i UiEnchase.obj
 0001:0008a2f0       ??_GKUiEnchase_Compound@@UAEPAXI@Z 0048b2f0 f i UiEnchase.obj
 0001:0008a2f0       ??_EKUiEnchase_Compound@@UAEPAXI@Z 0048b2f0 f i UiEnchase.obj
 0001:0008a320       ??0KGetFrameImage_Compound@@QAE@XZ 0048b320 f i UiEnchase.obj
 0001:0008a340       ??1KGetFrameImage_Compound@@UAE@XZ 0048b340 f i UiEnchase.obj
 0001:0008a360       ??_GKGetFrameImage_Compound@@UAEPAXI@Z 0048b360 f i UiEnchase.obj
 0001:0008a360       ??_EKGetFrameImage_Compound@@UAEPAXI@Z 0048b360 f i UiEnchase.obj
 0001:0008a390       ??_EKUiEnchase_Distill@@UAEPAXI@Z 0048b390 f i UiEnchase.obj
 0001:0008a390       ??_GKUiEnchase_Distill@@UAEPAXI@Z 0048b390 f i UiEnchase.obj
 0001:0008a3c0       ??0KGetFarmImage_Distill@@QAE@XZ 0048b3c0 f i UiEnchase.obj
 0001:0008a3e0       ??1KGetFarmImage_Distill@@UAE@XZ 0048b3e0 f i UiEnchase.obj
 0001:0008a400       ??_GKGetFarmImage_Distill@@UAEPAXI@Z 0048b400 f i UiEnchase.obj
 0001:0008a400       ??_EKGetFarmImage_Distill@@UAEPAXI@Z 0048b400 f i UiEnchase.obj
 0001:0008a430       ??_EKUiEnchase_Forge@@UAEPAXI@Z 0048b430 f i UiEnchase.obj
 0001:0008a430       ??_GKUiEnchase_Forge@@UAEPAXI@Z 0048b430 f i UiEnchase.obj
 0001:0008a460       ??0KGetFarmImage_Forge@@QAE@XZ 0048b460 f i UiEnchase.obj
 0001:0008a480       ??1KGetFarmImage_Forge@@UAE@XZ 0048b480 f i UiEnchase.obj
 0001:0008a4a0       ??_GKGetFarmImage_Forge@@UAEPAXI@Z 0048b4a0 f i UiEnchase.obj
 0001:0008a4a0       ??_EKGetFarmImage_Forge@@UAEPAXI@Z 0048b4a0 f i UiEnchase.obj
 0001:0008a4d0       ??_GKUiEnchase_Enchase@@UAEPAXI@Z 0048b4d0 f i UiEnchase.obj
 0001:0008a4d0       ??_EKUiEnchase_Enchase@@UAEPAXI@Z 0048b4d0 f i UiEnchase.obj
 0001:0008a500       ??0KGetFarmImage_Enchase@@QAE@XZ 0048b500 f i UiEnchase.obj
 0001:0008a520       ??1KGetFarmImage_Enchase@@UAE@XZ 0048b520 f i UiEnchase.obj
 0001:0008a540       ??_EKGetFarmImage_Enchase@@UAEPAXI@Z 0048b540 f i UiEnchase.obj
 0001:0008a540       ??_GKGetFarmImage_Enchase@@UAEPAXI@Z 0048b540 f i UiEnchase.obj
 0001:0008a570       ?UiSoundLoadSetting@@YA_NXZ 0048b570 f   UiSoundSetting.obj
 0001:0008a63d       ?UiSoundPlay@@YAXW4UI_SOUND_INDEX@@@Z 0048b63d f   UiSoundSetting.obj
 0001:0008a66c       ?UiSoundPlay@@YAXPAD@Z     0048b66c f   UiSoundSetting.obj
 0001:0008a6a0       ?CoreDataChangedCallback@@YAXIIH@Z 0048b6a0 f   GameSpaceChangedNotify.obj
 0001:0008b312       ?CoreDataChanged@KClientCallback@@UAEXIIH@Z 0048c312 f   GameSpaceChangedNotify.obj
 0001:0008b398       ?ClearBlackList@@YAXXZ     0048c398 f   GameSpaceChangedNotify.obj
 0001:0008b3a7       ?CreateBlackListUnit@@YAXXZ 0048c3a7 f   GameSpaceChangedNotify.obj
 0001:0008b3c3       ?AddBlackList@@YAXPBD0@Z   0048c3c3 f   GameSpaceChangedNotify.obj
 0001:0008b484       ?RemoveBlackList@@YAXPAD@Z 0048c484 f   GameSpaceChangedNotify.obj
 0001:0008b55e       ?IsInBlackName@@YA_NPAD@Z  0048c55e f   GameSpaceChangedNotify.obj
 0001:0008b5f1       ?SaveBlackListPrivateSetting@@YAHPAVKIniFile@@PBDH@Z 0048c5f1 f   GameSpaceChangedNotify.obj
 0001:0008b6ef       ?RenameUnitGroup@BlacklistNotify@@UAEHPBD00ABV?$list@V?$basic_string@DU?$char_traits@D@std@@V?$allocator@D@2@@std@@V?$allocator@V?$basic_string@DU?$char_traits@D@std@@V?$allocator@D@2@@std@@@2@@std@@@Z 0048c6ef f   GameSpaceChangedNotify.obj
 0001:0008b78c       ?MoveUnitGroup@BlacklistNotify@@UAEHPBD00ABV?$list@V?$basic_string@DU?$char_traits@D@std@@V?$allocator@D@2@@std@@V?$allocator@V?$basic_string@DU?$char_traits@D@std@@V?$allocator@D@2@@std@@@2@@std@@@Z 0048c78c f   GameSpaceChangedNotify.obj
 0001:0008b829       ?DeleteUnitGroup@BlacklistNotify@@UAEHPBD0ABV?$list@V?$basic_string@DU?$char_traits@D@std@@V?$allocator@D@2@@std@@V?$allocator@V?$basic_string@DU?$char_traits@D@std@@V?$allocator@D@2@@std@@@2@@std@@@Z 0048c829 f   GameSpaceChangedNotify.obj
 0001:0008b8ba       ?DeleteUnitMember@BlacklistNotify@@UAEHPBD0@Z 0048c8ba f   GameSpaceChangedNotify.obj
 0001:0008b8e9       ?MoveUnitMember@BlacklistNotify@@UAEHPBD00@Z 0048c8e9 f   GameSpaceChangedNotify.obj
 0001:0008b9cb       ?SendNotifyGroupFriend@BlacklistNotify@@QAEXPBDABV?$basic_string@DU?$char_traits@D@std@@V?$allocator@D@2@@std@@ABV?$list@V?$basic_string@DU?$char_traits@D@std@@V?$allocator@D@2@@std@@V?$allocator@V?$basic_string@DU?$char_traits@D@std@@V?$allocator@D@2@@std@@@2@@3@@Z 0048c9cb f   GameSpaceChangedNotify.obj
 0001:0008ba4d       ?SendNotifyDeleteFriend@BlacklistNotify@@QAEXPBD0@Z 0048ca4d f   GameSpaceChangedNotify.obj
 0001:0008ba7b       ?ChannelMessageArrival@KClientCallback@@UAEXKPADPBDG1E_N@Z 0048ca7b f   GameSpaceChangedNotify.obj
 0001:0008bf01       ?MSNMessageArrival@KClientCallback@@UAEXPAD0PBDG1_N@Z 0048cf01 f   GameSpaceChangedNotify.obj
 0001:0008bfa0       ?NotifyChannelID@KClientCallback@@UAEXPADKE@Z 0048cfa0 f   GameSpaceChangedNotify.obj
 0001:0008bfc1       ?FriendInvite@KClientCallback@@UAEXPAD@Z 0048cfc1 f   GameSpaceChangedNotify.obj
 0001:0008c051       ?AddFriend@KClientCallback@@UAEXPADE@Z 0048d051 f   GameSpaceChangedNotify.obj
 0001:0008c20f       ?DeleteFriend@KClientCallback@@UAEXPAD@Z 0048d20f f   GameSpaceChangedNotify.obj
 0001:0008c29f       ?FriendStatus@KClientCallback@@UAEXPADE@Z 0048d29f f   GameSpaceChangedNotify.obj
 0001:0008c3fc       ?FriendInfo@KClientCallback@@UAEXPAD00E@Z 0048d3fc f   GameSpaceChangedNotify.obj
 0001:0008c4b0       ?AddPeople@KClientCallback@@UAEXPAD0@Z 0048d4b0 f   GameSpaceChangedNotify.obj
 0001:0008c540       ?LevelTips@@YAXH@Z         0048d540 f   GameSpaceChangedNotify.obj
 0001:0008c61b       ?FactionTips@@YAXH@Z       0048d61b f   GameSpaceChangedNotify.obj
 0001:0008c70c       ?GameWorldTips@@YAXIH@Z    0048d70c f   GameSpaceChangedNotify.obj
 0001:0008c740       ??0BlacklistNotify@@QAE@XZ 0048d740 f i GameSpaceChangedNotify.obj
 0001:0008c760       ?size@?$map@V?$basic_string@DU?$char_traits@D@std@@V?$allocator@D@2@@std@@V12@U?$less@V?$basic_string@DU?$char_traits@D@std@@V?$allocator@D@2@@std@@@2@V?$allocator@V?$basic_string@DU?$char_traits@D@std@@V?$allocator@D@2@@std@@@2@@std@@QBEIXZ 0048d760 f i GameSpaceChangedNotify.obj
 0001:0008c847       ?HandleKeyInput@KShortcutKeyCentre@@SAHIH@Z 0048d847 f   ShortcutKey.obj
 0001:0008c896       ?HandleMouseInput@KShortcutKeyCentre@@SAHIHHH@Z 0048d896 f   ShortcutKey.obj
 0001:0008c91f       ?Enable@KShortcutKeyCentre@@SAX_N@Z 0048d91f f   ShortcutKey.obj
 0001:0008c92c       ?FindWindowA@@YAHPBD@Z     0048d92c f   ShortcutKey.obj
 0001:0008c972       ?LuaOpenWindow@@YAHPAUlua_State@@@Z 0048d972 f   ShortcutKey.obj
 0001:0008cc43       ?FindWndWindow@@YAPAVKWndWindow@@PBD@Z 0048dc43 f   ShortcutKey.obj
 0001:0008ccd0       ?LuaMoveWindow@@YAHPAUlua_State@@@Z 0048dcd0 f   ShortcutKey.obj
 0001:0008cd57       ?LuaSizeWindow@@YAHPAUlua_State@@@Z 0048dd57 f   ShortcutKey.obj
 0001:0008cde1       ?LuaShowWindow@@YAHPAUlua_State@@@Z 0048dde1 f   ShortcutKey.obj
 0001:0008ce65       ?LuaFocusWindow@@YAHPAUlua_State@@@Z 0048de65 f   ShortcutKey.obj
 0001:0008cec7       ?LuaShortcutSkill@@YAHPAUlua_State@@@Z 0048dec7 f   ShortcutKey.obj
 0001:0008cf0a       ?LuaDirectShortcutSkill@@YAHPAUlua_State@@@Z 0048df0a f   ShortcutKey.obj
 0001:0008cf4d       ?LuaShortcutUseItem@@YAHPAUlua_State@@@Z 0048df4d f   ShortcutKey.obj
 0001:0008cf90       ?FindStatus@@YAHPBD@Z      0048df90 f   ShortcutKey.obj
 0001:0008cfd6       ?LuaSwitchStatus@@YAHPAUlua_State@@@Z 0048dfd6 f   ShortcutKey.obj
 0001:0008d298       ?LuaSwitchChannel@@YAHPAUlua_State@@@Z 0048e298 f   ShortcutKey.obj
 0001:0008d2de       ?LuaRegisterEvent@@YAHPAUlua_State@@@Z 0048e2de f   ShortcutKey.obj
 0001:0008d337       ?LuaUnregisterEvent@@YAHPAUlua_State@@@Z 0048e337 f   ShortcutKey.obj
 0001:0008d390       ?LuaSendEvent@@YAHPAUlua_State@@@Z 0048e390 f   ShortcutKey.obj
 0001:0008d44a       ?LuaGetAppStatus@@YAHPAUlua_State@@@Z 0048e44a f   ShortcutKey.obj
 0001:0008d517       ?DescHotKey@hotkey_str@@YA?AV?$basic_string@DU?$char_traits@D@std@@V?$allocator@D@2@@std@@K@Z 0048e517 f   ShortcutKey.obj
 0001:0008d6dd       ?ParseHotKey@hotkey_str@@YAKABV?$basic_string@DU?$char_traits@D@std@@V?$allocator@D@2@@std@@@Z 0048e6dd f   ShortcutKey.obj
 0001:0008d97f       ??0PATTERNMAP@?1??ParseHotKey@hotkey_str@@YAKABV?$basic_string@DU?$char_traits@D@std@@V?$allocator@D@2@@std@@@Z@QAE@XZ 0048e97f f   ShortcutKey.obj
 0001:0008eb41       ?LuaAddCommand@@YAHPAUlua_State@@@Z 0048fb41 f   ShortcutKey.obj
 0001:0008ec5c       ?LuaRemoveCommand@@YAHPAUlua_State@@@Z 0048fc5c f   ShortcutKey.obj
 0001:0008ed8e       ?LuaMakeFriend@@YAHPAUlua_State@@@Z 0048fd8e f   ShortcutKey.obj
 0001:0008ee03       ?LuaCreateTeam@@YAHPAUlua_State@@@Z 0048fe03 f   ShortcutKey.obj
 0001:0008ee29       ?LuaJoinTeam@@YAHPAUlua_State@@@Z 0048fe29 f   ShortcutKey.obj
 0001:0008eeb2       ?LuaInviteTeam@@YAHPAUlua_State@@@Z 0048feb2 f   ShortcutKey.obj
 0001:0008ef3b       ?LuaTrade@@YAHPAUlua_State@@@Z 0048ff3b f   ShortcutKey.obj
 0001:0008efc4       ?LuaRevenge@@YAHPAUlua_State@@@Z 0048ffc4 f   ShortcutKey.obj
 0001:0008f04d       ?LuaFollow@@YAHPAUlua_State@@@Z 0049004d f   ShortcutKey.obj
 0001:0008f0d6       ?LuaViewItem@@YAHPAUlua_State@@@Z 004900d6 f   ShortcutKey.obj
 0001:0008f15f       ?LuaPrintScreen@@YAHPAUlua_State@@@Z 0049015f f   ShortcutKey.obj
 0001:0008f172       ?LuaClearMessage@@YAHPAUlua_State@@@Z 00490172 f   ShortcutKey.obj
 0001:0008f17e       ?LuaExpandMessage@@YAHPAUlua_State@@@Z 0049017e f   ShortcutKey.obj
 0001:0008f18a       ?LuaSay@@YAHPAUlua_State@@@Z 0049018a f   ShortcutKey.obj
 0001:0008f268       ?LuaChat@@YAHPAUlua_State@@@Z 00490268 f   ShortcutKey.obj
 0001:0008f372       ?LuaAutoReply@@YAHPAUlua_State@@@Z 00490372 f   ShortcutKey.obj
 0001:0008f63c       ?LuaRegisterFunctionAlias@@YAHPAUlua_State@@@Z 0049063c f   ShortcutKey.obj
 0001:0008f7b4       ?LuaSayPhrase@@YAHPAUlua_State@@@Z 004907b4 f   ShortcutKey.obj
 0001:0008f8f4       ?LuaSayEmote@@YAHPAUlua_State@@@Z 004908f4 f   ShortcutKey.obj
 0001:0008f965       ?LuaGetCurrentChannelName@@YAHPAUlua_State@@@Z 00490965 f   ShortcutKey.obj
 0001:0008f9b8       ?LuaGetRecentPlayerName@@YAHPAUlua_State@@@Z 004909b8 f   ShortcutKey.obj
 0001:0008fa05       ?LuaConvertEmotes@@YAHPAUlua_State@@@Z 00490a05 f   ShortcutKey.obj
 0001:0008fa16       ?LuaSetEmote@@YAHPAUlua_State@@@Z 00490a16 f   ShortcutKey.obj
 0001:0008fad0       ?LuaSetScreenShotFolder@@YAHPAUlua_State@@@Z 00490ad0 f   ShortcutKey.obj
 0001:0008fb97       ?LuaSetPhrase@@YAHPAUlua_State@@@Z 00490b97 f   ShortcutKey.obj
 0001:0008fc1c       ?LuaExitGame@@YAHPAUlua_State@@@Z 00490c1c f   ShortcutKey.obj
 0001:0008fc6a       ?LuaExit@@YAHPAUlua_State@@@Z 00490c6a f   ShortcutKey.obj
 0001:0008fc76       ?LuaSet3D@@YAHPAUlua_State@@@Z 00490c76 f   ShortcutKey.obj
 0001:0008fe05       ?LuaSetFullWindow@@YAHPAUlua_State@@@Z 00490e05 f   ShortcutKey.obj
 0001:0008ff94       ?LuaMoveTo@@YAHPAUlua_State@@@Z 00490f94 f   ShortcutKey.obj
 0001:0009003d       ?LuaTurnTo@@YAHPAUlua_State@@@Z 0049103d f   ShortcutKey.obj
 0001:000900ab       ?Mouse_Action@@YAHPAUlua_State@@@Z 004910ab f   ShortcutKey.obj
 0001:0009027d       ?Mouse_Force0@@YAHPAUlua_State@@@Z 0049127d f   ShortcutKey.obj
 0001:00090324       ?Mouse_Force1@@YAHPAUlua_State@@@Z 00491324 f   ShortcutKey.obj
 0001:000903cb       ?Mouse_MoveTo@@YAHPAUlua_State@@@Z 004913cb f   ShortcutKey.obj
 0001:00090482       ?Mouse_Menu@@YAHPAUlua_State@@@Z 00491482 f   ShortcutKey.obj
 0001:00090520       ?Mouse_Emote_Menu@@YAHPAUlua_State@@@Z 00491520 f   ShortcutKey.obj
 0001:000905be       ?Mouse_Say@@YAHPAUlua_State@@@Z 004915be f   ShortcutKey.obj
 0001:000906c2       ?Mouse_MakeFriend@@YAHPAUlua_State@@@Z 004916c2 f   ShortcutKey.obj
 0001:00090752       ?Mouse_JoinTeam@@YAHPAUlua_State@@@Z 00491752 f   ShortcutKey.obj
 0001:000907e2       ?Mouse_InviteTeam@@YAHPAUlua_State@@@Z 004917e2 f   ShortcutKey.obj
 0001:00090872       ?Mouse_Trade@@YAHPAUlua_State@@@Z 00491872 f   ShortcutKey.obj
 0001:00090902       ?Mouse_Revenge@@YAHPAUlua_State@@@Z 00491902 f   ShortcutKey.obj
 0001:00090992       ?Mouse_Follow@@YAHPAUlua_State@@@Z 00491992 f   ShortcutKey.obj
 0001:00090a22       ?Mouse_ViewItem@@YAHPAUlua_State@@@Z 00491a22 f   ShortcutKey.obj
 0001:00090ab2       ?Mouse_BlackList@@YAHPAUlua_State@@@Z 00491ab2 f   ShortcutKey.obj
 0001:00090b42       ?LuaThrowAwayItem@@YAHPAUlua_State@@@Z 00491b42 f   ShortcutKey.obj
 0001:00090b66       ?LuaPickNearest@@YAHPAUlua_State@@@Z 00491b66 f   ShortcutKey.obj
 0001:00090b90       ?LuaHoldCursor@@YAHPAUlua_State@@@Z 00491b90 f   ShortcutKey.obj
 0001:00090b9c       ?LuaSetChatFontSzie@@YAHPAUlua_State@@@Z 00491b9c f   ShortcutKey.obj
 0001:00090bdf       ?LuaSetChannelTextColor@@YAHPAUlua_State@@@Z 00491bdf f   ShortcutKey.obj
 0001:00090c69       ?LuaSetMeTextColor@@YAHPAUlua_State@@@Z 00491c69 f   ShortcutKey.obj
 0001:00090cd9       ?LuaSetFriendTextColor@@YAHPAUlua_State@@@Z 00491cd9 f   ShortcutKey.obj
 0001:00090d49       ?LuaSetStrangerTextColor@@YAHPAUlua_State@@@Z 00491d49 f   ShortcutKey.obj
 0001:00090db9       ?LuaDebug@@YAHPAUlua_State@@@Z 00491db9 f   ShortcutKey.obj
 0001:00090e12       ?LuaAddBlackList@@YAHPAUlua_State@@@Z 00491e12 f   ShortcutKey.obj
 0001:00090ede       ?LuaRemoveBlackList@@YAHPAUlua_State@@@Z 00491ede f   ShortcutKey.obj
 0001:00090f33       ?LuaCreateAddinUnit@@YAHPAUlua_State@@@Z 00491f33 f   ShortcutKey.obj
 0001:00090f71       ?LuaDeleteAddinUnit@@YAHPAUlua_State@@@Z 00491f71 f   ShortcutKey.obj
 0001:00090faf       ?LuaCreateUnitGroup@@YAHPAUlua_State@@@Z 00491faf f   ShortcutKey.obj
 0001:0009101a       ?LuaRenameUnitGroup@@YAHPAUlua_State@@@Z 0049201a f   ShortcutKey.obj
 0001:0009109b       ?LuaMoveUnitGroup@@YAHPAUlua_State@@@Z 0049209b f   ShortcutKey.obj
 0001:0009111e       ?LuaDeleteUnitGroup@@YAHPAUlua_State@@@Z 0049211e f   ShortcutKey.obj
 0001:00091190       ?LuaMoveUnitMember@@YAHPAUlua_State@@@Z 00492190 f   ShortcutKey.obj
 0001:00091211       ?LuaCreateAddinUnitMember@@YAHPAUlua_State@@@Z 00492211 f   ShortcutKey.obj
 0001:00091292       ?LuaDeleteAddinUnitMember@@YAHPAUlua_State@@@Z 00492292 f   ShortcutKey.obj
 0001:000912ff       ?LuaSetAddinUnitMemberStatus@@YAHPAUlua_State@@@Z 004922ff f   ShortcutKey.obj
 0001:0009139e       ?LuaShowSomeoneMessage@@YAHPAUlua_State@@@Z 0049239e f   ShortcutKey.obj
 0001:0009147e       ?g_GetGameScriptFunNum@@YAHXZ 0049247e f   ShortcutKey.obj
 0001:00091488       ?InitScript@KShortcutKeyCentre@@SAHXZ 00492488 f   ShortcutKey.obj
 0001:000914c7       ?LoadScript@KShortcutKeyCentre@@SAHPAD@Z 004924c7 f   ShortcutKey.obj
 0001:000914e0       ?UninitScript@KShortcutKeyCentre@@SAHXZ 004924e0 f   ShortcutKey.obj
 0001:000914ea       ?ClearScript@KShortcutKeyCentre@@SAHXZ 004924ea f   ShortcutKey.obj
 0001:00091534       ?LoadPrivateSetting@KShortcutKeyCentre@@SAHPAVKIniFile@@@Z 00492534 f   ShortcutKey.obj
 0001:00091677       ?SavePrivateSetting@KShortcutKeyCentre@@SAHPAVKIniFile@@@Z 00492677 f   ShortcutKey.obj
 0001:00092191       ?Compile@@YAIPBDPADI@Z     00493191 f   ShortcutKey.obj
 0001:00092660       ?TranslateExcuteScript@KShortcutKeyCentre@@SAHPBD@Z 00493660 f   ShortcutKey.obj
 0001:00092718       ?ExcuteScript@KShortcutKeyCentre@@SAHPBD@Z 00493718 f   ShortcutKey.obj
 0001:00092779       ?ExcuteHWNDScript@KShortcutKeyCentre@@SAHPBD@Z 00493779 f   ShortcutKey.obj
 0001:000927bd       ?AddCommand@KShortcutKeyCentre@@SAHPAUCOMMAND_SETTING@@@Z 004937bd f   ShortcutKey.obj
 0001:000928e2       ?RemoveCommand@KShortcutKeyCentre@@SAHH@Z 004938e2 f   ShortcutKey.obj
 0001:00092958       ?RemoveCommandAll@KShortcutKeyCentre@@SAXXZ 00493958 f   ShortcutKey.obj
 0001:00092967       ?FindCommand@KShortcutKeyCentre@@SAHK@Z 00493967 f   ShortcutKey.obj
 0001:000929cc       ?FindCommand@KShortcutKeyCentre@@SAHPBD@Z 004939cc f   ShortcutKey.obj
 0001:00092a4c       ?FindCommandByScript@KShortcutKeyCentre@@SAHPBD@Z 00493a4c f   ShortcutKey.obj
 0001:00092acc       ?GetCommandKey@KShortcutKeyCentre@@SAKH@Z 00493acc f   ShortcutKey.obj
 0001:00092af8       ?GetKeyName@KShortcutKeyCentre@@SAPBDK@Z 00493af8 f   ShortcutKey.obj
 0001:00092bb4       ?RegisterFunctionAlias@KShortcutKeyCentre@@SAHPBD0HABV?$list@V?$basic_string@DU?$char_traits@D@std@@V?$allocator@D@2@@std@@V?$allocator@V?$basic_string@DU?$char_traits@D@std@@V?$allocator@D@2@@std@@@2@@std@@@Z 00493bb4 f   ShortcutKey.obj
 0001:00092d20       ??1?$map@V?$basic_string@DU?$char_traits@D@std@@V?$allocator@D@2@@std@@UShortFuncInfo@@Ustring_iless@@V?$allocator@UShortFuncInfo@@@2@@std@@QAE@XZ 00493d20 f i ShortcutKey.obj
 0001:00092d40       ?GetSelf@KUiMsgCentrePad@@SAPAV1@XZ 00493d40 f i ShortcutKey.obj
 0001:00092d50       ?GetSelf@KUiMiniMap@@SAPAV1@XZ 00493d50 f i ShortcutKey.obj
 0001:00092d60       ?GetSelf@KUiHeaderControlBar@@SAPAV1@XZ 00493d60 f i ShortcutKey.obj
 0001:00092d70       ?GetSelf@KUiToolsControlBar@@SAPAV1@XZ 00493d70 f i ShortcutKey.obj
 0001:00092d80       ??1PATTERNMAP@?1??ParseHotKey@hotkey_str@@YAKABV?$basic_string@DU?$char_traits@D@std@@V?$allocator@D@2@@std@@@Z@QAE@XZ 00493d80 f i ShortcutKey.obj
 0001:00092da0       ??1?$map@V?$basic_string@DU?$char_traits@D@std@@V?$allocator@D@2@@std@@U?$pair@KK@2@Ustring_iless@@V?$allocator@U?$pair@KK@std@@@2@@std@@QAE@XZ 00493da0 f i ShortcutKey.obj
 0001:00092dc0       ?__x_memcpy_n@@YA_NPAXIPBXI@Z 00493dc0 f i ShortcutKey.obj
 0001:00092df0       ??0ShortFuncInfo@@QAE@XZ   00493df0 f i ShortcutKey.obj
 0001:00092e50       ??1ShortFuncInfo@@QAE@XZ   00493e50 f i ShortcutKey.obj
 0001:00092ea0       ??4ShortFuncInfo@@QAEAAU0@ABU0@@Z 00493ea0 f i ShortcutKey.obj
 0001:00092ee0       ??4?$list@V?$basic_string@DU?$char_traits@D@std@@V?$allocator@D@2@@std@@V?$allocator@V?$basic_string@DU?$char_traits@D@std@@V?$allocator@D@2@@std@@@2@@std@@QAEAAV01@ABV01@@Z 00493ee0 f i ShortcutKey.obj
 0001:00092fd0       ?pop_back@?$list@V?$basic_string@DU?$char_traits@D@std@@V?$allocator@D@2@@std@@V?$allocator@V?$basic_string@DU?$char_traits@D@std@@V?$allocator@D@2@@std@@@2@@std@@QAEXXZ 00493fd0 f i ShortcutKey.obj
 0001:00093000       ??Diterator@?$list@V?$basic_string@DU?$char_traits@D@std@@V?$allocator@D@2@@std@@V?$allocator@V?$basic_string@DU?$char_traits@D@std@@V?$allocator@D@2@@std@@@2@@std@@QBEAAV?$basic_string@DU?$char_traits@D@std@@V?$allocator@D@2@@2@XZ 00494000 f i ShortcutKey.obj
 0001:00093020       ??0?$map@V?$basic_string@DU?$char_traits@D@std@@V?$allocator@D@2@@std@@UShortFuncInfo@@Ustring_iless@@V?$allocator@UShortFuncInfo@@@2@@std@@QAE@ABUstring_iless@@ABV?$allocator@UShortFuncInfo@@@1@@Z 00494020 f i ShortcutKey.obj
 0001:00093050       ?begin@?$map@V?$basic_string@DU?$char_traits@D@std@@V?$allocator@D@2@@std@@UShortFuncInfo@@Ustring_iless@@V?$allocator@UShortFuncInfo@@@2@@std@@QAE?AViterator@?$_Tree@V?$basic_string@DU?$char_traits@D@std@@V?$allocator@D@2@@std@@U?$pair@$$CBV?$basic_string@DU?$char_traits@D@std@@V?$allocator@D@2@@std@@UShortFuncInfo@@@2@U_Kfn@?$map@V?$basic_string@DU?$char_traits@D@std@@V?$allocator@D@2@@std@@UShortFuncInfo@@Ustring_iless@@V?$allocator@UShortFuncInfo@@@2@@2@Ustring_iless@@V?$allocator@UShortFuncInfo@@@2@@2@XZ 00494050 f i ShortcutKey.obj
 0001:00093080       ??A?$map@V?$basic_string@DU?$char_traits@D@std@@V?$allocator@D@2@@std@@UShortFuncInfo@@Ustring_iless@@V?$allocator@UShortFuncInfo@@@2@@std@@QAEAAUShortFuncInfo@@ABV?$basic_string@DU?$char_traits@D@std@@V?$allocator@D@2@@1@@Z 00494080 f i ShortcutKey.obj
 0001:00093120       ?clear@?$map@V?$basic_string@DU?$char_traits@D@std@@V?$allocator@D@2@@std@@UShortFuncInfo@@Ustring_iless@@V?$allocator@UShortFuncInfo@@@2@@std@@QAEXXZ 00494120 f i ShortcutKey.obj
 0001:00093140       ??1?$_Tree@V?$basic_string@DU?$char_traits@D@std@@V?$allocator@D@2@@std@@U?$pair@$$CBV?$basic_string@DU?$char_traits@D@std@@V?$allocator@D@2@@std@@UShortFuncInfo@@@2@U_Kfn@?$map@V?$basic_string@DU?$char_traits@D@std@@V?$allocator@D@2@@std@@UShortFuncInfo@@Ustring_iless@@V?$allocator@UShortFuncInfo@@@2@@2@Ustring_iless@@V?$allocator@UShortFuncInfo@@@2@@std@@QAE@XZ 00494140 f i ShortcutKey.obj
 0001:00093210       ??Citerator@?$_Tree@V?$basic_string@DU?$char_traits@D@std@@V?$allocator@D@2@@std@@U?$pair@$$CBV?$basic_string@DU?$char_traits@D@std@@V?$allocator@D@2@@std@@UShortFuncInfo@@@2@U_Kfn@?$map@V?$basic_string@DU?$char_traits@D@std@@V?$allocator@D@2@@std@@UShortFuncInfo@@Ustring_iless@@V?$allocator@UShortFuncInfo@@@2@@2@Ustring_iless@@V?$allocator@UShortFuncInfo@@@2@@std@@QBEPAU?$pair@$$CBV?$basic_string@DU?$char_traits@D@std@@V?$allocator@D@2@@std@@UShortFuncInfo@@@2@XZ 00494210 f i ShortcutKey.obj
 0001:00093230       ??Eiterator@?$_Tree@V?$basic_string@DU?$char_traits@D@std@@V?$allocator@D@2@@std@@U?$pair@$$CBV?$basic_string@DU?$char_traits@D@std@@V?$allocator@D@2@@std@@UShortFuncInfo@@@2@U_Kfn@?$map@V?$basic_string@DU?$char_traits@D@std@@V?$allocator@D@2@@std@@UShortFuncInfo@@Ustring_iless@@V?$allocator@UShortFuncInfo@@@2@@2@Ustring_iless@@V?$allocator@UShortFuncInfo@@@2@@std@@QAE?AV012@H@Z 00494230 f i ShortcutKey.obj
 0001:00093260       ??0?$map@V?$basic_string@DU?$char_traits@D@std@@V?$allocator@D@2@@std@@U?$pair@KK@2@Ustring_iless@@V?$allocator@U?$pair@KK@std@@@2@@std@@QAE@ABUstring_iless@@ABV?$allocator@U?$pair@KK@std@@@1@@Z 00494260 f i ShortcutKey.obj
 0001:00093290       ?end@?$map@V?$basic_string@DU?$char_traits@D@std@@V?$allocator@D@2@@std@@U?$pair@KK@2@Ustring_iless@@V?$allocator@U?$pair@KK@std@@@2@@std@@QBE?AVconst_iterator@?$_Tree@V?$basic_string@DU?$char_traits@D@std@@V?$allocator@D@2@@std@@U?$pair@$$CBV?$basic_string@DU?$char_traits@D@std@@V?$allocator@D@2@@std@@U?$pair@KK@2@@2@U_Kfn@?$map@V?$basic_string@DU?$char_traits@D@std@@V?$allocator@D@2@@std@@U?$pair@KK@2@Ustring_iless@@V?$allocator@U?$pair@KK@std@@@2@@2@Ustring_iless@@V?$allocator@U?$pair@KK@std@@@2@@2@XZ 00494290 f i ShortcutKey.obj
 0001:000932c0       ??A?$map@V?$basic_string@DU?$char_traits@D@std@@V?$allocator@D@2@@std@@U?$pair@KK@2@Ustring_iless@@V?$allocator@U?$pair@KK@std@@@2@@std@@QAEAAU?$pair@KK@1@ABV?$basic_string@DU?$char_traits@D@std@@V?$allocator@D@2@@1@@Z 004942c0 f i ShortcutKey.obj
 0001:00093350       ?find@?$map@V?$basic_string@DU?$char_traits@D@std@@V?$allocator@D@2@@std@@U?$pair@KK@2@Ustring_iless@@V?$allocator@U?$pair@KK@std@@@2@@std@@QBE?AVconst_iterator@?$_Tree@V?$basic_string@DU?$char_traits@D@std@@V?$allocator@D@2@@std@@U?$pair@$$CBV?$basic_string@DU?$char_traits@D@std@@V?$allocator@D@2@@std@@U?$pair@KK@2@@2@U_Kfn@?$map@V?$basic_string@DU?$char_traits@D@std@@V?$allocator@D@2@@std@@U?$pair@KK@2@Ustring_iless@@V?$allocator@U?$pair@KK@std@@@2@@2@Ustring_iless@@V?$allocator@U?$pair@KK@std@@@2@@2@ABV?$basic_string@DU?$char_traits@D@std@@V?$allocator@D@2@@2@@Z 00494350 f i ShortcutKey.obj
 0001:00093380       ??1?$_Tree@V?$basic_string@DU?$char_traits@D@std@@V?$allocator@D@2@@std@@U?$pair@$$CBV?$basic_string@DU?$char_traits@D@std@@V?$allocator@D@2@@std@@U?$pair@KK@2@@2@U_Kfn@?$map@V?$basic_string@DU?$char_traits@D@std@@V?$allocator@D@2@@std@@U?$pair@KK@2@Ustring_iless@@V?$allocator@U?$pair@KK@std@@@2@@2@Ustring_iless@@V?$allocator@U?$pair@KK@std@@@2@@std@@QAE@XZ 00494380 f i ShortcutKey.obj
 0001:00093450       ??Dconst_iterator@?$_Tree@V?$basic_string@DU?$char_traits@D@std@@V?$allocator@D@2@@std@@U?$pair@$$CBV?$basic_string@DU?$char_traits@D@std@@V?$allocator@D@2@@std@@U?$pair@KK@2@@2@U_Kfn@?$map@V?$basic_string@DU?$char_traits@D@std@@V?$allocator@D@2@@std@@U?$pair@KK@2@Ustring_iless@@V?$allocator@U?$pair@KK@std@@@2@@2@Ustring_iless@@V?$allocator@U?$pair@KK@std@@@2@@std@@QBEABU?$pair@$$CBV?$basic_string@DU?$char_traits@D@std@@V?$allocator@D@2@@std@@U?$pair@KK@2@@2@XZ 00494450 f i ShortcutKey.obj
 0001:00093470       ??8const_iterator@?$_Tree@V?$basic_string@DU?$char_traits@D@std@@V?$allocator@D@2@@std@@U?$pair@$$CBV?$basic_string@DU?$char_traits@D@std@@V?$allocator@D@2@@std@@U?$pair@KK@2@@2@U_Kfn@?$map@V?$basic_string@DU?$char_traits@D@std@@V?$allocator@D@2@@std@@U?$pair@KK@2@Ustring_iless@@V?$allocator@U?$pair@KK@std@@@2@@2@Ustring_iless@@V?$allocator@U?$pair@KK@std@@@2@@std@@QBE_NABV012@@Z 00494470 f i ShortcutKey.obj
 0001:00093490       ??1?$pair@$$CBV?$basic_string@DU?$char_traits@D@std@@V?$allocator@D@2@@std@@UShortFuncInfo@@@std@@QAE@XZ 00494490 f i ShortcutKey.obj
 0001:000934e0       ??1?$pair@$$CBV?$basic_string@DU?$char_traits@D@std@@V?$allocator@D@2@@std@@U?$pair@KK@2@@std@@QAE@XZ 004944e0 f i ShortcutKey.obj
 0001:00093500       ?insert@?$list@V?$basic_string@DU?$char_traits@D@std@@V?$allocator@D@2@@std@@V?$allocator@V?$basic_string@DU?$char_traits@D@std@@V?$allocator@D@2@@std@@@2@@std@@QAEXViterator@12@Vconst_iterator@12@1@Z 00494500 f i ShortcutKey.obj
 0001:00093550       ??Fiterator@?$list@V?$basic_string@DU?$char_traits@D@std@@V?$allocator@D@2@@std@@V?$allocator@V?$basic_string@DU?$char_traits@D@std@@V?$allocator@D@2@@std@@@2@@std@@QAEAAV012@XZ 00494550 f i ShortcutKey.obj
 0001:00093580       ?insert@?$map@V?$basic_string@DU?$char_traits@D@std@@V?$allocator@D@2@@std@@UShortFuncInfo@@Ustring_iless@@V?$allocator@UShortFuncInfo@@@2@@std@@QAE?AU?$pair@Viterator@?$_Tree@V?$basic_string@DU?$char_traits@D@std@@V?$allocator@D@2@@std@@U?$pair@$$CBV?$basic_string@DU?$char_traits@D@std@@V?$allocator@D@2@@std@@UShortFuncInfo@@@2@U_Kfn@?$map@V?$basic_string@DU?$char_traits@D@std@@V?$allocator@D@2@@std@@UShortFuncInfo@@Ustring_iless@@V?$allocator@UShortFuncInfo@@@2@@2@Ustring_iless@@V?$allocator@UShortFuncInfo@@@2@@std@@_N@2@ABU?$pair@$$CBV?$basic_string@DU?$char_traits@D@std@@V?$allocator@D@2@@std@@UShortFuncInfo@@@2@@Z 00494580 f i ShortcutKey.obj
 0001:000935d0       ??0?$_Tree@V?$basic_string@DU?$char_traits@D@std@@V?$allocator@D@2@@std@@U?$pair@$$CBV?$basic_string@DU?$char_traits@D@std@@V?$allocator@D@2@@std@@UShortFuncInfo@@@2@U_Kfn@?$map@V?$basic_string@DU?$char_traits@D@std@@V?$allocator@D@2@@std@@UShortFuncInfo@@Ustring_iless@@V?$allocator@UShortFuncInfo@@@2@@2@Ustring_iless@@V?$allocator@UShortFuncInfo@@@2@@std@@QAE@ABUstring_iless@@_NABV?$allocator@UShortFuncInfo@@@1@@Z 004945d0 f i ShortcutKey.obj
 0001:00093610       ?begin@?$_Tree@V?$basic_string@DU?$char_traits@D@std@@V?$allocator@D@2@@std@@U?$pair@$$CBV?$basic_string@DU?$char_traits@D@std@@V?$allocator@D@2@@std@@UShortFuncInfo@@@2@U_Kfn@?$map@V?$basic_string@DU?$char_traits@D@std@@V?$allocator@D@2@@std@@UShortFuncInfo@@Ustring_iless@@V?$allocator@UShortFuncInfo@@@2@@2@Ustring_iless@@V?$allocator@UShortFuncInfo@@@2@@std@@QAE?AViterator@12@XZ 00494610 f i ShortcutKey.obj
 0001:00093640       ?erase@?$_Tree@V?$basic_string@DU?$char_traits@D@std@@V?$allocator@D@2@@std@@U?$pair@$$CBV?$basic_string@DU?$char_traits@D@std@@V?$allocator@D@2@@std@@UShortFuncInfo@@@2@U_Kfn@?$map@V?$basic_string@DU?$char_traits@D@std@@V?$allocator@D@2@@std@@UShortFuncInfo@@Ustring_iless@@V?$allocator@UShortFuncInfo@@@2@@2@Ustring_iless@@V?$allocator@UShortFuncInfo@@@2@@std@@QAE?AViterator@12@V312@0@Z 00494640 f i ShortcutKey.obj
 0001:00093780       ?clear@?$_Tree@V?$basic_string@DU?$char_traits@D@std@@V?$allocator@D@2@@std@@U?$pair@$$CBV?$basic_string@DU?$char_traits@D@std@@V?$allocator@D@2@@std@@UShortFuncInfo@@@2@U_Kfn@?$map@V?$basic_string@DU?$char_traits@D@std@@V?$allocator@D@2@@std@@UShortFuncInfo@@Ustring_iless@@V?$allocator@UShortFuncInfo@@@2@@2@Ustring_iless@@V?$allocator@UShortFuncInfo@@@2@@std@@QAEXXZ 00494780 f i ShortcutKey.obj
 0001:000937c0       ?_Freenode@?$_Tree@V?$basic_string@DU?$char_traits@D@std@@V?$allocator@D@2@@std@@U?$pair@$$CBV?$basic_string@DU?$char_traits@D@std@@V?$allocator@D@2@@std@@UShortFuncInfo@@@2@U_Kfn@?$map@V?$basic_string@DU?$char_traits@D@std@@V?$allocator@D@2@@std@@UShortFuncInfo@@Ustring_iless@@V?$allocator@UShortFuncInfo@@@2@@2@Ustring_iless@@V?$allocator@UShortFuncInfo@@@2@@std@@IAEXPAU_Node@12@@Z 004947c0 f i ShortcutKey.obj
 0001:000937e0       ??0?$pair@$$CBV?$basic_string@DU?$char_traits@D@std@@V?$allocator@D@2@@std@@UShortFuncInfo@@@std@@QAE@ABV?$basic_string@DU?$char_traits@D@std@@V?$allocator@D@2@@1@ABUShortFuncInfo@@@Z 004947e0 f i ShortcutKey.obj
 0001:00093840       ??Diterator@?$_Tree@V?$basic_string@DU?$char_traits@D@std@@V?$allocator@D@2@@std@@U?$pair@$$CBV?$basic_string@DU?$char_traits@D@std@@V?$allocator@D@2@@std@@UShortFuncInfo@@@2@U_Kfn@?$map@V?$basic_string@DU?$char_traits@D@std@@V?$allocator@D@2@@std@@UShortFuncInfo@@Ustring_iless@@V?$allocator@UShortFuncInfo@@@2@@2@Ustring_iless@@V?$allocator@UShortFuncInfo@@@2@@std@@QBEAAU?$pair@$$CBV?$basic_string@DU?$char_traits@D@std@@V?$allocator@D@2@@std@@UShortFuncInfo@@@2@XZ 00494840 f i ShortcutKey.obj
 0001:00093860       ??Eiterator@?$_Tree@V?$basic_string@DU?$char_traits@D@std@@V?$allocator@D@2@@std@@U?$pair@$$CBV?$basic_string@DU?$char_traits@D@std@@V?$allocator@D@2@@std@@UShortFuncInfo@@@2@U_Kfn@?$map@V?$basic_string@DU?$char_traits@D@std@@V?$allocator@D@2@@std@@UShortFuncInfo@@Ustring_iless@@V?$allocator@UShortFuncInfo@@@2@@2@Ustring_iless@@V?$allocator@UShortFuncInfo@@@2@@std@@QAEAAV012@XZ 00494860 f i ShortcutKey.obj
 0001:00093880       ?insert@?$map@V?$basic_string@DU?$char_traits@D@std@@V?$allocator@D@2@@std@@U?$pair@KK@2@Ustring_iless@@V?$allocator@U?$pair@KK@std@@@2@@std@@QAE?AU?$pair@Viterator@?$_Tree@V?$basic_string@DU?$char_traits@D@std@@V?$allocator@D@2@@std@@U?$pair@$$CBV?$basic_string@DU?$char_traits@D@std@@V?$allocator@D@2@@std@@U?$pair@KK@2@@2@U_Kfn@?$map@V?$basic_string@DU?$char_traits@D@std@@V?$allocator@D@2@@std@@U?$pair@KK@2@Ustring_iless@@V?$allocator@U?$pair@KK@std@@@2@@2@Ustring_iless@@V?$allocator@U?$pair@KK@std@@@2@@std@@_N@2@ABU?$pair@$$CBV?$basic_string@DU?$char_traits@D@std@@V?$allocator@D@2@@std@@U?$pair@KK@2@@2@@Z 00494880 f i ShortcutKey.obj
 0001:000938d0       ?_Value@?$_Tree@V?$basic_string@DU?$char_traits@D@std@@V?$allocator@D@2@@std@@U?$pair@$$CBV?$basic_string@DU?$char_traits@D@std@@V?$allocator@D@2@@std@@U?$pair@KK@2@@2@U_Kfn@?$map@V?$basic_string@DU?$char_traits@D@std@@V?$allocator@D@2@@std@@U?$pair@KK@2@Ustring_iless@@V?$allocator@U?$pair@KK@std@@@2@@2@Ustring_iless@@V?$allocator@U?$pair@KK@std@@@2@@std@@KAAAU?$pair@$$CBV?$basic_string@DU?$char_traits@D@std@@V?$allocator@D@2@@std@@U?$pair@KK@2@@2@PAU_Node@12@@Z 004948d0 f i ShortcutKey.obj
 0001:000938e0       ??0?$_Tree@V?$basic_string@DU?$char_traits@D@std@@V?$allocator@D@2@@std@@U?$pair@$$CBV?$basic_string@DU?$char_traits@D@std@@V?$allocator@D@2@@std@@U?$pair@KK@2@@2@U_Kfn@?$map@V?$basic_string@DU?$char_traits@D@std@@V?$allocator@D@2@@std@@U?$pair@KK@2@Ustring_iless@@V?$allocator@U?$pair@KK@std@@@2@@2@Ustring_iless@@V?$allocator@U?$pair@KK@std@@@2@@std@@QAE@ABUstring_iless@@_NABV?$allocator@U?$pair@KK@std@@@1@@Z 004948e0 f i ShortcutKey.obj
 0001:00093920       ?begin@?$_Tree@V?$basic_string@DU?$char_traits@D@std@@V?$allocator@D@2@@std@@U?$pair@$$CBV?$basic_string@DU?$char_traits@D@std@@V?$allocator@D@2@@std@@U?$pair@KK@2@@2@U_Kfn@?$map@V?$basic_string@DU?$char_traits@D@std@@V?$allocator@D@2@@std@@U?$pair@KK@2@Ustring_iless@@V?$allocator@U?$pair@KK@std@@@2@@2@Ustring_iless@@V?$allocator@U?$pair@KK@std@@@2@@std@@QAE?AViterator@12@XZ 00494920 f i ShortcutKey.obj
 0001:00093950       ?end@?$_Tree@V?$basic_string@DU?$char_traits@D@std@@V?$allocator@D@2@@std@@U?$pair@$$CBV?$basic_string@DU?$char_traits@D@std@@V?$allocator@D@2@@std@@U?$pair@KK@2@@2@U_Kfn@?$map@V?$basic_string@DU?$char_traits@D@std@@V?$allocator@D@2@@std@@U?$pair@KK@2@Ustring_iless@@V?$allocator@U?$pair@KK@std@@@2@@2@Ustring_iless@@V?$allocator@U?$pair@KK@std@@@2@@std@@QAE?AViterator@12@XZ 00494950 f i ShortcutKey.obj
 0001:00093980       ?end@?$_Tree@V?$basic_string@DU?$char_traits@D@std@@V?$allocator@D@2@@std@@U?$pair@$$CBV?$basic_string@DU?$char_traits@D@std@@V?$allocator@D@2@@std@@U?$pair@KK@2@@2@U_Kfn@?$map@V?$basic_string@DU?$char_traits@D@std@@V?$allocator@D@2@@std@@U?$pair@KK@2@Ustring_iless@@V?$allocator@U?$pair@KK@std@@@2@@2@Ustring_iless@@V?$allocator@U?$pair@KK@std@@@2@@std@@QBE?AVconst_iterator@12@XZ 00494980 f i ShortcutKey.obj
 0001:000939b0       ?erase@?$_Tree@V?$basic_string@DU?$char_traits@D@std@@V?$allocator@D@2@@std@@U?$pair@$$CBV?$basic_string@DU?$char_traits@D@std@@V?$allocator@D@2@@std@@U?$pair@KK@2@@2@U_Kfn@?$map@V?$basic_string@DU?$char_traits@D@std@@V?$allocator@D@2@@std@@U?$pair@KK@2@Ustring_iless@@V?$allocator@U?$pair@KK@std@@@2@@2@Ustring_iless@@V?$allocator@U?$pair@KK@std@@@2@@std@@QAE?AViterator@12@V312@0@Z 004949b0 f i ShortcutKey.obj
 0001:00093af0       ?find@?$_Tree@V?$basic_string@DU?$char_traits@D@std@@V?$allocator@D@2@@std@@U?$pair@$$CBV?$basic_string@DU?$char_traits@D@std@@V?$allocator@D@2@@std@@U?$pair@KK@2@@2@U_Kfn@?$map@V?$basic_string@DU?$char_traits@D@std@@V?$allocator@D@2@@std@@U?$pair@KK@2@Ustring_iless@@V?$allocator@U?$pair@KK@std@@@2@@2@Ustring_iless@@V?$allocator@U?$pair@KK@std@@@2@@std@@QBE?AVconst_iterator@12@ABV?$basic_string@DU?$char_traits@D@std@@V?$allocator@D@2@@2@@Z 00494af0 f i ShortcutKey.obj
 0001:00093b90       ?_Init@?$_Tree@V?$basic_string@DU?$char_traits@D@std@@V?$allocator@D@2@@std@@U?$pair@$$CBV?$basic_string@DU?$char_traits@D@std@@V?$allocator@D@2@@std@@U?$pair@KK@2@@2@U_Kfn@?$map@V?$basic_string@DU?$char_traits@D@std@@V?$allocator@D@2@@std@@U?$pair@KK@2@Ustring_iless@@V?$allocator@U?$pair@KK@std@@@2@@2@Ustring_iless@@V?$allocator@U?$pair@KK@std@@@2@@std@@IAEXXZ 00494b90 f i ShortcutKey.obj
 0001:00093c70       ?_Freenode@?$_Tree@V?$basic_string@DU?$char_traits@D@std@@V?$allocator@D@2@@std@@U?$pair@$$CBV?$basic_string@DU?$char_traits@D@std@@V?$allocator@D@2@@std@@U?$pair@KK@2@@2@U_Kfn@?$map@V?$basic_string@DU?$char_traits@D@std@@V?$allocator@D@2@@std@@U?$pair@KK@2@Ustring_iless@@V?$allocator@U?$pair@KK@std@@@2@@2@Ustring_iless@@V?$allocator@U?$pair@KK@std@@@2@@std@@IAEXPAU_Node@12@@Z 00494c70 f i ShortcutKey.obj
 0001:00093c90       ??0?$pair@$$CBV?$basic_string@DU?$char_traits@D@std@@V?$allocator@D@2@@std@@U?$pair@KK@2@@std@@QAE@ABV?$basic_string@DU?$char_traits@D@std@@V?$allocator@D@2@@1@ABU?$pair@KK@1@@Z 00494c90 f i ShortcutKey.obj
 0001:00093cc0       ??0?$pair@KK@std@@QAE@XZ   00494cc0 f i ShortcutKey.obj
 0001:00093cf0       ??Diterator@?$_Tree@V?$basic_string@DU?$char_traits@D@std@@V?$allocator@D@2@@std@@U?$pair@$$CBV?$basic_string@DU?$char_traits@D@std@@V?$allocator@D@2@@std@@U?$pair@KK@2@@2@U_Kfn@?$map@V?$basic_string@DU?$char_traits@D@std@@V?$allocator@D@2@@std@@U?$pair@KK@2@Ustring_iless@@V?$allocator@U?$pair@KK@std@@@2@@2@Ustring_iless@@V?$allocator@U?$pair@KK@std@@@2@@std@@QBEAAU?$pair@$$CBV?$basic_string@DU?$char_traits@D@std@@V?$allocator@D@2@@std@@U?$pair@KK@2@@2@XZ 00494cf0 f i ShortcutKey.obj
 0001:00093d10       ??0ShortFuncInfo@@QAE@ABU0@@Z 00494d10 f i ShortcutKey.obj
 0001:00093d80       ??0?$list@V?$basic_string@DU?$char_traits@D@std@@V?$allocator@D@2@@std@@V?$allocator@V?$basic_string@DU?$char_traits@D@std@@V?$allocator@D@2@@std@@@2@@std@@QAE@ABV01@@Z 00494d80 f i ShortcutKey.obj
 0001:00093df0       ?deallocate@?$allocator@UShortFuncInfo@@@std@@QAEXPAXI@Z 00494df0 f i ShortcutKey.obj
 0001:00093e10       ?size@?$_Tree@V?$basic_string@DU?$char_traits@D@std@@V?$allocator@D@2@@std@@U?$pair@$$CBV?$basic_string@DU?$char_traits@D@std@@V?$allocator@D@2@@std@@UShortFuncInfo@@@2@U_Kfn@?$map@V?$basic_string@DU?$char_traits@D@std@@V?$allocator@D@2@@std@@UShortFuncInfo@@Ustring_iless@@V?$allocator@UShortFuncInfo@@@2@@2@Ustring_iless@@V?$allocator@UShortFuncInfo@@@2@@std@@QBEIXZ 00494e10 f i ShortcutKey.obj
 0001:00093e30       ?insert@?$_Tree@V?$basic_string@DU?$char_traits@D@std@@V?$allocator@D@2@@std@@U?$pair@$$CBV?$basic_string@DU?$char_traits@D@std@@V?$allocator@D@2@@std@@UShortFuncInfo@@@2@U_Kfn@?$map@V?$basic_string@DU?$char_traits@D@std@@V?$allocator@D@2@@std@@UShortFuncInfo@@Ustring_iless@@V?$allocator@UShortFuncInfo@@@2@@2@Ustring_iless@@V?$allocator@UShortFuncInfo@@@2@@std@@QAE?AU?$pair@Viterator@?$_Tree@V?$basic_string@DU?$char_traits@D@std@@V?$allocator@D@2@@std@@U?$pair@$$CBV?$basic_string@DU?$char_traits@D@std@@V?$allocator@D@2@@std@@UShortFuncInfo@@@2@U_Kfn@?$map@V?$basic_string@DU?$char_traits@D@std@@V?$allocator@D@2@@std@@UShortFuncInfo@@Ustring_iless@@V?$allocator@UShortFuncInfo@@@2@@2@Ustring_iless@@V?$allocator@UShortFuncInfo@@@2@@std@@_N@2@ABU?$pair@$$CBV?$basic_string@DU?$char_traits@D@std@@V?$allocator@D@2@@std@@UShortFuncInfo@@@2@@Z 00494e30 f i ShortcutKey.obj
 0001:00094070       ?erase@?$_Tree@V?$basic_string@DU?$char_traits@D@std@@V?$allocator@D@2@@std@@U?$pair@$$CBV?$basic_string@DU?$char_traits@D@std@@V?$allocator@D@2@@std@@UShortFuncInfo@@@2@U_Kfn@?$map@V?$basic_string@DU?$char_traits@D@std@@V?$allocator@D@2@@std@@UShortFuncInfo@@Ustring_iless@@V?$allocator@UShortFuncInfo@@@2@@2@Ustring_iless@@V?$allocator@UShortFuncInfo@@@2@@std@@QAE?AViterator@12@V312@@Z 00495070 f i ShortcutKey.obj
 0001:000948c0       ?_Erase@?$_Tree@V?$basic_string@DU?$char_traits@D@std@@V?$allocator@D@2@@std@@U?$pair@$$CBV?$basic_string@DU?$char_traits@D@std@@V?$allocator@D@2@@std@@UShortFuncInfo@@@2@U_Kfn@?$map@V?$basic_string@DU?$char_traits@D@std@@V?$allocator@D@2@@std@@UShortFuncInfo@@Ustring_iless@@V?$allocator@UShortFuncInfo@@@2@@2@Ustring_iless@@V?$allocator@UShortFuncInfo@@@2@@std@@IAEXPAU_Node@12@@Z 004958c0 f i ShortcutKey.obj
 0001:00094980       ?_Init@?$_Tree@V?$basic_string@DU?$char_traits@D@std@@V?$allocator@D@2@@std@@U?$pair@$$CBV?$basic_string@DU?$char_traits@D@std@@V?$allocator@D@2@@std@@UShortFuncInfo@@@2@U_Kfn@?$map@V?$basic_string@DU?$char_traits@D@std@@V?$allocator@D@2@@std@@UShortFuncInfo@@Ustring_iless@@V?$allocator@UShortFuncInfo@@@2@@2@Ustring_iless@@V?$allocator@UShortFuncInfo@@@2@@std@@IAEXXZ 00495980 f i ShortcutKey.obj
 0001:00094a60       ?_Lmost@?$_Tree@V?$basic_string@DU?$char_traits@D@std@@V?$allocator@D@2@@std@@U?$pair@$$CBV?$basic_string@DU?$char_traits@D@std@@V?$allocator@D@2@@std@@UShortFuncInfo@@@2@U_Kfn@?$map@V?$basic_string@DU?$char_traits@D@std@@V?$allocator@D@2@@std@@UShortFuncInfo@@Ustring_iless@@V?$allocator@UShortFuncInfo@@@2@@2@Ustring_iless@@V?$allocator@UShortFuncInfo@@@2@@std@@IAEAAPAU_Node@12@XZ 00495a60 f i ShortcutKey.obj
 0001:00094a80       ?_Rmost@?$_Tree@V?$basic_string@DU?$char_traits@D@std@@V?$allocator@D@2@@std@@U?$pair@$$CBV?$basic_string@DU?$char_traits@D@std@@V?$allocator@D@2@@std@@UShortFuncInfo@@@2@U_Kfn@?$map@V?$basic_string@DU?$char_traits@D@std@@V?$allocator@D@2@@std@@UShortFuncInfo@@Ustring_iless@@V?$allocator@UShortFuncInfo@@@2@@2@Ustring_iless@@V?$allocator@UShortFuncInfo@@@2@@std@@IAEAAPAU_Node@12@XZ 00495a80 f i ShortcutKey.obj
 0001:00094aa0       ?_Root@?$_Tree@V?$basic_string@DU?$char_traits@D@std@@V?$allocator@D@2@@std@@U?$pair@$$CBV?$basic_string@DU?$char_traits@D@std@@V?$allocator@D@2@@std@@UShortFuncInfo@@@2@U_Kfn@?$map@V?$basic_string@DU?$char_traits@D@std@@V?$allocator@D@2@@std@@UShortFuncInfo@@Ustring_iless@@V?$allocator@UShortFuncInfo@@@2@@2@Ustring_iless@@V?$allocator@UShortFuncInfo@@@2@@std@@IAEAAPAU_Node@12@XZ 00495aa0 f i ShortcutKey.obj
 0001:00094ac0       ?_Inc@const_iterator@?$_Tree@V?$basic_string@DU?$char_traits@D@std@@V?$allocator@D@2@@std@@U?$pair@$$CBV?$basic_string@DU?$char_traits@D@std@@V?$allocator@D@2@@std@@UShortFuncInfo@@@2@U_Kfn@?$map@V?$basic_string@DU?$char_traits@D@std@@V?$allocator@D@2@@std@@UShortFuncInfo@@Ustring_iless@@V?$allocator@UShortFuncInfo@@@2@@2@Ustring_iless@@V?$allocator@UShortFuncInfo@@@2@@std@@QAEXXZ 00495ac0 f i ShortcutKey.obj
 0001:00094ba0       ?deallocate@?$allocator@U?$pair@KK@std@@@std@@QAEXPAXI@Z 00495ba0 f i ShortcutKey.obj
 0001:00094bc0       ?_Key@?$_Tree@V?$basic_string@DU?$char_traits@D@std@@V?$allocator@D@2@@std@@U?$pair@$$CBV?$basic_string@DU?$char_traits@D@std@@V?$allocator@D@2@@std@@U?$pair@KK@2@@2@U_Kfn@?$map@V?$basic_string@DU?$char_traits@D@std@@V?$allocator@D@2@@std@@U?$pair@KK@2@Ustring_iless@@V?$allocator@U?$pair@KK@std@@@2@@2@Ustring_iless@@V?$allocator@U?$pair@KK@std@@@2@@std@@KAABV?$basic_string@DU?$char_traits@D@std@@V?$allocator@D@2@@2@PAU_Node@12@@Z 00495bc0 f i ShortcutKey.obj
 0001:00094be0       ?_Left@?$_Tree@V?$basic_string@DU?$char_traits@D@std@@V?$allocator@D@2@@std@@U?$pair@$$CBV?$basic_string@DU?$char_traits@D@std@@V?$allocator@D@2@@std@@U?$pair@KK@2@@2@U_Kfn@?$map@V?$basic_string@DU?$char_traits@D@std@@V?$allocator@D@2@@std@@U?$pair@KK@2@Ustring_iless@@V?$allocator@U?$pair@KK@std@@@2@@2@Ustring_iless@@V?$allocator@U?$pair@KK@std@@@2@@std@@KAAAPAU_Node@12@PAU312@@Z 00495be0 f i ShortcutKey.obj
 0001:00094bf0       ?_Right@?$_Tree@V?$basic_string@DU?$char_traits@D@std@@V?$allocator@D@2@@std@@U?$pair@$$CBV?$basic_string@DU?$char_traits@D@std@@V?$allocator@D@2@@std@@U?$pair@KK@2@@2@U_Kfn@?$map@V?$basic_string@DU?$char_traits@D@std@@V?$allocator@D@2@@std@@U?$pair@KK@2@Ustring_iless@@V?$allocator@U?$pair@KK@std@@@2@@2@Ustring_iless@@V?$allocator@U?$pair@KK@std@@@2@@std@@KAAAPAU_Node@12@PAU312@@Z 00495bf0 f i ShortcutKey.obj
 0001:00094c00       ?size@?$_Tree@V?$basic_string@DU?$char_traits@D@std@@V?$allocator@D@2@@std@@U?$pair@$$CBV?$basic_string@DU?$char_traits@D@std@@V?$allocator@D@2@@std@@U?$pair@KK@2@@2@U_Kfn@?$map@V?$basic_string@DU?$char_traits@D@std@@V?$allocator@D@2@@std@@U?$pair@KK@2@Ustring_iless@@V?$allocator@U?$pair@KK@std@@@2@@2@Ustring_iless@@V?$allocator@U?$pair@KK@std@@@2@@std@@QBEIXZ 00495c00 f i ShortcutKey.obj
 0001:00094c20       ?insert@?$_Tree@V?$basic_string@DU?$char_traits@D@std@@V?$allocator@D@2@@std@@U?$pair@$$CBV?$basic_string@DU?$char_traits@D@std@@V?$allocator@D@2@@std@@U?$pair@KK@2@@2@U_Kfn@?$map@V?$basic_string@DU?$char_traits@D@std@@V?$allocator@D@2@@std@@U?$pair@KK@2@Ustring_iless@@V?$allocator@U?$pair@KK@std@@@2@@2@Ustring_iless@@V?$allocator@U?$pair@KK@std@@@2@@std@@QAE?AU?$pair@Viterator@?$_Tree@V?$basic_string@DU?$char_traits@D@std@@V?$allocator@D@2@@std@@U?$pair@$$CBV?$basic_string@DU?$char_traits@D@std@@V?$allocator@D@2@@std@@U?$pair@KK@2@@2@U_Kfn@?$map@V?$basic_string@DU?$char_traits@D@std@@V?$allocator@D@2@@std@@U?$pair@KK@2@Ustring_iless@@V?$allocator@U?$pair@KK@std@@@2@@2@Ustring_iless@@V?$allocator@U?$pair@KK@std@@@2@@std@@_N@2@ABU?$pair@$$CBV?$basic_string@DU?$char_traits@D@std@@V?$allocator@D@2@@std@@U?$pair@KK@2@@2@@Z 00495c20 f i ShortcutKey.obj
 0001:00094e60       ?erase@?$_Tree@V?$basic_string@DU?$char_traits@D@std@@V?$allocator@D@2@@std@@U?$pair@$$CBV?$basic_string@DU?$char_traits@D@std@@V?$allocator@D@2@@std@@U?$pair@KK@2@@2@U_Kfn@?$map@V?$basic_string@DU?$char_traits@D@std@@V?$allocator@D@2@@std@@U?$pair@KK@2@Ustring_iless@@V?$allocator@U?$pair@KK@std@@@2@@2@Ustring_iless@@V?$allocator@U?$pair@KK@std@@@2@@std@@QAE?AViterator@12@V312@@Z 00495e60 f i ShortcutKey.obj
 0001:000956b0       ?lower_bound@?$_Tree@V?$basic_string@DU?$char_traits@D@std@@V?$allocator@D@2@@std@@U?$pair@$$CBV?$basic_string@DU?$char_traits@D@std@@V?$allocator@D@2@@std@@U?$pair@KK@2@@2@U_Kfn@?$map@V?$basic_string@DU?$char_traits@D@std@@V?$allocator@D@2@@std@@U?$pair@KK@2@Ustring_iless@@V?$allocator@U?$pair@KK@std@@@2@@2@Ustring_iless@@V?$allocator@U?$pair@KK@std@@@2@@std@@QBE?AVconst_iterator@12@ABV?$basic_string@DU?$char_traits@D@std@@V?$allocator@D@2@@2@@Z 004966b0 f i ShortcutKey.obj
 0001:000956e0       ?_Erase@?$_Tree@V?$basic_string@DU?$char_traits@D@std@@V?$allocator@D@2@@std@@U?$pair@$$CBV?$basic_string@DU?$char_traits@D@std@@V?$allocator@D@2@@std@@U?$pair@KK@2@@2@U_Kfn@?$map@V?$basic_string@DU?$char_traits@D@std@@V?$allocator@D@2@@std@@U?$pair@KK@2@Ustring_iless@@V?$allocator@U?$pair@KK@std@@@2@@2@Ustring_iless@@V?$allocator@U?$pair@KK@std@@@2@@std@@IAEXPAU_Node@12@@Z 004966e0 f i ShortcutKey.obj
 0001:000957a0       ?_Lmost@?$_Tree@V?$basic_string@DU?$char_traits@D@std@@V?$allocator@D@2@@std@@U?$pair@$$CBV?$basic_string@DU?$char_traits@D@std@@V?$allocator@D@2@@std@@U?$pair@KK@2@@2@U_Kfn@?$map@V?$basic_string@DU?$char_traits@D@std@@V?$allocator@D@2@@std@@U?$pair@KK@2@Ustring_iless@@V?$allocator@U?$pair@KK@std@@@2@@2@Ustring_iless@@V?$allocator@U?$pair@KK@std@@@2@@std@@IAEAAPAU_Node@12@XZ 004967a0 f i ShortcutKey.obj
 0001:000957c0       ?_Max@?$_Tree@V?$basic_string@DU?$char_traits@D@std@@V?$allocator@D@2@@std@@U?$pair@$$CBV?$basic_string@DU?$char_traits@D@std@@V?$allocator@D@2@@std@@U?$pair@KK@2@@2@U_Kfn@?$map@V?$basic_string@DU?$char_traits@D@std@@V?$allocator@D@2@@std@@U?$pair@KK@2@Ustring_iless@@V?$allocator@U?$pair@KK@std@@@2@@2@Ustring_iless@@V?$allocator@U?$pair@KK@std@@@2@@std@@KAPAU_Node@12@PAU312@@Z 004967c0 f i ShortcutKey.obj
 0001:00095840       ?_Min@?$_Tree@V?$basic_string@DU?$char_traits@D@std@@V?$allocator@D@2@@std@@U?$pair@$$CBV?$basic_string@DU?$char_traits@D@std@@V?$allocator@D@2@@std@@U?$pair@KK@2@@2@U_Kfn@?$map@V?$basic_string@DU?$char_traits@D@std@@V?$allocator@D@2@@std@@U?$pair@KK@2@Ustring_iless@@V?$allocator@U?$pair@KK@std@@@2@@2@Ustring_iless@@V?$allocator@U?$pair@KK@std@@@2@@std@@KAPAU_Node@12@PAU312@@Z 00496840 f i ShortcutKey.obj
 0001:000958c0       ?_Rmost@?$_Tree@V?$basic_string@DU?$char_traits@D@std@@V?$allocator@D@2@@std@@U?$pair@$$CBV?$basic_string@DU?$char_traits@D@std@@V?$allocator@D@2@@std@@U?$pair@KK@2@@2@U_Kfn@?$map@V?$basic_string@DU?$char_traits@D@std@@V?$allocator@D@2@@std@@U?$pair@KK@2@Ustring_iless@@V?$allocator@U?$pair@KK@std@@@2@@2@Ustring_iless@@V?$allocator@U?$pair@KK@std@@@2@@std@@IAEAAPAU_Node@12@XZ 004968c0 f i ShortcutKey.obj
 0001:000958e0       ?_Root@?$_Tree@V?$basic_string@DU?$char_traits@D@std@@V?$allocator@D@2@@std@@U?$pair@$$CBV?$basic_string@DU?$char_traits@D@std@@V?$allocator@D@2@@std@@U?$pair@KK@2@@2@U_Kfn@?$map@V?$basic_string@DU?$char_traits@D@std@@V?$allocator@D@2@@std@@U?$pair@KK@2@Ustring_iless@@V?$allocator@U?$pair@KK@std@@@2@@2@Ustring_iless@@V?$allocator@U?$pair@KK@std@@@2@@std@@IAEAAPAU_Node@12@XZ 004968e0 f i ShortcutKey.obj
 0001:00095900       ?_Buynode@?$_Tree@V?$basic_string@DU?$char_traits@D@std@@V?$allocator@D@2@@std@@U?$pair@$$CBV?$basic_string@DU?$char_traits@D@std@@V?$allocator@D@2@@std@@U?$pair@KK@2@@2@U_Kfn@?$map@V?$basic_string@DU?$char_traits@D@std@@V?$allocator@D@2@@std@@U?$pair@KK@2@Ustring_iless@@V?$allocator@U?$pair@KK@std@@@2@@2@Ustring_iless@@V?$allocator@U?$pair@KK@std@@@2@@std@@IAEPAU_Node@12@PAU312@W4_Redbl@12@@Z 00496900 f i ShortcutKey.obj
 0001:00095950       ??0const_iterator@?$_Tree@V?$basic_string@DU?$char_traits@D@std@@V?$allocator@D@2@@std@@U?$pair@$$CBV?$basic_string@DU?$char_traits@D@std@@V?$allocator@D@2@@std@@U?$pair@KK@2@@2@U_Kfn@?$map@V?$basic_string@DU?$char_traits@D@std@@V?$allocator@D@2@@std@@U?$pair@KK@2@Ustring_iless@@V?$allocator@U?$pair@KK@std@@@2@@2@Ustring_iless@@V?$allocator@U?$pair@KK@std@@@2@@std@@QAE@PAU_Node@12@@Z 00496950 f i ShortcutKey.obj
 0001:00095970       ?_Mynode@const_iterator@?$_Tree@V?$basic_string@DU?$char_traits@D@std@@V?$allocator@D@2@@std@@U?$pair@$$CBV?$basic_string@DU?$char_traits@D@std@@V?$allocator@D@2@@std@@U?$pair@KK@2@@2@U_Kfn@?$map@V?$basic_string@DU?$char_traits@D@std@@V?$allocator@D@2@@std@@U?$pair@KK@2@Ustring_iless@@V?$allocator@U?$pair@KK@std@@@2@@2@Ustring_iless@@V?$allocator@U?$pair@KK@std@@@2@@std@@QBEPAU_Node@23@XZ 00496970 f i ShortcutKey.obj
 0001:00095980       ??0iterator@?$_Tree@V?$basic_string@DU?$char_traits@D@std@@V?$allocator@D@2@@std@@U?$pair@$$CBV?$basic_string@DU?$char_traits@D@std@@V?$allocator@D@2@@std@@U?$pair@KK@2@@2@U_Kfn@?$map@V?$basic_string@DU?$char_traits@D@std@@V?$allocator@D@2@@std@@U?$pair@KK@2@Ustring_iless@@V?$allocator@U?$pair@KK@std@@@2@@2@Ustring_iless@@V?$allocator@U?$pair@KK@std@@@2@@std@@QAE@PAU_Node@12@@Z 00496980 f i ShortcutKey.obj
 0001:000959a0       ??Eiterator@?$_Tree@V?$basic_string@DU?$char_traits@D@std@@V?$allocator@D@2@@std@@U?$pair@$$CBV?$basic_string@DU?$char_traits@D@std@@V?$allocator@D@2@@std@@U?$pair@KK@2@@2@U_Kfn@?$map@V?$basic_string@DU?$char_traits@D@std@@V?$allocator@D@2@@std@@U?$pair@KK@2@Ustring_iless@@V?$allocator@U?$pair@KK@std@@@2@@2@Ustring_iless@@V?$allocator@U?$pair@KK@std@@@2@@std@@QAE?AV012@H@Z 004969a0 f i ShortcutKey.obj
 0001:000959d0       ??9iterator@?$_Tree@V?$basic_string@DU?$char_traits@D@std@@V?$allocator@D@2@@std@@U?$pair@$$CBV?$basic_string@DU?$char_traits@D@std@@V?$allocator@D@2@@std@@U?$pair@KK@2@@2@U_Kfn@?$map@V?$basic_string@DU?$char_traits@D@std@@V?$allocator@D@2@@std@@U?$pair@KK@2@Ustring_iless@@V?$allocator@U?$pair@KK@std@@@2@@2@Ustring_iless@@V?$allocator@U?$pair@KK@std@@@2@@std@@QBE_NABV012@@Z 004969d0 f i ShortcutKey.obj
 0001:00095a00       ??0?$pair@Viterator@?$_Tree@V?$basic_string@DU?$char_traits@D@std@@V?$allocator@D@2@@std@@U?$pair@$$CBV?$basic_string@DU?$char_traits@D@std@@V?$allocator@D@2@@std@@UShortFuncInfo@@@2@U_Kfn@?$map@V?$basic_string@DU?$char_traits@D@std@@V?$allocator@D@2@@std@@UShortFuncInfo@@Ustring_iless@@V?$allocator@UShortFuncInfo@@@2@@2@Ustring_iless@@V?$allocator@UShortFuncInfo@@@2@@std@@_N@std@@QAE@ABViterator@?$_Tree@V?$basic_string@DU?$char_traits@D@std@@V?$allocator@D@2@@std@@U?$pair@$$CBV?$basic_string@DU?$char_traits@D@std@@V?$allocator@D@2@@std@@UShortFuncInfo@@@2@U_Kfn@?$map@V?$basic_string@DU?$char_traits@D@std@@V?$allocator@D@2@@std@@UShortFuncInfo@@Ustring_iless@@V?$allocator@UShortFuncInfo@@@2@@2@Ustring_iless@@V?$allocator@UShortFuncInfo@@@2@@1@AB_N@Z 00496a00 f i ShortcutKey.obj
 0001:00095a30       ??0?$pair@Viterator@?$_Tree@V?$basic_string@DU?$char_traits@D@std@@V?$allocator@D@2@@std@@U?$pair@$$CBV?$basic_string@DU?$char_traits@D@std@@V?$allocator@D@2@@std@@U?$pair@KK@2@@2@U_Kfn@?$map@V?$basic_string@DU?$char_traits@D@std@@V?$allocator@D@2@@std@@U?$pair@KK@2@Ustring_iless@@V?$allocator@U?$pair@KK@std@@@2@@2@Ustring_iless@@V?$allocator@U?$pair@KK@std@@@2@@std@@_N@std@@QAE@ABViterator@?$_Tree@V?$basic_string@DU?$char_traits@D@std@@V?$allocator@D@2@@std@@U?$pair@$$CBV?$basic_string@DU?$char_traits@D@std@@V?$allocator@D@2@@std@@U?$pair@KK@2@@2@U_Kfn@?$map@V?$basic_string@DU?$char_traits@D@std@@V?$allocator@D@2@@std@@U?$pair@KK@2@Ustring_iless@@V?$allocator@U?$pair@KK@std@@@2@@2@Ustring_iless@@V?$allocator@U?$pair@KK@std@@@2@@1@AB_N@Z 00496a30 f i ShortcutKey.obj
 0001:00095a60       ?_Color@?$_Tree@V?$basic_string@DU?$char_traits@D@std@@V?$allocator@D@2@@std@@U?$pair@$$CBV?$basic_string@DU?$char_traits@D@std@@V?$allocator@D@2@@std@@UShortFuncInfo@@@2@U_Kfn@?$map@V?$basic_string@DU?$char_traits@D@std@@V?$allocator@D@2@@std@@UShortFuncInfo@@Ustring_iless@@V?$allocator@UShortFuncInfo@@@2@@2@Ustring_iless@@V?$allocator@UShortFuncInfo@@@2@@std@@KAAAW4_Redbl@12@PAU_Node@12@@Z 00496a60 f i ShortcutKey.obj
 0001:00095a70       ?_Insert@?$_Tree@V?$basic_string@DU?$char_traits@D@std@@V?$allocator@D@2@@std@@U?$pair@$$CBV?$basic_string@DU?$char_traits@D@std@@V?$allocator@D@2@@std@@UShortFuncInfo@@@2@U_Kfn@?$map@V?$basic_string@DU?$char_traits@D@std@@V?$allocator@D@2@@std@@UShortFuncInfo@@Ustring_iless@@V?$allocator@UShortFuncInfo@@@2@@2@Ustring_iless@@V?$allocator@UShortFuncInfo@@@2@@std@@IAE?AViterator@12@PAU_Node@12@0ABU?$pair@$$CBV?$basic_string@DU?$char_traits@D@std@@V?$allocator@D@2@@std@@UShortFuncInfo@@@2@@Z 00496a70 f i ShortcutKey.obj
 0001:00095f40       ?_Lrotate@?$_Tree@V?$basic_string@DU?$char_traits@D@std@@V?$allocator@D@2@@std@@U?$pair@$$CBV?$basic_string@DU?$char_traits@D@std@@V?$allocator@D@2@@std@@UShortFuncInfo@@@2@U_Kfn@?$map@V?$basic_string@DU?$char_traits@D@std@@V?$allocator@D@2@@std@@UShortFuncInfo@@Ustring_iless@@V?$allocator@UShortFuncInfo@@@2@@2@Ustring_iless@@V?$allocator@UShortFuncInfo@@@2@@std@@IAEXPAU_Node@12@@Z 00496f40 f i ShortcutKey.obj
 0001:000960b0       ?_Max@?$_Tree@V?$basic_string@DU?$char_traits@D@std@@V?$allocator@D@2@@std@@U?$pair@$$CBV?$basic_string@DU?$char_traits@D@std@@V?$allocator@D@2@@std@@UShortFuncInfo@@@2@U_Kfn@?$map@V?$basic_string@DU?$char_traits@D@std@@V?$allocator@D@2@@std@@UShortFuncInfo@@Ustring_iless@@V?$allocator@UShortFuncInfo@@@2@@2@Ustring_iless@@V?$allocator@UShortFuncInfo@@@2@@std@@KAPAU_Node@12@PAU312@@Z 004970b0 f i ShortcutKey.obj
 0001:00096130       ?_Min@?$_Tree@V?$basic_string@DU?$char_traits@D@std@@V?$allocator@D@2@@std@@U?$pair@$$CBV?$basic_string@DU?$char_traits@D@std@@V?$allocator@D@2@@std@@UShortFuncInfo@@@2@U_Kfn@?$map@V?$basic_string@DU?$char_traits@D@std@@V?$allocator@D@2@@std@@UShortFuncInfo@@Ustring_iless@@V?$allocator@UShortFuncInfo@@@2@@2@Ustring_iless@@V?$allocator@UShortFuncInfo@@@2@@std@@KAPAU_Node@12@PAU312@@Z 00497130 f i ShortcutKey.obj
 0001:000961b0       ?_Rrotate@?$_Tree@V?$basic_string@DU?$char_traits@D@std@@V?$allocator@D@2@@std@@U?$pair@$$CBV?$basic_string@DU?$char_traits@D@std@@V?$allocator@D@2@@std@@UShortFuncInfo@@@2@U_Kfn@?$map@V?$basic_string@DU?$char_traits@D@std@@V?$allocator@D@2@@std@@UShortFuncInfo@@Ustring_iless@@V?$allocator@UShortFuncInfo@@@2@@2@Ustring_iless@@V?$allocator@UShortFuncInfo@@@2@@std@@IAEXPAU_Node@12@@Z 004971b0 f i ShortcutKey.obj
 0001:00096320       ?_Buynode@?$_Tree@V?$basic_string@DU?$char_traits@D@std@@V?$allocator@D@2@@std@@U?$pair@$$CBV?$basic_string@DU?$char_traits@D@std@@V?$allocator@D@2@@std@@UShortFuncInfo@@@2@U_Kfn@?$map@V?$basic_string@DU?$char_traits@D@std@@V?$allocator@D@2@@std@@UShortFuncInfo@@Ustring_iless@@V?$allocator@UShortFuncInfo@@@2@@2@Ustring_iless@@V?$allocator@UShortFuncInfo@@@2@@std@@IAEPAU_Node@12@PAU312@W4_Redbl@12@@Z 00497320 f i ShortcutKey.obj
 0001:00096370       ?_Destval@?$_Tree@V?$basic_string@DU?$char_traits@D@std@@V?$allocator@D@2@@std@@U?$pair@$$CBV?$basic_string@DU?$char_traits@D@std@@V?$allocator@D@2@@std@@UShortFuncInfo@@@2@U_Kfn@?$map@V?$basic_string@DU?$char_traits@D@std@@V?$allocator@D@2@@std@@UShortFuncInfo@@Ustring_iless@@V?$allocator@UShortFuncInfo@@@2@@2@Ustring_iless@@V?$allocator@UShortFuncInfo@@@2@@std@@IAEXPAU?$pair@$$CBV?$basic_string@DU?$char_traits@D@std@@V?$allocator@D@2@@std@@UShortFuncInfo@@@2@@Z 00497370 f i ShortcutKey.obj
 0001:00096390       ??Fiterator@?$_Tree@V?$basic_string@DU?$char_traits@D@std@@V?$allocator@D@2@@std@@U?$pair@$$CBV?$basic_string@DU?$char_traits@D@std@@V?$allocator@D@2@@std@@UShortFuncInfo@@@2@U_Kfn@?$map@V?$basic_string@DU?$char_traits@D@std@@V?$allocator@D@2@@std@@UShortFuncInfo@@Ustring_iless@@V?$allocator@UShortFuncInfo@@@2@@2@Ustring_iless@@V?$allocator@UShortFuncInfo@@@2@@std@@QAEAAV012@XZ 00497390 f i ShortcutKey.obj
 0001:000963b0       ??R_Kfn@?$map@V?$basic_string@DU?$char_traits@D@std@@V?$allocator@D@2@@std@@U?$pair@KK@2@Ustring_iless@@V?$allocator@U?$pair@KK@std@@@2@@std@@QBEABV?$basic_string@DU?$char_traits@D@std@@V?$allocator@D@2@@2@ABU?$pair@$$CBV?$basic_string@DU?$char_traits@D@std@@V?$allocator@D@2@@std@@U?$pair@KK@2@@2@@Z 004973b0 f i ShortcutKey.obj
 0001:000963c0       ?_Charalloc@?$allocator@U?$pair@KK@std@@@std@@QAEPADI@Z 004973c0 f i ShortcutKey.obj
 0001:000963e0       ?_Color@?$_Tree@V?$basic_string@DU?$char_traits@D@std@@V?$allocator@D@2@@std@@U?$pair@$$CBV?$basic_string@DU?$char_traits@D@std@@V?$allocator@D@2@@std@@U?$pair@KK@2@@2@U_Kfn@?$map@V?$basic_string@DU?$char_traits@D@std@@V?$allocator@D@2@@std@@U?$pair@KK@2@Ustring_iless@@V?$allocator@U?$pair@KK@std@@@2@@2@Ustring_iless@@V?$allocator@U?$pair@KK@std@@@2@@std@@KAAAW4_Redbl@12@PAU_Node@12@@Z 004973e0 f i ShortcutKey.obj
 0001:000963f0       ?_Parent@?$_Tree@V?$basic_string@DU?$char_traits@D@std@@V?$allocator@D@2@@std@@U?$pair@$$CBV?$basic_string@DU?$char_traits@D@std@@V?$allocator@D@2@@std@@U?$pair@KK@2@@2@U_Kfn@?$map@V?$basic_string@DU?$char_traits@D@std@@V?$allocator@D@2@@std@@U?$pair@KK@2@Ustring_iless@@V?$allocator@U?$pair@KK@std@@@2@@2@Ustring_iless@@V?$allocator@U?$pair@KK@std@@@2@@std@@KAAAPAU_Node@12@PAU312@@Z 004973f0 f i ShortcutKey.obj
 0001:00096400       ?_Insert@?$_Tree@V?$basic_string@DU?$char_traits@D@std@@V?$allocator@D@2@@std@@U?$pair@$$CBV?$basic_string@DU?$char_traits@D@std@@V?$allocator@D@2@@std@@U?$pair@KK@2@@2@U_Kfn@?$map@V?$basic_string@DU?$char_traits@D@std@@V?$allocator@D@2@@std@@U?$pair@KK@2@Ustring_iless@@V?$allocator@U?$pair@KK@std@@@2@@2@Ustring_iless@@V?$allocator@U?$pair@KK@std@@@2@@std@@IAE?AViterator@12@PAU_Node@12@0ABU?$pair@$$CBV?$basic_string@DU?$char_traits@D@std@@V?$allocator@D@2@@std@@U?$pair@KK@2@@2@@Z 00497400 f i ShortcutKey.obj
 0001:000968d0       ?_Lbound@?$_Tree@V?$basic_string@DU?$char_traits@D@std@@V?$allocator@D@2@@std@@U?$pair@$$CBV?$basic_string@DU?$char_traits@D@std@@V?$allocator@D@2@@std@@U?$pair@KK@2@@2@U_Kfn@?$map@V?$basic_string@DU?$char_traits@D@std@@V?$allocator@D@2@@std@@U?$pair@KK@2@Ustring_iless@@V?$allocator@U?$pair@KK@std@@@2@@2@Ustring_iless@@V?$allocator@U?$pair@KK@std@@@2@@std@@IBEPAU_Node@12@ABV?$basic_string@DU?$char_traits@D@std@@V?$allocator@D@2@@2@@Z 004978d0 f i ShortcutKey.obj
 0001:000969a0       ?_Root@?$_Tree@V?$basic_string@DU?$char_traits@D@std@@V?$allocator@D@2@@std@@U?$pair@$$CBV?$basic_string@DU?$char_traits@D@std@@V?$allocator@D@2@@std@@U?$pair@KK@2@@2@U_Kfn@?$map@V?$basic_string@DU?$char_traits@D@std@@V?$allocator@D@2@@std@@U?$pair@KK@2@Ustring_iless@@V?$allocator@U?$pair@KK@std@@@2@@2@Ustring_iless@@V?$allocator@U?$pair@KK@std@@@2@@std@@IBEAAPAU_Node@12@XZ 004979a0 f i ShortcutKey.obj
 0001:000969c0       ?_Lrotate@?$_Tree@V?$basic_string@DU?$char_traits@D@std@@V?$allocator@D@2@@std@@U?$pair@$$CBV?$basic_string@DU?$char_traits@D@std@@V?$allocator@D@2@@std@@U?$pair@KK@2@@2@U_Kfn@?$map@V?$basic_string@DU?$char_traits@D@std@@V?$allocator@D@2@@std@@U?$pair@KK@2@Ustring_iless@@V?$allocator@U?$pair@KK@std@@@2@@2@Ustring_iless@@V?$allocator@U?$pair@KK@std@@@2@@std@@IAEXPAU_Node@12@@Z 004979c0 f i ShortcutKey.obj
 0001:00096b30       ?_Rrotate@?$_Tree@V?$basic_string@DU?$char_traits@D@std@@V?$allocator@D@2@@std@@U?$pair@$$CBV?$basic_string@DU?$char_traits@D@std@@V?$allocator@D@2@@std@@U?$pair@KK@2@@2@U_Kfn@?$map@V?$basic_string@DU?$char_traits@D@std@@V?$allocator@D@2@@std@@U?$pair@KK@2@Ustring_iless@@V?$allocator@U?$pair@KK@std@@@2@@2@Ustring_iless@@V?$allocator@U?$pair@KK@std@@@2@@std@@IAEXPAU_Node@12@@Z 00497b30 f i ShortcutKey.obj
 0001:00096ca0       ?_Consval@?$_Tree@V?$basic_string@DU?$char_traits@D@std@@V?$allocator@D@2@@std@@U?$pair@$$CBV?$basic_string@DU?$char_traits@D@std@@V?$allocator@D@2@@std@@U?$pair@KK@2@@2@U_Kfn@?$map@V?$basic_string@DU?$char_traits@D@std@@V?$allocator@D@2@@std@@U?$pair@KK@2@Ustring_iless@@V?$allocator@U?$pair@KK@std@@@2@@2@Ustring_iless@@V?$allocator@U?$pair@KK@std@@@2@@std@@IAEXPAU?$pair@$$CBV?$basic_string@DU?$char_traits@D@std@@V?$allocator@D@2@@std@@U?$pair@KK@2@@2@ABU32@@Z 00497ca0 f i ShortcutKey.obj
 0001:00096cc0       ?_Destval@?$_Tree@V?$basic_string@DU?$char_traits@D@std@@V?$allocator@D@2@@std@@U?$pair@$$CBV?$basic_string@DU?$char_traits@D@std@@V?$allocator@D@2@@std@@U?$pair@KK@2@@2@U_Kfn@?$map@V?$basic_string@DU?$char_traits@D@std@@V?$allocator@D@2@@std@@U?$pair@KK@2@Ustring_iless@@V?$allocator@U?$pair@KK@std@@@2@@2@Ustring_iless@@V?$allocator@U?$pair@KK@std@@@2@@std@@IAEXPAU?$pair@$$CBV?$basic_string@DU?$char_traits@D@std@@V?$allocator@D@2@@std@@U?$pair@KK@2@@2@@Z 00497cc0 f i ShortcutKey.obj
 0001:00096ce0       ??Eiterator@?$_Tree@V?$basic_string@DU?$char_traits@D@std@@V?$allocator@D@2@@std@@U?$pair@$$CBV?$basic_string@DU?$char_traits@D@std@@V?$allocator@D@2@@std@@U?$pair@KK@2@@2@U_Kfn@?$map@V?$basic_string@DU?$char_traits@D@std@@V?$allocator@D@2@@std@@U?$pair@KK@2@Ustring_iless@@V?$allocator@U?$pair@KK@std@@@2@@2@Ustring_iless@@V?$allocator@U?$pair@KK@std@@@2@@std@@QAEAAV012@XZ 00497ce0 f i ShortcutKey.obj
 0001:00096d00       ??Fiterator@?$_Tree@V?$basic_string@DU?$char_traits@D@std@@V?$allocator@D@2@@std@@U?$pair@$$CBV?$basic_string@DU?$char_traits@D@std@@V?$allocator@D@2@@std@@U?$pair@KK@2@@2@U_Kfn@?$map@V?$basic_string@DU?$char_traits@D@std@@V?$allocator@D@2@@std@@U?$pair@KK@2@Ustring_iless@@V?$allocator@U?$pair@KK@std@@@2@@2@Ustring_iless@@V?$allocator@U?$pair@KK@std@@@2@@std@@QAEAAV012@XZ 00497d00 f i ShortcutKey.obj
 0001:00096d20       ??8iterator@?$_Tree@V?$basic_string@DU?$char_traits@D@std@@V?$allocator@D@2@@std@@U?$pair@$$CBV?$basic_string@DU?$char_traits@D@std@@V?$allocator@D@2@@std@@U?$pair@KK@2@@2@U_Kfn@?$map@V?$basic_string@DU?$char_traits@D@std@@V?$allocator@D@2@@std@@U?$pair@KK@2@Ustring_iless@@V?$allocator@U?$pair@KK@std@@@2@@2@Ustring_iless@@V?$allocator@U?$pair@KK@std@@@2@@std@@QBE_NABV012@@Z 00497d20 f i ShortcutKey.obj
 0001:00096d40       ?_Charalloc@?$allocator@UShortFuncInfo@@@std@@QAEPADI@Z 00497d40 f i ShortcutKey.obj
 0001:00096d60       ?_Consval@?$_Tree@V?$basic_string@DU?$char_traits@D@std@@V?$allocator@D@2@@std@@U?$pair@$$CBV?$basic_string@DU?$char_traits@D@std@@V?$allocator@D@2@@std@@UShortFuncInfo@@@2@U_Kfn@?$map@V?$basic_string@DU?$char_traits@D@std@@V?$allocator@D@2@@std@@UShortFuncInfo@@Ustring_iless@@V?$allocator@UShortFuncInfo@@@2@@2@Ustring_iless@@V?$allocator@UShortFuncInfo@@@2@@std@@IAEXPAU?$pair@$$CBV?$basic_string@DU?$char_traits@D@std@@V?$allocator@D@2@@std@@UShortFuncInfo@@@2@ABU32@@Z 00497d60 f i ShortcutKey.obj
 0001:00096d80       ?_Dec@const_iterator@?$_Tree@V?$basic_string@DU?$char_traits@D@std@@V?$allocator@D@2@@std@@U?$pair@$$CBV?$basic_string@DU?$char_traits@D@std@@V?$allocator@D@2@@std@@UShortFuncInfo@@@2@U_Kfn@?$map@V?$basic_string@DU?$char_traits@D@std@@V?$allocator@D@2@@std@@UShortFuncInfo@@Ustring_iless@@V?$allocator@UShortFuncInfo@@@2@@2@Ustring_iless@@V?$allocator@UShortFuncInfo@@@2@@std@@QAEXXZ 00497d80 f i ShortcutKey.obj
 0001:00096e90       ?_Dec@const_iterator@?$_Tree@V?$basic_string@DU?$char_traits@D@std@@V?$allocator@D@2@@std@@U?$pair@$$CBV?$basic_string@DU?$char_traits@D@std@@V?$allocator@D@2@@std@@U?$pair@KK@2@@2@U_Kfn@?$map@V?$basic_string@DU?$char_traits@D@std@@V?$allocator@D@2@@std@@U?$pair@KK@2@Ustring_iless@@V?$allocator@U?$pair@KK@std@@@2@@2@Ustring_iless@@V?$allocator@U?$pair@KK@std@@@2@@std@@QAEXXZ 00497e90 f i ShortcutKey.obj
 0001:00096fa0       ?_Inc@const_iterator@?$_Tree@V?$basic_string@DU?$char_traits@D@std@@V?$allocator@D@2@@std@@U?$pair@$$CBV?$basic_string@DU?$char_traits@D@std@@V?$allocator@D@2@@std@@U?$pair@KK@2@@2@U_Kfn@?$map@V?$basic_string@DU?$char_traits@D@std@@V?$allocator@D@2@@std@@U?$pair@KK@2@Ustring_iless@@V?$allocator@U?$pair@KK@std@@@2@@2@Ustring_iless@@V?$allocator@U?$pair@KK@std@@@2@@std@@QAEXXZ 00497fa0 f i ShortcutKey.obj
 0001:00097080       ?make_pair@std@@YA?AU?$pair@KK@1@ABK0@Z 00498080 f i ShortcutKey.obj
 0001:000970b0       ?swap@std@@YAXAAW4_Redbl@?$_Tree@V?$basic_string@DU?$char_traits@D@std@@V?$allocator@D@2@@std@@U?$pair@$$CBV?$basic_string@DU?$char_traits@D@std@@V?$allocator@D@2@@std@@UShortFuncInfo@@@2@U_Kfn@?$map@V?$basic_string@DU?$char_traits@D@std@@V?$allocator@D@2@@std@@UShortFuncInfo@@Ustring_iless@@V?$allocator@UShortFuncInfo@@@2@@2@Ustring_iless@@V?$allocator@UShortFuncInfo@@@2@@1@0@Z 004980b0 f i ShortcutKey.obj
 0001:000970e0       ?swap@std@@YAXAAW4_Redbl@?$_Tree@V?$basic_string@DU?$char_traits@D@std@@V?$allocator@D@2@@std@@U?$pair@$$CBV?$basic_string@DU?$char_traits@D@std@@V?$allocator@D@2@@std@@U?$pair@KK@2@@2@U_Kfn@?$map@V?$basic_string@DU?$char_traits@D@std@@V?$allocator@D@2@@std@@U?$pair@KK@2@Ustring_iless@@V?$allocator@U?$pair@KK@std@@@2@@2@Ustring_iless@@V?$allocator@U?$pair@KK@std@@@2@@1@0@Z 004980e0 f i ShortcutKey.obj
 0001:00097110       ?_Destroy@std@@YAXPAU?$pair@$$CBV?$basic_string@DU?$char_traits@D@std@@V?$allocator@D@2@@std@@UShortFuncInfo@@@1@@Z 00498110 f i ShortcutKey.obj
 0001:00097120       ?_Construct@std@@YAXPAU?$pair@$$CBV?$basic_string@DU?$char_traits@D@std@@V?$allocator@D@2@@std@@U?$pair@KK@2@@1@ABU21@@Z 00498120 f i ShortcutKey.obj
 0001:00097190       ?_Destroy@std@@YAXPAU?$pair@$$CBV?$basic_string@DU?$char_traits@D@std@@V?$allocator@D@2@@std@@U?$pair@KK@2@@1@@Z 00498190 f i ShortcutKey.obj
 0001:000971a0       ?_Construct@std@@YAXPAU?$pair@$$CBV?$basic_string@DU?$char_traits@D@std@@V?$allocator@D@2@@std@@UShortFuncInfo@@@1@ABU21@@Z 004981a0 f i ShortcutKey.obj
 0001:00097210       ??_G?$pair@$$CBV?$basic_string@DU?$char_traits@D@std@@V?$allocator@D@2@@std@@UShortFuncInfo@@@std@@QAEPAXI@Z 00498210 f i ShortcutKey.obj
 0001:00097240       ??0?$pair@$$CBV?$basic_string@DU?$char_traits@D@std@@V?$allocator@D@2@@std@@U?$pair@KK@2@@std@@QAE@ABU01@@Z 00498240 f i ShortcutKey.obj
 0001:00097270       ??_G?$pair@$$CBV?$basic_string@DU?$char_traits@D@std@@V?$allocator@D@2@@std@@U?$pair@KK@2@@std@@QAEPAXI@Z 00498270 f i ShortcutKey.obj
 0001:000972a0       ??0?$pair@$$CBV?$basic_string@DU?$char_traits@D@std@@V?$allocator@D@2@@std@@UShortFuncInfo@@@std@@QAE@ABU01@@Z 004982a0 f i ShortcutKey.obj
 0001:00097300       ??0?$pair@KK@std@@QAE@ABK0@Z 00498300 f i ShortcutKey.obj
 0001:0009736f       ??0KUiBase@@QAE@XZ         0049836f f   UiBase.obj
 0001:000973ce       ??1KUiBase@@QAE@XZ         004983ce f   UiBase.obj
 0001:000973e4       ?Exit@KUiBase@@QAEXXZ      004983e4 f   UiBase.obj
 0001:00097411       ?GetUserTempDataFolder@KUiBase@@QAEPBDXZ 00498411 f   UiBase.obj
 0001:00097421       ?CleanTempDataFolder@KUiBase@@QAEXXZ 00498421 f   UiBase.obj
 0001:0009743b       ?ClearFolder@KUiBase@@AAEXPBD_N@Z 0049843b f   UiBase.obj
 0001:00097548       ?Init@KUiBase@@QAEHXZ      00498548 f   UiBase.obj
 0001:00097634       ?SetUserAccount@KUiBase@@QAEXPAD0@Z 00498634 f   UiBase.obj
 0001:000976cd       ?CleanPrivateDataFolder@KUiBase@@QAEXXZ 004986cd f   UiBase.obj
 0001:00097715       ?DeletePrivateDataFile@KUiBase@@QAEXPBD@Z 00498715 f   UiBase.obj
 0001:00097795       ?LoadPrivateConfig@KUiBase@@QAEXXZ 00498795 f   UiBase.obj
 0001:00097834       ?SavePrivateConfig@KUiBase@@QAEHXZ 00498834 f   UiBase.obj
 0001:000978f4       ?GetUserPrivateDataFolder@KUiBase@@QAEHPADH@Z 004988f4 f   UiBase.obj
 0001:00097970       ?LoadScheme@KUiBase@@QAEHPBD@Z 00498970 f   UiBase.obj
 0001:00097d5c       ?LoadSchemeForEachWnd@KUiBase@@AAEXXZ 00498d5c f   UiBase.obj
 0001:00097ebb       ?GetSchemePath@KUiBase@@AAEHPBD@Z 00498ebb f   UiBase.obj
 0001:0009807a       ?SchemeCount@KUiBase@@QAEHXZ 0049907a f   UiBase.obj
 0001:000980d0       ?GetScheme@KUiBase@@QAEHHPAD0@Z 004990d0 f   UiBase.obj
 0001:00098205       ?GetCurSchemePath@KUiBase@@QAEHPADH@Z 00499205 f   UiBase.obj
 0001:0009824b       ?GetCommSettingFile@KUiBase@@QAEPAVKIniFile@@XZ 0049924b f   UiBase.obj
 0001:000982e5       ?CloseCommSettingFile@KUiBase@@QAEX_N@Z 004992e5 f   UiBase.obj
 0001:00098350       ?GetCommConfigFile@KUiBase@@QAEPAVKIniFile@@XZ 00499350 f   UiBase.obj
 0001:00098427       ?CloseCommConfigFile@KUiBase@@QAEXXZ 00499427 f   UiBase.obj
 0001:00098472       ?GetPrivateSettingFile@KUiBase@@QAEPAVKIniFile@@XZ 00499472 f   UiBase.obj
 0001:00098576       ?ClosePrivateSettingFile@KUiBase@@QAEX_N@Z 00499576 f   UiBase.obj
 0001:00098674       ?SetStatus@KUiBase@@QAEXW4UISYS_STATUS@@@Z 00499674 f   UiBase.obj
 0001:000986c0       ?RestoreStatus@KUiBase@@QAEXXZ 004996c0 f   UiBase.obj
 0001:00098710       ?SetCurrentCursor@KUiBase@@QAEXXZ 00499710 f   UiBase.obj
 0001:000987b1       ?IsOperationEnable@KUiBase@@QAEHW4UISYS_OPERATION@@@Z 004997b1 f   UiBase.obj
 0001:00098861       ?RegisterEvent@KUiBase@@QAEXPBDPAX@Z 00499861 f   UiBase.obj
 0001:00098937       ?UnregisterEvent@KUiBase@@QAEXPBDPAX@Z 00499937 f   UiBase.obj
 0001:000989f4       ?NotifyOneEvent@KUiBase@@QAEHPBD0@Z 004999f4 f   UiBase.obj
 0001:00098aff       ?NotifyEvent@KUiBase@@QAEHPBD@Z 00499aff f   UiBase.obj
 0001:00098bd5       ?CreateUnit@AddinNotify@@UAEHPBD@Z 00499bd5 f   UiBase.obj
 0001:00098c2b       ?DeleteUnit@AddinNotify@@UAEHPBD@Z 00499c2b f   UiBase.obj
 0001:00098c81       ?CreateUnitGroup@AddinNotify@@UAEHPBD0@Z 00499c81 f   UiBase.obj
 0001:00098ce1       ?RenameUnitGroup@AddinNotify@@UAEHPBD00ABV?$list@V?$basic_string@DU?$char_traits@D@std@@V?$allocator@D@2@@std@@V?$allocator@V?$basic_string@DU?$char_traits@D@std@@V?$allocator@D@2@@std@@@2@@std@@@Z 00499ce1 f   UiBase.obj
 0001:00098d4e       ?DeleteUnitGroup@AddinNotify@@UAEHPBD0ABV?$list@V?$basic_string@DU?$char_traits@D@std@@V?$allocator@D@2@@std@@V?$allocator@V?$basic_string@DU?$char_traits@D@std@@V?$allocator@D@2@@std@@@2@@std@@@Z 00499d4e f   UiBase.obj
 0001:00098db1       ?MoveUnitGroup@AddinNotify@@UAEHPBD00ABV?$list@V?$basic_string@DU?$char_traits@D@std@@V?$allocator@D@2@@std@@V?$allocator@V?$basic_string@DU?$char_traits@D@std@@V?$allocator@D@2@@std@@@2@@std@@@Z 00499db1 f   UiBase.obj
 0001:00098e1e       ?CreateUnitMember@AddinNotify@@UAEHPBD00@Z 00499e1e f   UiBase.obj
 0001:00098e88       ?DeleteUnitMember@AddinNotify@@UAEHPBD0@Z 00499e88 f   UiBase.obj
 0001:00098ee8       ?MoveUnitMember@AddinNotify@@UAEHPBD00@Z 00499ee8 f   UiBase.obj
 0001:00098f52       ?SetUnitMemberStatus@AddinNotify@@UAEHPBD00@Z 00499f52 f   UiBase.obj
 0001:00098fd5       ?CreateAddinUnit@@YAXPBD@Z 00499fd5 f   UiBase.obj
 0001:00098feb       ?DeleteAddinUnit@@YAXPBD@Z 00499feb f   UiBase.obj
 0001:00099000       ??1?$map@V?$basic_string@DU?$char_traits@D@std@@V?$allocator@D@2@@std@@PAXU?$less@V?$basic_string@DU?$char_traits@D@std@@V?$allocator@D@2@@std@@@2@V?$allocator@PAX@2@@std@@QAE@XZ 0049a000 f i UiBase.obj
 0001:00099020       ??_GKIniFile@@QAEPAXI@Z    0049a020 f i UiBase.obj
 0001:00099050       ??0?$map@V?$basic_string@DU?$char_traits@D@std@@V?$allocator@D@2@@std@@PAXU?$less@V?$basic_string@DU?$char_traits@D@std@@V?$allocator@D@2@@std@@@2@V?$allocator@PAX@2@@std@@QAE@ABU?$less@V?$basic_string@DU?$char_traits@D@std@@V?$allocator@D@2@@std@@@1@ABV?$allocator@PAX@1@@Z 0049a050 f i UiBase.obj
 0001:00099080       ?begin@?$map@V?$basic_string@DU?$char_traits@D@std@@V?$allocator@D@2@@std@@PAXU?$less@V?$basic_string@DU?$char_traits@D@std@@V?$allocator@D@2@@std@@@2@V?$allocator@PAX@2@@std@@QAE?AViterator@?$_Tree@V?$basic_string@DU?$char_traits@D@std@@V?$allocator@D@2@@std@@U?$pair@$$CBV?$basic_string@DU?$char_traits@D@std@@V?$allocator@D@2@@std@@PAX@2@U_Kfn@?$map@V?$basic_string@DU?$char_traits@D@std@@V?$allocator@D@2@@std@@PAXU?$less@V?$basic_string@DU?$char_traits@D@std@@V?$allocator@D@2@@std@@@2@V?$allocator@PAX@2@@2@U?$less@V?$basic_string@DU?$char_traits@D@std@@V?$allocator@D@2@@std@@@2@V?$allocator@PAX@2@@2@XZ 0049a080 f i UiBase.obj
 0001:000990b0       ?end@?$map@V?$basic_string@DU?$char_traits@D@std@@V?$allocator@D@2@@std@@PAXU?$less@V?$basic_string@DU?$char_traits@D@std@@V?$allocator@D@2@@std@@@2@V?$allocator@PAX@2@@std@@QAE?AViterator@?$_Tree@V?$basic_string@DU?$char_traits@D@std@@V?$allocator@D@2@@std@@U?$pair@$$CBV?$basic_string@DU?$char_traits@D@std@@V?$allocator@D@2@@std@@PAX@2@U_Kfn@?$map@V?$basic_string@DU?$char_traits@D@std@@V?$allocator@D@2@@std@@PAXU?$less@V?$basic_string@DU?$char_traits@D@std@@V?$allocator@D@2@@std@@@2@V?$allocator@PAX@2@@2@U?$less@V?$basic_string@DU?$char_traits@D@std@@V?$allocator@D@2@@std@@@2@V?$allocator@PAX@2@@2@XZ 0049a0b0 f i UiBase.obj
 0001:000990e0       ??A?$map@V?$basic_string@DU?$char_traits@D@std@@V?$allocator@D@2@@std@@PAXU?$less@V?$basic_string@DU?$char_traits@D@std@@V?$allocator@D@2@@std@@@2@V?$allocator@PAX@2@@std@@QAEAAPAXABV?$basic_string@DU?$char_traits@D@std@@V?$allocator@D@2@@1@@Z 0049a0e0 f i UiBase.obj
 0001:00099170       ?erase@?$map@V?$basic_string@DU?$char_traits@D@std@@V?$allocator@D@2@@std@@PAXU?$less@V?$basic_string@DU?$char_traits@D@std@@V?$allocator@D@2@@std@@@2@V?$allocator@PAX@2@@std@@QAE?AViterator@?$_Tree@V?$basic_string@DU?$char_traits@D@std@@V?$allocator@D@2@@std@@U?$pair@$$CBV?$basic_string@DU?$char_traits@D@std@@V?$allocator@D@2@@std@@PAX@2@U_Kfn@?$map@V?$basic_string@DU?$char_traits@D@std@@V?$allocator@D@2@@std@@PAXU?$less@V?$basic_string@DU?$char_traits@D@std@@V?$allocator@D@2@@std@@@2@V?$allocator@PAX@2@@2@U?$less@V?$basic_string@DU?$char_traits@D@std@@V?$allocator@D@2@@std@@@2@V?$allocator@PAX@2@@2@V342@@Z 0049a170 f i UiBase.obj
 0001:000991a0       ?find@?$map@V?$basic_string@DU?$char_traits@D@std@@V?$allocator@D@2@@std@@PAXU?$less@V?$basic_string@DU?$char_traits@D@std@@V?$allocator@D@2@@std@@@2@V?$allocator@PAX@2@@std@@QAE?AViterator@?$_Tree@V?$basic_string@DU?$char_traits@D@std@@V?$allocator@D@2@@std@@U?$pair@$$CBV?$basic_string@DU?$char_traits@D@std@@V?$allocator@D@2@@std@@PAX@2@U_Kfn@?$map@V?$basic_string@DU?$char_traits@D@std@@V?$allocator@D@2@@std@@PAXU?$less@V?$basic_string@DU?$char_traits@D@std@@V?$allocator@D@2@@std@@@2@V?$allocator@PAX@2@@2@U?$less@V?$basic_string@DU?$char_traits@D@std@@V?$allocator@D@2@@std@@@2@V?$allocator@PAX@2@@2@ABV?$basic_string@DU?$char_traits@D@std@@V?$allocator@D@2@@2@@Z 0049a1a0 f i UiBase.obj
 0001:000991d0       ??1?$_Tree@V?$basic_string@DU?$char_traits@D@std@@V?$allocator@D@2@@std@@U?$pair@$$CBV?$basic_string@DU?$char_traits@D@std@@V?$allocator@D@2@@std@@PAX@2@U_Kfn@?$map@V?$basic_string@DU?$char_traits@D@std@@V?$allocator@D@2@@std@@PAXU?$less@V?$basic_string@DU?$char_traits@D@std@@V?$allocator@D@2@@std@@@2@V?$allocator@PAX@2@@2@U?$less@V?$basic_string@DU?$char_traits@D@std@@V?$allocator@D@2@@std@@@2@V?$allocator@PAX@2@@std@@QAE@XZ 0049a1d0 f i UiBase.obj
 0001:000992a0       ??Citerator@?$_Tree@V?$basic_string@DU?$char_traits@D@std@@V?$allocator@D@2@@std@@U?$pair@$$CBV?$basic_string@DU?$char_traits@D@std@@V?$allocator@D@2@@std@@PAX@2@U_Kfn@?$map@V?$basic_string@DU?$char_traits@D@std@@V?$allocator@D@2@@std@@PAXU?$less@V?$basic_string@DU?$char_traits@D@std@@V?$allocator@D@2@@std@@@2@V?$allocator@PAX@2@@2@U?$less@V?$basic_string@DU?$char_traits@D@std@@V?$allocator@D@2@@std@@@2@V?$allocator@PAX@2@@std@@QBEPAU?$pair@$$CBV?$basic_string@DU?$char_traits@D@std@@V?$allocator@D@2@@std@@PAX@2@XZ 0049a2a0 f i UiBase.obj
 0001:000992c0       ??Eiterator@?$_Tree@V?$basic_string@DU?$char_traits@D@std@@V?$allocator@D@2@@std@@U?$pair@$$CBV?$basic_string@DU?$char_traits@D@std@@V?$allocator@D@2@@std@@PAX@2@U_Kfn@?$map@V?$basic_string@DU?$char_traits@D@std@@V?$allocator@D@2@@std@@PAXU?$less@V?$basic_string@DU?$char_traits@D@std@@V?$allocator@D@2@@std@@@2@V?$allocator@PAX@2@@2@U?$less@V?$basic_string@DU?$char_traits@D@std@@V?$allocator@D@2@@std@@@2@V?$allocator@PAX@2@@std@@QAE?AV012@H@Z 0049a2c0 f i UiBase.obj
 0001:000992f0       ??8iterator@?$_Tree@V?$basic_string@DU?$char_traits@D@std@@V?$allocator@D@2@@std@@U?$pair@$$CBV?$basic_string@DU?$char_traits@D@std@@V?$allocator@D@2@@std@@PAX@2@U_Kfn@?$map@V?$basic_string@DU?$char_traits@D@std@@V?$allocator@D@2@@std@@PAXU?$less@V?$basic_string@DU?$char_traits@D@std@@V?$allocator@D@2@@std@@@2@V?$allocator@PAX@2@@2@U?$less@V?$basic_string@DU?$char_traits@D@std@@V?$allocator@D@2@@std@@@2@V?$allocator@PAX@2@@std@@QBE_NABV012@@Z 0049a2f0 f i UiBase.obj
 0001:00099310       ??9iterator@?$_Tree@V?$basic_string@DU?$char_traits@D@std@@V?$allocator@D@2@@std@@U?$pair@$$CBV?$basic_string@DU?$char_traits@D@std@@V?$allocator@D@2@@std@@PAX@2@U_Kfn@?$map@V?$basic_string@DU?$char_traits@D@std@@V?$allocator@D@2@@std@@PAXU?$less@V?$basic_string@DU?$char_traits@D@std@@V?$allocator@D@2@@std@@@2@V?$allocator@PAX@2@@2@U?$less@V?$basic_string@DU?$char_traits@D@std@@V?$allocator@D@2@@std@@@2@V?$allocator@PAX@2@@std@@QBE_NABV012@@Z 0049a310 f i UiBase.obj
 0001:00099340       ??1?$pair@$$CBV?$basic_string@DU?$char_traits@D@std@@V?$allocator@D@2@@std@@PAX@std@@QAE@XZ 0049a340 f i UiBase.obj
 0001:00099360       ?insert@?$map@V?$basic_string@DU?$char_traits@D@std@@V?$allocator@D@2@@std@@PAXU?$less@V?$basic_string@DU?$char_traits@D@std@@V?$allocator@D@2@@std@@@2@V?$allocator@PAX@2@@std@@QAE?AU?$pair@Viterator@?$_Tree@V?$basic_string@DU?$char_traits@D@std@@V?$allocator@D@2@@std@@U?$pair@$$CBV?$basic_string@DU?$char_traits@D@std@@V?$allocator@D@2@@std@@PAX@2@U_Kfn@?$map@V?$basic_string@DU?$char_traits@D@std@@V?$allocator@D@2@@std@@PAXU?$less@V?$basic_string@DU?$char_traits@D@std@@V?$allocator@D@2@@std@@@2@V?$allocator@PAX@2@@2@U?$less@V?$basic_string@DU?$char_traits@D@std@@V?$allocator@D@2@@std@@@2@V?$allocator@PAX@2@@std@@_N@2@ABU?$pair@$$CBV?$basic_string@DU?$char_traits@D@std@@V?$allocator@D@2@@std@@PAX@2@@Z 0049a360 f i UiBase.obj
 0001:000993b0       ??0?$_Tree@V?$basic_string@DU?$char_traits@D@std@@V?$allocator@D@2@@std@@U?$pair@$$CBV?$basic_string@DU?$char_traits@D@std@@V?$allocator@D@2@@std@@PAX@2@U_Kfn@?$map@V?$basic_string@DU?$char_traits@D@std@@V?$allocator@D@2@@std@@PAXU?$less@V?$basic_string@DU?$char_traits@D@std@@V?$allocator@D@2@@std@@@2@V?$allocator@PAX@2@@2@U?$less@V?$basic_string@DU?$char_traits@D@std@@V?$allocator@D@2@@std@@@2@V?$allocator@PAX@2@@std@@QAE@ABU?$less@V?$basic_string@DU?$char_traits@D@std@@V?$allocator@D@2@@std@@@1@_NABV?$allocator@PAX@1@@Z 0049a3b0 f i UiBase.obj
 0001:000993f0       ?begin@?$_Tree@V?$basic_string@DU?$char_traits@D@std@@V?$allocator@D@2@@std@@U?$pair@$$CBV?$basic_string@DU?$char_traits@D@std@@V?$allocator@D@2@@std@@PAX@2@U_Kfn@?$map@V?$basic_string@DU?$char_traits@D@std@@V?$allocator@D@2@@std@@PAXU?$less@V?$basic_string@DU?$char_traits@D@std@@V?$allocator@D@2@@std@@@2@V?$allocator@PAX@2@@2@U?$less@V?$basic_string@DU?$char_traits@D@std@@V?$allocator@D@2@@std@@@2@V?$allocator@PAX@2@@std@@QAE?AViterator@12@XZ 0049a3f0 f i UiBase.obj
 0001:00099420       ?end@?$_Tree@V?$basic_string@DU?$char_traits@D@std@@V?$allocator@D@2@@std@@U?$pair@$$CBV?$basic_string@DU?$char_traits@D@std@@V?$allocator@D@2@@std@@PAX@2@U_Kfn@?$map@V?$basic_string@DU?$char_traits@D@std@@V?$allocator@D@2@@std@@PAXU?$less@V?$basic_string@DU?$char_traits@D@std@@V?$allocator@D@2@@std@@@2@V?$allocator@PAX@2@@2@U?$less@V?$basic_string@DU?$char_traits@D@std@@V?$allocator@D@2@@std@@@2@V?$allocator@PAX@2@@std@@QAE?AViterator@12@XZ 0049a420 f i UiBase.obj
 0001:00099450       ?erase@?$_Tree@V?$basic_string@DU?$char_traits@D@std@@V?$allocator@D@2@@std@@U?$pair@$$CBV?$basic_string@DU?$char_traits@D@std@@V?$allocator@D@2@@std@@PAX@2@U_Kfn@?$map@V?$basic_string@DU?$char_traits@D@std@@V?$allocator@D@2@@std@@PAXU?$less@V?$basic_string@DU?$char_traits@D@std@@V?$allocator@D@2@@std@@@2@V?$allocator@PAX@2@@2@U?$less@V?$basic_string@DU?$char_traits@D@std@@V?$allocator@D@2@@std@@@2@V?$allocator@PAX@2@@std@@QAE?AViterator@12@V312@@Z 0049a450 f i UiBase.obj
 0001:00099ca0       ?erase@?$_Tree@V?$basic_string@DU?$char_traits@D@std@@V?$allocator@D@2@@std@@U?$pair@$$CBV?$basic_string@DU?$char_traits@D@std@@V?$allocator@D@2@@std@@PAX@2@U_Kfn@?$map@V?$basic_string@DU?$char_traits@D@std@@V?$allocator@D@2@@std@@PAXU?$less@V?$basic_string@DU?$char_traits@D@std@@V?$allocator@D@2@@std@@@2@V?$allocator@PAX@2@@2@U?$less@V?$basic_string@DU?$char_traits@D@std@@V?$allocator@D@2@@std@@@2@V?$allocator@PAX@2@@std@@QAE?AViterator@12@V312@0@Z 0049aca0 f i UiBase.obj
 0001:00099de0       ?find@?$_Tree@V?$basic_string@DU?$char_traits@D@std@@V?$allocator@D@2@@std@@U?$pair@$$CBV?$basic_string@DU?$char_traits@D@std@@V?$allocator@D@2@@std@@PAX@2@U_Kfn@?$map@V?$basic_string@DU?$char_traits@D@std@@V?$allocator@D@2@@std@@PAXU?$less@V?$basic_string@DU?$char_traits@D@std@@V?$allocator@D@2@@std@@@2@V?$allocator@PAX@2@@2@U?$less@V?$basic_string@DU?$char_traits@D@std@@V?$allocator@D@2@@std@@@2@V?$allocator@PAX@2@@std@@QAE?AViterator@12@ABV?$basic_string@DU?$char_traits@D@std@@V?$allocator@D@2@@2@@Z 0049ade0 f i UiBase.obj
 0001:00099e80       ?_Freenode@?$_Tree@V?$basic_string@DU?$char_traits@D@std@@V?$allocator@D@2@@std@@U?$pair@$$CBV?$basic_string@DU?$char_traits@D@std@@V?$allocator@D@2@@std@@PAX@2@U_Kfn@?$map@V?$basic_string@DU?$char_traits@D@std@@V?$allocator@D@2@@std@@PAXU?$less@V?$basic_string@DU?$char_traits@D@std@@V?$allocator@D@2@@std@@@2@V?$allocator@PAX@2@@2@U?$less@V?$basic_string@DU?$char_traits@D@std@@V?$allocator@D@2@@std@@@2@V?$allocator@PAX@2@@std@@IAEXPAU_Node@12@@Z 0049ae80 f i UiBase.obj
 0001:00099ea0       ??0?$pair@$$CBV?$basic_string@DU?$char_traits@D@std@@V?$allocator@D@2@@std@@PAX@std@@QAE@ABV?$basic_string@DU?$char_traits@D@std@@V?$allocator@D@2@@1@ABQAX@Z 0049aea0 f i UiBase.obj
 0001:00099ed0       ??Diterator@?$_Tree@V?$basic_string@DU?$char_traits@D@std@@V?$allocator@D@2@@std@@U?$pair@$$CBV?$basic_string@DU?$char_traits@D@std@@V?$allocator@D@2@@std@@PAX@2@U_Kfn@?$map@V?$basic_string@DU?$char_traits@D@std@@V?$allocator@D@2@@std@@PAXU?$less@V?$basic_string@DU?$char_traits@D@std@@V?$allocator@D@2@@std@@@2@V?$allocator@PAX@2@@2@U?$less@V?$basic_string@DU?$char_traits@D@std@@V?$allocator@D@2@@std@@@2@V?$allocator@PAX@2@@std@@QBEAAU?$pair@$$CBV?$basic_string@DU?$char_traits@D@std@@V?$allocator@D@2@@std@@PAX@2@XZ 0049aed0 f i UiBase.obj
 0001:00099ef0       ??Eiterator@?$_Tree@V?$basic_string@DU?$char_traits@D@std@@V?$allocator@D@2@@std@@U?$pair@$$CBV?$basic_string@DU?$char_traits@D@std@@V?$allocator@D@2@@std@@PAX@2@U_Kfn@?$map@V?$basic_string@DU?$char_traits@D@std@@V?$allocator@D@2@@std@@PAXU?$less@V?$basic_string@DU?$char_traits@D@std@@V?$allocator@D@2@@std@@@2@V?$allocator@PAX@2@@2@U?$less@V?$basic_string@DU?$char_traits@D@std@@V?$allocator@D@2@@std@@@2@V?$allocator@PAX@2@@std@@QAEAAV012@XZ 0049aef0 f i UiBase.obj
 0001:00099f10       ?deallocate@?$allocator@PAX@std@@QAEXPAXI@Z 0049af10 f i UiBase.obj
 0001:00099f30       ?_Color@?$_Tree@V?$basic_string@DU?$char_traits@D@std@@V?$allocator@D@2@@std@@U?$pair@$$CBV?$basic_string@DU?$char_traits@D@std@@V?$allocator@D@2@@std@@PAX@2@U_Kfn@?$map@V?$basic_string@DU?$char_traits@D@std@@V?$allocator@D@2@@std@@PAXU?$less@V?$basic_string@DU?$char_traits@D@std@@V?$allocator@D@2@@std@@@2@V?$allocator@PAX@2@@2@U?$less@V?$basic_string@DU?$char_traits@D@std@@V?$allocator@D@2@@std@@@2@V?$allocator@PAX@2@@std@@KAAAW4_Redbl@12@PAU_Node@12@@Z 0049af30 f i UiBase.obj
 0001:00099f40       ?_Key@?$_Tree@V?$basic_string@DU?$char_traits@D@std@@V?$allocator@D@2@@std@@U?$pair@$$CBV?$basic_string@DU?$char_traits@D@std@@V?$allocator@D@2@@std@@PAX@2@U_Kfn@?$map@V?$basic_string@DU?$char_traits@D@std@@V?$allocator@D@2@@std@@PAXU?$less@V?$basic_string@DU?$char_traits@D@std@@V?$allocator@D@2@@std@@@2@V?$allocator@PAX@2@@2@U?$less@V?$basic_string@DU?$char_traits@D@std@@V?$allocator@D@2@@std@@@2@V?$allocator@PAX@2@@std@@KAABV?$basic_string@DU?$char_traits@D@std@@V?$allocator@D@2@@2@PAU_Node@12@@Z 0049af40 f i UiBase.obj
 0001:00099f60       ?_Left@?$_Tree@V?$basic_string@DU?$char_traits@D@std@@V?$allocator@D@2@@std@@U?$pair@$$CBV?$basic_string@DU?$char_traits@D@std@@V?$allocator@D@2@@std@@PAX@2@U_Kfn@?$map@V?$basic_string@DU?$char_traits@D@std@@V?$allocator@D@2@@std@@PAXU?$less@V?$basic_string@DU?$char_traits@D@std@@V?$allocator@D@2@@std@@@2@V?$allocator@PAX@2@@2@U?$less@V?$basic_string@DU?$char_traits@D@std@@V?$allocator@D@2@@std@@@2@V?$allocator@PAX@2@@std@@KAAAPAU_Node@12@PAU312@@Z 0049af60 f i UiBase.obj
 0001:00099f70       ?_Parent@?$_Tree@V?$basic_string@DU?$char_traits@D@std@@V?$allocator@D@2@@std@@U?$pair@$$CBV?$basic_string@DU?$char_traits@D@std@@V?$allocator@D@2@@std@@PAX@2@U_Kfn@?$map@V?$basic_string@DU?$char_traits@D@std@@V?$allocator@D@2@@std@@PAXU?$less@V?$basic_string@DU?$char_traits@D@std@@V?$allocator@D@2@@std@@@2@V?$allocator@PAX@2@@2@U?$less@V?$basic_string@DU?$char_traits@D@std@@V?$allocator@D@2@@std@@@2@V?$allocator@PAX@2@@std@@KAAAPAU_Node@12@PAU312@@Z 0049af70 f i UiBase.obj
 0001:00099f80       ?_Right@?$_Tree@V?$basic_string@DU?$char_traits@D@std@@V?$allocator@D@2@@std@@U?$pair@$$CBV?$basic_string@DU?$char_traits@D@std@@V?$allocator@D@2@@std@@PAX@2@U_Kfn@?$map@V?$basic_string@DU?$char_traits@D@std@@V?$allocator@D@2@@std@@PAXU?$less@V?$basic_string@DU?$char_traits@D@std@@V?$allocator@D@2@@std@@@2@V?$allocator@PAX@2@@2@U?$less@V?$basic_string@DU?$char_traits@D@std@@V?$allocator@D@2@@std@@@2@V?$allocator@PAX@2@@std@@KAAAPAU_Node@12@PAU312@@Z 0049af80 f i UiBase.obj
 0001:00099f90       ?_Value@?$_Tree@V?$basic_string@DU?$char_traits@D@std@@V?$allocator@D@2@@std@@U?$pair@$$CBV?$basic_string@DU?$char_traits@D@std@@V?$allocator@D@2@@std@@PAX@2@U_Kfn@?$map@V?$basic_string@DU?$char_traits@D@std@@V?$allocator@D@2@@std@@PAXU?$less@V?$basic_string@DU?$char_traits@D@std@@V?$allocator@D@2@@std@@@2@V?$allocator@PAX@2@@2@U?$less@V?$basic_string@DU?$char_traits@D@std@@V?$allocator@D@2@@std@@@2@V?$allocator@PAX@2@@std@@KAAAU?$pair@$$CBV?$basic_string@DU?$char_traits@D@std@@V?$allocator@D@2@@std@@PAX@2@PAU_Node@12@@Z 0049af90 f i UiBase.obj
 0001:00099fa0       ?size@?$_Tree@V?$basic_string@DU?$char_traits@D@std@@V?$allocator@D@2@@std@@U?$pair@$$CBV?$basic_string@DU?$char_traits@D@std@@V?$allocator@D@2@@std@@PAX@2@U_Kfn@?$map@V?$basic_string@DU?$char_traits@D@std@@V?$allocator@D@2@@std@@PAXU?$less@V?$basic_string@DU?$char_traits@D@std@@V?$allocator@D@2@@std@@@2@V?$allocator@PAX@2@@2@U?$less@V?$basic_string@DU?$char_traits@D@std@@V?$allocator@D@2@@std@@@2@V?$allocator@PAX@2@@std@@QBEIXZ 0049afa0 f i UiBase.obj
 0001:00099fc0       ?insert@?$_Tree@V?$basic_string@DU?$char_traits@D@std@@V?$allocator@D@2@@std@@U?$pair@$$CBV?$basic_string@DU?$char_traits@D@std@@V?$allocator@D@2@@std@@PAX@2@U_Kfn@?$map@V?$basic_string@DU?$char_traits@D@std@@V?$allocator@D@2@@std@@PAXU?$less@V?$basic_string@DU?$char_traits@D@std@@V?$allocator@D@2@@std@@@2@V?$allocator@PAX@2@@2@U?$less@V?$basic_string@DU?$char_traits@D@std@@V?$allocator@D@2@@std@@@2@V?$allocator@PAX@2@@std@@QAE?AU?$pair@Viterator@?$_Tree@V?$basic_string@DU?$char_traits@D@std@@V?$allocator@D@2@@std@@U?$pair@$$CBV?$basic_string@DU?$char_traits@D@std@@V?$allocator@D@2@@std@@PAX@2@U_Kfn@?$map@V?$basic_string@DU?$char_traits@D@std@@V?$allocator@D@2@@std@@PAXU?$less@V?$basic_string@DU?$char_traits@D@std@@V?$allocator@D@2@@std@@@2@V?$allocator@PAX@2@@2@U?$less@V?$basic_string@DU?$char_traits@D@std@@V?$allocator@D@2@@std@@@2@V?$allocator@PAX@2@@std@@_N@2@ABU?$pair@$$CBV?$basic_string@DU?$char_traits@D@std@@V?$allocator@D@2@@std@@PAX@2@@Z 0049afc0 f i UiBase.obj
 0001:0009a200       ?lower_bound@?$_Tree@V?$basic_string@DU?$char_traits@D@std@@V?$allocator@D@2@@std@@U?$pair@$$CBV?$basic_string@DU?$char_traits@D@std@@V?$allocator@D@2@@std@@PAX@2@U_Kfn@?$map@V?$basic_string@DU?$char_traits@D@std@@V?$allocator@D@2@@std@@PAXU?$less@V?$basic_string@DU?$char_traits@D@std@@V?$allocator@D@2@@std@@@2@V?$allocator@PAX@2@@2@U?$less@V?$basic_string@DU?$char_traits@D@std@@V?$allocator@D@2@@std@@@2@V?$allocator@PAX@2@@std@@QAE?AViterator@12@ABV?$basic_string@DU?$char_traits@D@std@@V?$allocator@D@2@@2@@Z 0049b200 f i UiBase.obj
 0001:0009a230       ?_Erase@?$_Tree@V?$basic_string@DU?$char_traits@D@std@@V?$allocator@D@2@@std@@U?$pair@$$CBV?$basic_string@DU?$char_traits@D@std@@V?$allocator@D@2@@std@@PAX@2@U_Kfn@?$map@V?$basic_string@DU?$char_traits@D@std@@V?$allocator@D@2@@std@@PAXU?$less@V?$basic_string@DU?$char_traits@D@std@@V?$allocator@D@2@@std@@@2@V?$allocator@PAX@2@@2@U?$less@V?$basic_string@DU?$char_traits@D@std@@V?$allocator@D@2@@std@@@2@V?$allocator@PAX@2@@std@@IAEXPAU_Node@12@@Z 0049b230 f i UiBase.obj
 0001:0009a2f0       ?_Init@?$_Tree@V?$basic_string@DU?$char_traits@D@std@@V?$allocator@D@2@@std@@U?$pair@$$CBV?$basic_string@DU?$char_traits@D@std@@V?$allocator@D@2@@std@@PAX@2@U_Kfn@?$map@V?$basic_string@DU?$char_traits@D@std@@V?$allocator@D@2@@std@@PAXU?$less@V?$basic_string@DU?$char_traits@D@std@@V?$allocator@D@2@@std@@@2@V?$allocator@PAX@2@@2@U?$less@V?$basic_string@DU?$char_traits@D@std@@V?$allocator@D@2@@std@@@2@V?$allocator@PAX@2@@std@@IAEXXZ 0049b2f0 f i UiBase.obj
 0001:0009a3d0       ?_Lmost@?$_Tree@V?$basic_string@DU?$char_traits@D@std@@V?$allocator@D@2@@std@@U?$pair@$$CBV?$basic_string@DU?$char_traits@D@std@@V?$allocator@D@2@@std@@PAX@2@U_Kfn@?$map@V?$basic_string@DU?$char_traits@D@std@@V?$allocator@D@2@@std@@PAXU?$less@V?$basic_string@DU?$char_traits@D@std@@V?$allocator@D@2@@std@@@2@V?$allocator@PAX@2@@2@U?$less@V?$basic_string@DU?$char_traits@D@std@@V?$allocator@D@2@@std@@@2@V?$allocator@PAX@2@@std@@IAEAAPAU_Node@12@XZ 0049b3d0 f i UiBase.obj
 0001:0009a3f0       ?_Lrotate@?$_Tree@V?$basic_string@DU?$char_traits@D@std@@V?$allocator@D@2@@std@@U?$pair@$$CBV?$basic_string@DU?$char_traits@D@std@@V?$allocator@D@2@@std@@PAX@2@U_Kfn@?$map@V?$basic_string@DU?$char_traits@D@std@@V?$allocator@D@2@@std@@PAXU?$less@V?$basic_string@DU?$char_traits@D@std@@V?$allocator@D@2@@std@@@2@V?$allocator@PAX@2@@2@U?$less@V?$basic_string@DU?$char_traits@D@std@@V?$allocator@D@2@@std@@@2@V?$allocator@PAX@2@@std@@IAEXPAU_Node@12@@Z 0049b3f0 f i UiBase.obj
 0001:0009a560       ?_Max@?$_Tree@V?$basic_string@DU?$char_traits@D@std@@V?$allocator@D@2@@std@@U?$pair@$$CBV?$basic_string@DU?$char_traits@D@std@@V?$allocator@D@2@@std@@PAX@2@U_Kfn@?$map@V?$basic_string@DU?$char_traits@D@std@@V?$allocator@D@2@@std@@PAXU?$less@V?$basic_string@DU?$char_traits@D@std@@V?$allocator@D@2@@std@@@2@V?$allocator@PAX@2@@2@U?$less@V?$basic_string@DU?$char_traits@D@std@@V?$allocator@D@2@@std@@@2@V?$allocator@PAX@2@@std@@KAPAU_Node@12@PAU312@@Z 0049b560 f i UiBase.obj
 0001:0009a5e0       ?_Min@?$_Tree@V?$basic_string@DU?$char_traits@D@std@@V?$allocator@D@2@@std@@U?$pair@$$CBV?$basic_string@DU?$char_traits@D@std@@V?$allocator@D@2@@std@@PAX@2@U_Kfn@?$map@V?$basic_string@DU?$char_traits@D@std@@V?$allocator@D@2@@std@@PAXU?$less@V?$basic_string@DU?$char_traits@D@std@@V?$allocator@D@2@@std@@@2@V?$allocator@PAX@2@@2@U?$less@V?$basic_string@DU?$char_traits@D@std@@V?$allocator@D@2@@std@@@2@V?$allocator@PAX@2@@std@@KAPAU_Node@12@PAU312@@Z 0049b5e0 f i UiBase.obj
 0001:0009a660       ?_Rmost@?$_Tree@V?$basic_string@DU?$char_traits@D@std@@V?$allocator@D@2@@std@@U?$pair@$$CBV?$basic_string@DU?$char_traits@D@std@@V?$allocator@D@2@@std@@PAX@2@U_Kfn@?$map@V?$basic_string@DU?$char_traits@D@std@@V?$allocator@D@2@@std@@PAXU?$less@V?$basic_string@DU?$char_traits@D@std@@V?$allocator@D@2@@std@@@2@V?$allocator@PAX@2@@2@U?$less@V?$basic_string@DU?$char_traits@D@std@@V?$allocator@D@2@@std@@@2@V?$allocator@PAX@2@@std@@IAEAAPAU_Node@12@XZ 0049b660 f i UiBase.obj
 0001:0009a680       ?_Root@?$_Tree@V?$basic_string@DU?$char_traits@D@std@@V?$allocator@D@2@@std@@U?$pair@$$CBV?$basic_string@DU?$char_traits@D@std@@V?$allocator@D@2@@std@@PAX@2@U_Kfn@?$map@V?$basic_string@DU?$char_traits@D@std@@V?$allocator@D@2@@std@@PAXU?$less@V?$basic_string@DU?$char_traits@D@std@@V?$allocator@D@2@@std@@@2@V?$allocator@PAX@2@@2@U?$less@V?$basic_string@DU?$char_traits@D@std@@V?$allocator@D@2@@std@@@2@V?$allocator@PAX@2@@std@@IAEAAPAU_Node@12@XZ 0049b680 f i UiBase.obj
 0001:0009a6a0       ?_Rrotate@?$_Tree@V?$basic_string@DU?$char_traits@D@std@@V?$allocator@D@2@@std@@U?$pair@$$CBV?$basic_string@DU?$char_traits@D@std@@V?$allocator@D@2@@std@@PAX@2@U_Kfn@?$map@V?$basic_string@DU?$char_traits@D@std@@V?$allocator@D@2@@std@@PAXU?$less@V?$basic_string@DU?$char_traits@D@std@@V?$allocator@D@2@@std@@@2@V?$allocator@PAX@2@@2@U?$less@V?$basic_string@DU?$char_traits@D@std@@V?$allocator@D@2@@std@@@2@V?$allocator@PAX@2@@std@@IAEXPAU_Node@12@@Z 0049b6a0 f i UiBase.obj
 0001:0009a810       ?_Destval@?$_Tree@V?$basic_string@DU?$char_traits@D@std@@V?$allocator@D@2@@std@@U?$pair@$$CBV?$basic_string@DU?$char_traits@D@std@@V?$allocator@D@2@@std@@PAX@2@U_Kfn@?$map@V?$basic_string@DU?$char_traits@D@std@@V?$allocator@D@2@@std@@PAXU?$less@V?$basic_string@DU?$char_traits@D@std@@V?$allocator@D@2@@std@@@2@V?$allocator@PAX@2@@2@U?$less@V?$basic_string@DU?$char_traits@D@std@@V?$allocator@D@2@@std@@@2@V?$allocator@PAX@2@@std@@IAEXPAU?$pair@$$CBV?$basic_string@DU?$char_traits@D@std@@V?$allocator@D@2@@std@@PAX@2@@Z 0049b810 f i UiBase.obj
 0001:0009a830       ?_Inc@const_iterator@?$_Tree@V?$basic_string@DU?$char_traits@D@std@@V?$allocator@D@2@@std@@U?$pair@$$CBV?$basic_string@DU?$char_traits@D@std@@V?$allocator@D@2@@std@@PAX@2@U_Kfn@?$map@V?$basic_string@DU?$char_traits@D@std@@V?$allocator@D@2@@std@@PAXU?$less@V?$basic_string@DU?$char_traits@D@std@@V?$allocator@D@2@@std@@@2@V?$allocator@PAX@2@@2@U?$less@V?$basic_string@DU?$char_traits@D@std@@V?$allocator@D@2@@std@@@2@V?$allocator@PAX@2@@std@@QAEXXZ 0049b830 f i UiBase.obj
 0001:0009a910       ?_Mynode@const_iterator@?$_Tree@V?$basic_string@DU?$char_traits@D@std@@V?$allocator@D@2@@std@@U?$pair@$$CBV?$basic_string@DU?$char_traits@D@std@@V?$allocator@D@2@@std@@PAX@2@U_Kfn@?$map@V?$basic_string@DU?$char_traits@D@std@@V?$allocator@D@2@@std@@PAXU?$less@V?$basic_string@DU?$char_traits@D@std@@V?$allocator@D@2@@std@@@2@V?$allocator@PAX@2@@2@U?$less@V?$basic_string@DU?$char_traits@D@std@@V?$allocator@D@2@@std@@@2@V?$allocator@PAX@2@@std@@QBEPAU_Node@23@XZ 0049b910 f i UiBase.obj
 0001:0009a920       ??0iterator@?$_Tree@V?$basic_string@DU?$char_traits@D@std@@V?$allocator@D@2@@std@@U?$pair@$$CBV?$basic_string@DU?$char_traits@D@std@@V?$allocator@D@2@@std@@PAX@2@U_Kfn@?$map@V?$basic_string@DU?$char_traits@D@std@@V?$allocator@D@2@@std@@PAXU?$less@V?$basic_string@DU?$char_traits@D@std@@V?$allocator@D@2@@std@@@2@V?$allocator@PAX@2@@2@U?$less@V?$basic_string@DU?$char_traits@D@std@@V?$allocator@D@2@@std@@@2@V?$allocator@PAX@2@@std@@QAE@PAU_Node@12@@Z 0049b920 f i UiBase.obj
 0001:0009a940       ??0?$pair@Viterator@?$_Tree@V?$basic_string@DU?$char_traits@D@std@@V?$allocator@D@2@@std@@U?$pair@$$CBV?$basic_string@DU?$char_traits@D@std@@V?$allocator@D@2@@std@@PAX@2@U_Kfn@?$map@V?$basic_string@DU?$char_traits@D@std@@V?$allocator@D@2@@std@@PAXU?$less@V?$basic_string@DU?$char_traits@D@std@@V?$allocator@D@2@@std@@@2@V?$allocator@PAX@2@@2@U?$less@V?$basic_string@DU?$char_traits@D@std@@V?$allocator@D@2@@std@@@2@V?$allocator@PAX@2@@std@@_N@std@@QAE@ABViterator@?$_Tree@V?$basic_string@DU?$char_traits@D@std@@V?$allocator@D@2@@std@@U?$pair@$$CBV?$basic_string@DU?$char_traits@D@std@@V?$allocator@D@2@@std@@PAX@2@U_Kfn@?$map@V?$basic_string@DU?$char_traits@D@std@@V?$allocator@D@2@@std@@PAXU?$less@V?$basic_string@DU?$char_traits@D@std@@V?$allocator@D@2@@std@@@2@V?$allocator@PAX@2@@2@U?$less@V?$basic_string@DU?$char_traits@D@std@@V?$allocator@D@2@@std@@@2@V?$allocator@PAX@2@@1@AB_N@Z 0049b940 f i UiBase.obj
 0001:0009a970       ??R_Kfn@?$map@V?$basic_string@DU?$char_traits@D@std@@V?$allocator@D@2@@std@@PAXU?$less@V?$basic_string@DU?$char_traits@D@std@@V?$allocator@D@2@@std@@@2@V?$allocator@PAX@2@@std@@QBEABV?$basic_string@DU?$char_traits@D@std@@V?$allocator@D@2@@2@ABU?$pair@$$CBV?$basic_string@DU?$char_traits@D@std@@V?$allocator@D@2@@std@@PAX@2@@Z 0049b970 f i UiBase.obj
 0001:0009a980       ?_Insert@?$_Tree@V?$basic_string@DU?$char_traits@D@std@@V?$allocator@D@2@@std@@U?$pair@$$CBV?$basic_string@DU?$char_traits@D@std@@V?$allocator@D@2@@std@@PAX@2@U_Kfn@?$map@V?$basic_string@DU?$char_traits@D@std@@V?$allocator@D@2@@std@@PAXU?$less@V?$basic_string@DU?$char_traits@D@std@@V?$allocator@D@2@@std@@@2@V?$allocator@PAX@2@@2@U?$less@V?$basic_string@DU?$char_traits@D@std@@V?$allocator@D@2@@std@@@2@V?$allocator@PAX@2@@std@@IAE?AViterator@12@PAU_Node@12@0ABU?$pair@$$CBV?$basic_string@DU?$char_traits@D@std@@V?$allocator@D@2@@std@@PAX@2@@Z 0049b980 f i UiBase.obj
 0001:0009ae50       ?_Lbound@?$_Tree@V?$basic_string@DU?$char_traits@D@std@@V?$allocator@D@2@@std@@U?$pair@$$CBV?$basic_string@DU?$char_traits@D@std@@V?$allocator@D@2@@std@@PAX@2@U_Kfn@?$map@V?$basic_string@DU?$char_traits@D@std@@V?$allocator@D@2@@std@@PAXU?$less@V?$basic_string@DU?$char_traits@D@std@@V?$allocator@D@2@@std@@@2@V?$allocator@PAX@2@@2@U?$less@V?$basic_string@DU?$char_traits@D@std@@V?$allocator@D@2@@std@@@2@V?$allocator@PAX@2@@std@@IBEPAU_Node@12@ABV?$basic_string@DU?$char_traits@D@std@@V?$allocator@D@2@@2@@Z 0049be50 f i UiBase.obj
 0001:0009af20       ?_Buynode@?$_Tree@V?$basic_string@DU?$char_traits@D@std@@V?$allocator@D@2@@std@@U?$pair@$$CBV?$basic_string@DU?$char_traits@D@std@@V?$allocator@D@2@@std@@PAX@2@U_Kfn@?$map@V?$basic_string@DU?$char_traits@D@std@@V?$allocator@D@2@@std@@PAXU?$less@V?$basic_string@DU?$char_traits@D@std@@V?$allocator@D@2@@std@@@2@V?$allocator@PAX@2@@2@U?$less@V?$basic_string@DU?$char_traits@D@std@@V?$allocator@D@2@@std@@@2@V?$allocator@PAX@2@@std@@IAEPAU_Node@12@PAU312@W4_Redbl@12@@Z 0049bf20 f i UiBase.obj
 0001:0009af70       ??0const_iterator@?$_Tree@V?$basic_string@DU?$char_traits@D@std@@V?$allocator@D@2@@std@@U?$pair@$$CBV?$basic_string@DU?$char_traits@D@std@@V?$allocator@D@2@@std@@PAX@2@U_Kfn@?$map@V?$basic_string@DU?$char_traits@D@std@@V?$allocator@D@2@@std@@PAXU?$less@V?$basic_string@DU?$char_traits@D@std@@V?$allocator@D@2@@std@@@2@V?$allocator@PAX@2@@2@U?$less@V?$basic_string@DU?$char_traits@D@std@@V?$allocator@D@2@@std@@@2@V?$allocator@PAX@2@@std@@QAE@PAU_Node@12@@Z 0049bf70 f i UiBase.obj
 0001:0009af90       ??Fiterator@?$_Tree@V?$basic_string@DU?$char_traits@D@std@@V?$allocator@D@2@@std@@U?$pair@$$CBV?$basic_string@DU?$char_traits@D@std@@V?$allocator@D@2@@std@@PAX@2@U_Kfn@?$map@V?$basic_string@DU?$char_traits@D@std@@V?$allocator@D@2@@std@@PAXU?$less@V?$basic_string@DU?$char_traits@D@std@@V?$allocator@D@2@@std@@@2@V?$allocator@PAX@2@@2@U?$less@V?$basic_string@DU?$char_traits@D@std@@V?$allocator@D@2@@std@@@2@V?$allocator@PAX@2@@std@@QAEAAV012@XZ 0049bf90 f i UiBase.obj
 0001:0009afb0       ?_Charalloc@?$allocator@PAX@std@@QAEPADI@Z 0049bfb0 f i UiBase.obj
 0001:0009afd0       ?_Root@?$_Tree@V?$basic_string@DU?$char_traits@D@std@@V?$allocator@D@2@@std@@U?$pair@$$CBV?$basic_string@DU?$char_traits@D@std@@V?$allocator@D@2@@std@@PAX@2@U_Kfn@?$map@V?$basic_string@DU?$char_traits@D@std@@V?$allocator@D@2@@std@@PAXU?$less@V?$basic_string@DU?$char_traits@D@std@@V?$allocator@D@2@@std@@@2@V?$allocator@PAX@2@@2@U?$less@V?$basic_string@DU?$char_traits@D@std@@V?$allocator@D@2@@std@@@2@V?$allocator@PAX@2@@std@@IBEAAPAU_Node@12@XZ 0049bfd0 f i UiBase.obj
 0001:0009aff0       ?_Consval@?$_Tree@V?$basic_string@DU?$char_traits@D@std@@V?$allocator@D@2@@std@@U?$pair@$$CBV?$basic_string@DU?$char_traits@D@std@@V?$allocator@D@2@@std@@PAX@2@U_Kfn@?$map@V?$basic_string@DU?$char_traits@D@std@@V?$allocator@D@2@@std@@PAXU?$less@V?$basic_string@DU?$char_traits@D@std@@V?$allocator@D@2@@std@@@2@V?$allocator@PAX@2@@2@U?$less@V?$basic_string@DU?$char_traits@D@std@@V?$allocator@D@2@@std@@@2@V?$allocator@PAX@2@@std@@IAEXPAU?$pair@$$CBV?$basic_string@DU?$char_traits@D@std@@V?$allocator@D@2@@std@@PAX@2@ABU32@@Z 0049bff0 f i UiBase.obj
 0001:0009b010       ?_Dec@const_iterator@?$_Tree@V?$basic_string@DU?$char_traits@D@std@@V?$allocator@D@2@@std@@U?$pair@$$CBV?$basic_string@DU?$char_traits@D@std@@V?$allocator@D@2@@std@@PAX@2@U_Kfn@?$map@V?$basic_string@DU?$char_traits@D@std@@V?$allocator@D@2@@std@@PAXU?$less@V?$basic_string@DU?$char_traits@D@std@@V?$allocator@D@2@@std@@@2@V?$allocator@PAX@2@@2@U?$less@V?$basic_string@DU?$char_traits@D@std@@V?$allocator@D@2@@std@@@2@V?$allocator@PAX@2@@std@@QAEXXZ 0049c010 f i UiBase.obj
 0001:0009b120       ?swap@std@@YAXAAW4_Redbl@?$_Tree@V?$basic_string@DU?$char_traits@D@std@@V?$allocator@D@2@@std@@U?$pair@$$CBV?$basic_string@DU?$char_traits@D@std@@V?$allocator@D@2@@std@@PAX@2@U_Kfn@?$map@V?$basic_string@DU?$char_traits@D@std@@V?$allocator@D@2@@std@@PAXU?$less@V?$basic_string@DU?$char_traits@D@std@@V?$allocator@D@2@@std@@@2@V?$allocator@PAX@2@@2@U?$less@V?$basic_string@DU?$char_traits@D@std@@V?$allocator@D@2@@std@@@2@V?$allocator@PAX@2@@1@0@Z 0049c120 f i UiBase.obj
 0001:0009b150       ?_Destroy@std@@YAXPAU?$pair@$$CBV?$basic_string@DU?$char_traits@D@std@@V?$allocator@D@2@@std@@PAX@1@@Z 0049c150 f i UiBase.obj
 0001:0009b160       ?_Construct@std@@YAXPAU?$pair@$$CBV?$basic_string@DU?$char_traits@D@std@@V?$allocator@D@2@@std@@PAX@1@ABU21@@Z 0049c160 f i UiBase.obj
 0001:0009b1d0       ??_G?$pair@$$CBV?$basic_string@DU?$char_traits@D@std@@V?$allocator@D@2@@std@@PAX@std@@QAEPAXI@Z 0049c1d0 f i UiBase.obj
 0001:0009b200       ??0?$pair@$$CBV?$basic_string@DU?$char_traits@D@std@@V?$allocator@D@2@@std@@PAX@std@@QAE@ABU01@@Z 0049c200 f i UiBase.obj
 0001:0009b230       ?CreateObject@Player_Life@@SAPAVKWndWindow@@XZ 0049c230 f i UiShell.obj
 0001:0009b2a0       ??0Player_Life@@QAE@XZ     0049c2a0 f i UiShell.obj
 0001:0009b2c0       ??_EPlayer_Life@@UAEPAXI@Z 0049c2c0 f i UiShell.obj
 0001:0009b2c0       ??_GPlayer_Life@@UAEPAXI@Z 0049c2c0 f i UiShell.obj
 0001:0009b2f0       ??1Player_Life@@UAE@XZ     0049c2f0 f i UiShell.obj
 0001:0009b310       ?CreateObject@Player_Mana@@SAPAVKWndWindow@@XZ 0049c310 f i UiShell.obj
 0001:0009b380       ??0Player_Mana@@QAE@XZ     0049c380 f i UiShell.obj
 0001:0009b3a0       ??_EPlayer_Mana@@UAEPAXI@Z 0049c3a0 f i UiShell.obj
 0001:0009b3a0       ??_GPlayer_Mana@@UAEPAXI@Z 0049c3a0 f i UiShell.obj
 0001:0009b3d0       ??1Player_Mana@@UAE@XZ     0049c3d0 f i UiShell.obj
 0001:0009b3f0       ?CreateObject@Player_Stamina@@SAPAVKWndWindow@@XZ 0049c3f0 f i UiShell.obj
 0001:0009b460       ??0Player_Stamina@@QAE@XZ  0049c460 f i UiShell.obj
 0001:0009b480       ??_EPlayer_Stamina@@UAEPAXI@Z 0049c480 f i UiShell.obj
 0001:0009b480       ??_GPlayer_Stamina@@UAEPAXI@Z 0049c480 f i UiShell.obj
 0001:0009b4b0       ??1Player_Stamina@@UAE@XZ  0049c4b0 f i UiShell.obj
 0001:0009b4d0       ?CreateObject@Player_Exp@@SAPAVKWndWindow@@XZ 0049c4d0 f i UiShell.obj
 0001:0009b540       ??0Player_Exp@@QAE@XZ      0049c540 f i UiShell.obj
 0001:0009b560       ??_EPlayer_Exp@@UAEPAXI@Z  0049c560 f i UiShell.obj
 0001:0009b560       ??_GPlayer_Exp@@UAEPAXI@Z  0049c560 f i UiShell.obj
 0001:0009b590       ??1Player_Exp@@UAE@XZ      0049c590 f i UiShell.obj
 0001:0009b5b0       ?CreateObject@Player_Level@@SAPAVKWndWindow@@XZ 0049c5b0 f i UiShell.obj
 0001:0009b620       ??0Player_Level@@QAE@XZ    0049c620 f i UiShell.obj
 0001:0009b640       ??_EPlayer_Level@@UAEPAXI@Z 0049c640 f i UiShell.obj
 0001:0009b640       ??_GPlayer_Level@@UAEPAXI@Z 0049c640 f i UiShell.obj
 0001:0009b670       ??1Player_Level@@UAE@XZ    0049c670 f i UiShell.obj
 0001:0009b690       ?CreateObject@Player_SectSort@@SAPAVKWndWindow@@XZ 0049c690 f i UiShell.obj
 0001:0009b700       ??0Player_SectSort@@QAE@XZ 0049c700 f i UiShell.obj
 0001:0009b720       ??_GPlayer_SectSort@@UAEPAXI@Z 0049c720 f i UiShell.obj
 0001:0009b720       ??_EPlayer_SectSort@@UAEPAXI@Z 0049c720 f i UiShell.obj
 0001:0009b750       ??1Player_SectSort@@UAE@XZ 0049c750 f i UiShell.obj
 0001:0009b770       ?CreateObject@Player_WorldSort@@SAPAVKWndWindow@@XZ 0049c770 f i UiShell.obj
 0001:0009b7e0       ??0Player_WorldSort@@QAE@XZ 0049c7e0 f i UiShell.obj
 0001:0009b800       ??_GPlayer_WorldSort@@UAEPAXI@Z 0049c800 f i UiShell.obj
 0001:0009b800       ??_EPlayer_WorldSort@@UAEPAXI@Z 0049c800 f i UiShell.obj
 0001:0009b830       ??1Player_WorldSort@@UAE@XZ 0049c830 f i UiShell.obj
 0001:0009b850       ?CreateObject@Player_Status@@SAPAVKWndWindow@@XZ 0049c850 f i UiShell.obj
 0001:0009b8c0       ??0Player_Status@@QAE@XZ   0049c8c0 f i UiShell.obj
 0001:0009b8e0       ??_EPlayer_Status@@UAEPAXI@Z 0049c8e0 f i UiShell.obj
 0001:0009b8e0       ??_GPlayer_Status@@UAEPAXI@Z 0049c8e0 f i UiShell.obj
 0001:0009b910       ??1Player_Status@@UAE@XZ   0049c910 f i UiShell.obj
 0001:0009b930       ?CreateObject@Player_Items@@SAPAVKWndWindow@@XZ 0049c930 f i UiShell.obj
 0001:0009b9a0       ??0Player_Items@@QAE@XZ    0049c9a0 f i UiShell.obj
 0001:0009b9c0       ??_EPlayer_Items@@UAEPAXI@Z 0049c9c0 f i UiShell.obj
 0001:0009b9c0       ??_GPlayer_Items@@UAEPAXI@Z 0049c9c0 f i UiShell.obj
 0001:0009b9f0       ??1Player_Items@@UAE@XZ    0049c9f0 f i UiShell.obj
 0001:0009ba10       ?CreateObject@Player_ItemEx@@SAPAVKWndWindow@@XZ 0049ca10 f i UiShell.obj
 0001:0009ba80       ??0Player_ItemEx@@QAE@XZ   0049ca80 f i UiShell.obj
 0001:0009baa0       ??_EPlayer_ItemEx@@UAEPAXI@Z 0049caa0 f i UiShell.obj
 0001:0009baa0       ??_GPlayer_ItemEx@@UAEPAXI@Z 0049caa0 f i UiShell.obj
 0001:0009bad0       ??1Player_ItemEx@@UAE@XZ   0049cad0 f i UiShell.obj
 0001:0009baf0       ?CreateObject@Player_Skills@@SAPAVKWndWindow@@XZ 0049caf0 f i UiShell.obj
 0001:0009bb60       ??0Player_Skills@@QAE@XZ   0049cb60 f i UiShell.obj
 0001:0009bb80       ??_GPlayer_Skills@@UAEPAXI@Z 0049cb80 f i UiShell.obj
 0001:0009bb80       ??_EPlayer_Skills@@UAEPAXI@Z 0049cb80 f i UiShell.obj
 0001:0009bbb0       ??1Player_Skills@@UAE@XZ   0049cbb0 f i UiShell.obj
 0001:0009bbd0       ?CreateObject@Player_Team@@SAPAVKWndWindow@@XZ 0049cbd0 f i UiShell.obj
 0001:0009bc40       ??0Player_Team@@QAE@XZ     0049cc40 f i UiShell.obj
 0001:0009bc60       ??_GPlayer_Team@@UAEPAXI@Z 0049cc60 f i UiShell.obj
 0001:0009bc60       ??_EPlayer_Team@@UAEPAXI@Z 0049cc60 f i UiShell.obj
 0001:0009bc90       ??1Player_Team@@UAE@XZ     0049cc90 f i UiShell.obj
 0001:0009bcb0       ?CreateObject@Player_Faction@@SAPAVKWndWindow@@XZ 0049ccb0 f i UiShell.obj
 0001:0009bd20       ??0Player_Faction@@QAE@XZ  0049cd20 f i UiShell.obj
 0001:0009bd40       ??_GPlayer_Faction@@UAEPAXI@Z 0049cd40 f i UiShell.obj
 0001:0009bd40       ??_EPlayer_Faction@@UAEPAXI@Z 0049cd40 f i UiShell.obj
 0001:0009bd70       ??1Player_Faction@@UAE@XZ  0049cd70 f i UiShell.obj
 0001:0009bd90       ?CreateObject@Player_Sit@@SAPAVKWndWindow@@XZ 0049cd90 f i UiShell.obj
 0001:0009be00       ??0Player_Sit@@QAE@XZ      0049ce00 f i UiShell.obj
 0001:0009be20       ??_GPlayer_Sit@@UAEPAXI@Z  0049ce20 f i UiShell.obj
 0001:0009be20       ??_EPlayer_Sit@@UAEPAXI@Z  0049ce20 f i UiShell.obj
 0001:0009be50       ??1Player_Sit@@UAE@XZ      0049ce50 f i UiShell.obj
 0001:0009be70       ?CreateObject@Player_Run@@SAPAVKWndWindow@@XZ 0049ce70 f i UiShell.obj
 0001:0009bee0       ??0Player_Run@@QAE@XZ      0049cee0 f i UiShell.obj
 0001:0009bf00       ??_GPlayer_Run@@UAEPAXI@Z  0049cf00 f i UiShell.obj
 0001:0009bf00       ??_EPlayer_Run@@UAEPAXI@Z  0049cf00 f i UiShell.obj
 0001:0009bf30       ??1Player_Run@@UAE@XZ      0049cf30 f i UiShell.obj
 0001:0009bf50       ?CreateObject@Player_Horse@@SAPAVKWndWindow@@XZ 0049cf50 f i UiShell.obj
 0001:0009bfc0       ??0Player_Horse@@QAE@XZ    0049cfc0 f i UiShell.obj
 0001:0009bfe0       ??_EPlayer_Horse@@UAEPAXI@Z 0049cfe0 f i UiShell.obj
 0001:0009bfe0       ??_GPlayer_Horse@@UAEPAXI@Z 0049cfe0 f i UiShell.obj
 0001:0009c010       ??1Player_Horse@@UAE@XZ    0049d010 f i UiShell.obj
 0001:0009c030       ?CreateObject@Player_Exchange@@SAPAVKWndWindow@@XZ 0049d030 f i UiShell.obj
 0001:0009c0a0       ??0Player_Exchange@@QAE@XZ 0049d0a0 f i UiShell.obj
 0001:0009c0c0       ??_GPlayer_Exchange@@UAEPAXI@Z 0049d0c0 f i UiShell.obj
 0001:0009c0c0       ??_EPlayer_Exchange@@UAEPAXI@Z 0049d0c0 f i UiShell.obj
 0001:0009c0f0       ??1Player_Exchange@@UAE@XZ 0049d0f0 f i UiShell.obj
 0001:0009c110       ?CreateObject@Player_PK@@SAPAVKWndWindow@@XZ 0049d110 f i UiShell.obj
 0001:0009c180       ??0Player_PK@@QAE@XZ       0049d180 f i UiShell.obj
 0001:0009c1a0       ??_EPlayer_PK@@UAEPAXI@Z   0049d1a0 f i UiShell.obj
 0001:0009c1a0       ??_GPlayer_PK@@UAEPAXI@Z   0049d1a0 f i UiShell.obj
 0001:0009c1d0       ??1Player_PK@@UAE@XZ       0049d1d0 f i UiShell.obj
 0001:0009c1f0       ?CreateObject@Player_ChatRoom@@SAPAVKWndWindow@@XZ 0049d1f0 f i UiShell.obj
 0001:0009c260       ??0Player_ChatRoom@@QAE@XZ 0049d260 f i UiShell.obj
 0001:0009c280       ??_GPlayer_ChatRoom@@UAEPAXI@Z 0049d280 f i UiShell.obj
 0001:0009c280       ??_EPlayer_ChatRoom@@UAEPAXI@Z 0049d280 f i UiShell.obj
 0001:0009c2b0       ??1Player_ChatRoom@@UAE@XZ 0049d2b0 f i UiShell.obj
 0001:0009c2d0       ?CreateObject@Player_Recorder@@SAPAVKWndWindow@@XZ 0049d2d0 f i UiShell.obj
 0001:0009c340       ??0Player_Recorder@@QAE@XZ 0049d340 f i UiShell.obj
 0001:0009c360       ??_EPlayer_Recorder@@UAEPAXI@Z 0049d360 f i UiShell.obj
 0001:0009c360       ??_GPlayer_Recorder@@UAEPAXI@Z 0049d360 f i UiShell.obj
 0001:0009c390       ??1Player_Recorder@@UAE@XZ 0049d390 f i UiShell.obj
 0001:0009c3b0       ?CreateObject@Player_Auto@@SAPAVKWndWindow@@XZ 0049d3b0 f i UiShell.obj
 0001:0009c420       ??0Player_Auto@@QAE@XZ     0049d420 f i UiShell.obj
 0001:0009c440       ??_EPlayer_Auto@@UAEPAXI@Z 0049d440 f i UiShell.obj
 0001:0009c440       ??_GPlayer_Auto@@UAEPAXI@Z 0049d440 f i UiShell.obj
 0001:0009c470       ??1Player_Auto@@UAE@XZ     0049d470 f i UiShell.obj
 0001:0009c4aa       ?GetFileTimeVersionString@@YA_NPBDPADH@Z 0049d4aa f   UiShell.obj
 0001:0009c596       ?UiPostQuitMsg@@YAXXZ      0049d596 f   UiShell.obj
 0001:0009c5b3       ?UiIsAlreadyQuit@@YA_NXZ   0049d5b3 f   UiShell.obj
 0001:0009c5c4       ?UiInit@@YAHXZ             0049d5c4 f   UiShell.obj
 0001:0009c7a5       ?UiExit@@YAXXZ             0049d7a5 f   UiShell.obj
 0001:0009c844       ?UiStart@@YAHXZ            0049d844 f   UiShell.obj
 0001:0009c879       ?UiPaint@@YAXH@Z           0049d879 f   UiShell.obj
 0001:0009c96d       ?UiHeartBeat@@YAHXZ        0049d96d f   UiShell.obj
 0001:0009c9fa       ?UiProcessInput@@YAXIIH@Z  0049d9fa f   UiShell.obj
 0001:0009ca85       ?UiCloseWndsOutGame@@YAX_N@Z 0049da85 f   UiShell.obj
 0001:0009caff       ?UiStartGame@@YAXXZ        0049daff f   UiShell.obj
 0001:0009cc05       ?UiResumeGame@@YAXXZ       0049dc05 f   UiShell.obj
 0001:0009cc14       ?UiCloseWndsInGame@@YA_N_N@Z 0049dc14 f   UiShell.obj
 0001:0009cfaa       ?UiEndGame@@YAXXZ          0049dfaa f   UiShell.obj
 0001:0009d036       ?UiSetScreenSize@@YAXHH@Z  0049e036 f   UiShell.obj
 0001:0009d04b       ?UiOnGameServerConnected@@YAXXZ 0049e04b f   UiShell.obj
 0001:0009d05a       ?UiOnGameServerStartSyncEnd@@YAXXZ 0049e05a f   UiShell.obj
 0001:0009d091       ?UpdateData@Player_Life@@UAEXXZ 0049e091 f   UiShell.obj
 0001:0009d130       ?OnButtonClick@Player_Life@@UAEXXZ 0049e130 f   UiShell.obj
 0001:0009d153       ?UpdateData@Player_Mana@@UAEXXZ 0049e153 f   UiShell.obj
 0001:0009d1f2       ?OnButtonClick@Player_Mana@@UAEXXZ 0049e1f2 f   UiShell.obj
 0001:0009d215       ?UpdateData@Player_Stamina@@UAEXXZ 0049e215 f   UiShell.obj
 0001:0009d2b4       ?OnButtonClick@Player_Stamina@@UAEXXZ 0049e2b4 f   UiShell.obj
 0001:0009d2d7       ?UpdateData@Player_Exp@@UAEXXZ 0049e2d7 f   UiShell.obj
 0001:0009d4d5       ?OnButtonClick@Player_Exp@@UAEXXZ 0049e4d5 f   UiShell.obj
 0001:0009d4f8       ?GetToolTipInfo@Player_Exp@@UAEHPADH@Z 0049e4f8 f   UiShell.obj
 0001:0009d57c       ?UpdateData@Player_Level@@UAEXXZ 0049e57c f   UiShell.obj
 0001:0009d5dc       ?UpdateData@Player_SectSort@@UAEXXZ 0049e5dc f   UiShell.obj
 0001:0009d639       ?OnButtonClick@Player_SectSort@@UAEXXZ 0049e639 f   UiShell.obj
 0001:0009d652       ?UpdateData@Player_WorldSort@@UAEXXZ 0049e652 f   UiShell.obj
 0001:0009d6af       ?OnButtonClick@Player_WorldSort@@UAEXXZ 0049e6af f   UiShell.obj
 0001:0009d6c8       ?OnButtonClick@Player_Status@@UAEXXZ 0049e6c8 f   UiShell.obj
 0001:0009d6e0       ?GetShortKey@Player_Status@@UAEPBDXZ 0049e6e0 f   UiShell.obj
 0001:0009d70a       ?OnButtonClick@Player_Items@@UAEXXZ 0049e70a f   UiShell.obj
 0001:0009d722       ?GetShortKey@Player_Items@@UAEPBDXZ 0049e722 f   UiShell.obj
 0001:0009d74c       ?OnButtonClick@Player_ItemEx@@UAEXXZ 0049e74c f   UiShell.obj
 0001:0009d764       ?GetShortKey@Player_ItemEx@@UAEPBDXZ 0049e764 f   UiShell.obj
 0001:0009d78e       ?OnButtonClick@Player_Skills@@UAEXXZ 0049e78e f   UiShell.obj
 0001:0009d7a6       ?GetShortKey@Player_Skills@@UAEPBDXZ 0049e7a6 f   UiShell.obj
 0001:0009d7d0       ?OnButtonClick@Player_Team@@UAEXXZ 0049e7d0 f   UiShell.obj
 0001:0009d7e8       ?GetShortKey@Player_Team@@UAEPBDXZ 0049e7e8 f   UiShell.obj
 0001:0009d812       ?OnButtonClick@Player_Faction@@UAEXXZ 0049e812 f   UiShell.obj
 0001:0009d82a       ?GetShortKey@Player_Faction@@UAEPBDXZ 0049e82a f   UiShell.obj
 0001:0009d854       ?OnButtonClick@Player_Sit@@UAEXXZ 0049e854 f   UiShell.obj
 0001:0009d86c       ?UpdateData@Player_Sit@@UAEXXZ 0049e86c f   UiShell.obj
 0001:0009d8c0       ?GetShortKey@Player_Sit@@UAEPBDXZ 0049e8c0 f   UiShell.obj
 0001:0009d8ea       ?OnButtonClick@Player_Run@@UAEXXZ 0049e8ea f   UiShell.obj
 0001:0009d902       ?UpdateData@Player_Run@@UAEXXZ 0049e902 f   UiShell.obj
 0001:0009d956       ?GetShortKey@Player_Run@@UAEPBDXZ 0049e956 f   UiShell.obj
 0001:0009d980       ?OnButtonClick@Player_Horse@@UAEXXZ 0049e980 f   UiShell.obj
 0001:0009d998       ?UpdateData@Player_Horse@@UAEXXZ 0049e998 f   UiShell.obj
 0001:0009d9ec       ?GetShortKey@Player_Horse@@UAEPBDXZ 0049e9ec f   UiShell.obj
 0001:0009da16       ?OnButtonClick@Player_Exchange@@UAEXXZ 0049ea16 f   UiShell.obj
 0001:0009da2e       ?UpdateData@Player_Exchange@@UAEXXZ 0049ea2e f   UiShell.obj
 0001:0009da61       ?GetShortKey@Player_Exchange@@UAEPBDXZ 0049ea61 f   UiShell.obj
 0001:0009da8b       ?OnButtonClick@Player_PK@@UAEXXZ 0049ea8b f   UiShell.obj
 0001:0009daa3       ?UpdateData@Player_PK@@UAEXXZ 0049eaa3 f   UiShell.obj
 0001:0009db54       ?GetShortKey@Player_PK@@UAEPBDXZ 0049eb54 f   UiShell.obj
 0001:0009db7e       ?OnButtonClick@Player_ChatRoom@@UAEXXZ 0049eb7e f   UiShell.obj
 0001:0009db96       ?GetShortKey@Player_ChatRoom@@UAEPBDXZ 0049eb96 f   UiShell.obj
 0001:0009dbc0       ?OnButtonClick@Player_Recorder@@UAEXXZ 0049ebc0 f   UiShell.obj
 0001:0009dbcb       ?GetShortKey@Player_Recorder@@UAEPBDXZ 0049ebcb f   UiShell.obj
 0001:0009dbd8       ?OnButtonClick@Player_Auto@@UAEXXZ 0049ebd8 f   UiShell.obj
 0001:0009dbf0       ?GetShortKey@Player_Auto@@UAEPBDXZ 0049ebf0 f   UiShell.obj
 0001:0009dc20       ?RegisterSelfClass@Player_Life@@SAXXZ 0049ec20 f i UiShell.obj
 0001:0009dc40       ?RegisterSelfClass@Player_Mana@@SAXXZ 0049ec40 f i UiShell.obj
 0001:0009dc60       ?RegisterSelfClass@Player_Stamina@@SAXXZ 0049ec60 f i UiShell.obj
 0001:0009dc80       ?RegisterSelfClass@Player_Exp@@SAXXZ 0049ec80 f i UiShell.obj
 0001:0009dca0       ?RegisterSelfClass@Player_Level@@SAXXZ 0049eca0 f i UiShell.obj
 0001:0009dcc0       ?RegisterSelfClass@Player_SectSort@@SAXXZ 0049ecc0 f i UiShell.obj
 0001:0009dce0       ?RegisterSelfClass@Player_WorldSort@@SAXXZ 0049ece0 f i UiShell.obj
 0001:0009dd00       ?RegisterSelfClass@Player_Status@@SAXXZ 0049ed00 f i UiShell.obj
 0001:0009dd20       ?RegisterSelfClass@Player_Items@@SAXXZ 0049ed20 f i UiShell.obj
 0001:0009dd40       ?RegisterSelfClass@Player_ItemEx@@SAXXZ 0049ed40 f i UiShell.obj
 0001:0009dd60       ?RegisterSelfClass@Player_Skills@@SAXXZ 0049ed60 f i UiShell.obj
 0001:0009dd80       ?RegisterSelfClass@Player_Team@@SAXXZ 0049ed80 f i UiShell.obj
 0001:0009dda0       ?RegisterSelfClass@Player_Faction@@SAXXZ 0049eda0 f i UiShell.obj
 0001:0009ddc0       ?RegisterSelfClass@Player_Sit@@SAXXZ 0049edc0 f i UiShell.obj
 0001:0009dde0       ?RegisterSelfClass@Player_Run@@SAXXZ 0049ede0 f i UiShell.obj
 0001:0009de00       ?RegisterSelfClass@Player_Horse@@SAXXZ 0049ee00 f i UiShell.obj
 0001:0009de20       ?RegisterSelfClass@Player_Exchange@@SAXXZ 0049ee20 f i UiShell.obj
 0001:0009de40       ?RegisterSelfClass@Player_PK@@SAXXZ 0049ee40 f i UiShell.obj
 0001:0009de60       ?RegisterSelfClass@Player_ChatRoom@@SAXXZ 0049ee60 f i UiShell.obj
 0001:0009de80       ?RegisterSelfClass@Player_Recorder@@SAXXZ 0049ee80 f i UiShell.obj
 0001:0009dea0       ?RegisterSelfClass@Player_Auto@@SAXXZ 0049eea0 f i UiShell.obj
 0001:0009dec0       ?IsRoleNewCreated@KLogin@@QAEHXZ 0049eec0 f i UiShell.obj
 0001:0009dee0       ??0CChatFilter@@QAE@XZ     0049eee0 f   ChatFilter.obj
 0001:0009df01       ??1CChatFilter@@UAE@XZ     0049ef01 f   ChatFilter.obj
 0001:0009df15       ?Initialize@CChatFilter@@QAEHXZ 0049ef15 f   ChatFilter.obj
 0001:0009e163       ?Uninitialize@CChatFilter@@QAEHXZ 0049f163 f   ChatFilter.obj
 0001:0009e198       ?IsTextPass@CChatFilter@@QAEHPBD@Z 0049f198 f   ChatFilter.obj
 0001:0009e1d0       ??_ECChatFilter@@UAEPAXI@Z 0049f1d0 f i ChatFilter.obj
 0001:0009e1d0       ??_GCChatFilter@@UAEPAXI@Z 0049f1d0 f i ChatFilter.obj
 0001:0009e200       ??0CFilterTextLib@@QAE@XZ  0049f200 f   FilterTextLib.obj
 0001:0009e217       ??1CFilterTextLib@@UAE@XZ  0049f217 f   FilterTextLib.obj
 0001:0009e22b       ?Initialize@CFilterTextLib@@QAEHXZ 0049f22b f   FilterTextLib.obj
 0001:0009e23b       ?Uninitialize@CFilterTextLib@@QAEHXZ 0049f23b f   FilterTextLib.obj
 0001:0009e24b       ?CreateTextFilter@CFilterTextLib@@QAEJPAPAUITextFilter@@@Z 0049f24b f   FilterTextLib.obj
 0001:0009e270       ??_ECFilterTextLib@@UAEPAXI@Z 0049f270 f i FilterTextLib.obj
 0001:0009e270       ??_GCFilterTextLib@@UAEPAXI@Z 0049f270 f i FilterTextLib.obj
 0001:0009e3b7       _WinMain@16                0049f3b7 f   S3Client.obj
 0001:0009e4aa       ??0KMyApp@@QAE@XZ          0049f4aa f   S3Client.obj
 0001:0009e535       ?InitRepresentShell@@YAHHHH@Z 0049f535 f   S3Client.obj
 0001:0009e64e       ?GameInit@KMyApp@@UAEHXZ   0049f64e f   S3Client.obj
 0001:0009eb60       ?GameExit@KMyApp@@UAEHXZ   0049fb60 f   S3Client.obj
 0001:0009ecd0       ?GameLoop@KMyApp@@UAEHXZ   0049fcd0 f   S3Client.obj
 0001:0009eddc       ?HandleInput@KMyApp@@MAEHIIJ@Z 0049fddc f   S3Client.obj
 0001:0009eed0       ??1KMyApp@@QAE@XZ          0049fed0 f i S3Client.obj
 0001:0009ef30       ??0KClientCallback@@QAE@XZ 0049ff30 f i S3Client.obj
 0001:0009ef50       ??0IClientCallback@@QAE@XZ 0049ff50 f i S3Client.obj
 0001:0009ef70       ??_GKInlinePicSink@@QAEPAXI@Z 0049ff70 f i S3Client.obj
 0001:0009efa0       ??1KInlinePicSink@@QAE@XZ  0049ffa0 f i S3Client.obj
 0001:0009f04f       ??0KNetConnectAgent@@QAE@XZ 004a004f f   NetConnectAgent.obj
 0001:0009f0ce       ??1KNetConnectAgent@@QAE@XZ 004a00ce f   NetConnectAgent.obj
 0001:0009f0e1       ?Initialize@KNetConnectAgent@@QAEHXZ 004a00e1 f   NetConnectAgent.obj
 0001:0009f1a2       ?Exit@KNetConnectAgent@@QAEXXZ 004a01a2 f   NetConnectAgent.obj
 0001:0009f23a       ?ClientConnectByNumericIp@KNetConnectAgent@@QAEHPBEG@Z 004a023a f   NetConnectAgent.obj
 0001:0009f398       ?DisconnectClient@KNetConnectAgent@@QAEXXZ 004a0398 f   NetConnectAgent.obj
 0001:0009f42f       ?ConnectToGameSvr@KNetConnectAgent@@QAEHPBEGPAU_GUID@@@Z 004a042f f   NetConnectAgent.obj
 0001:0009f5eb       ?DisconnectGameSvr@KNetConnectAgent@@QAEXXZ 004a05eb f   NetConnectAgent.obj
 0001:0009f69b       ?SendMsg@KNetConnectAgent@@QAEHPBXH@Z 004a069b f   NetConnectAgent.obj
 0001:0009f6d9       ?Breathe@KNetConnectAgent@@QAEXXZ 004a06d9 f   NetConnectAgent.obj
 0001:0009f8fb       ?RegisterMsgTargetObject@KNetConnectAgent@@QAEXEPAUiKNetMsgTargetObject@@@Z 004a08fb f   NetConnectAgent.obj
 0001:0009f938       ?TobeDisconnect@KNetConnectAgent@@QAEXXZ 004a0938 f   NetConnectAgent.obj
 0001:0009f94d       ?UpdateClientRequestTime@KNetConnectAgent@@QAEX_NI@Z 004a094d f   NetConnectAgent.obj
 0001:0009f9c8       ?IsConnecting@KNetConnectAgent@@QAEHH@Z 004a09c8 f   NetConnectAgent.obj
 0001:0009f9f5       ?ClientCallBack@@YGXPAXABK@Z 004a09f5 f   NetConnectAgent.obj
 0001:0009fa40       ?ProcessSwitchGameSvrMsg@KNetConnectAgent@@AAE_NPAX@Z 004a0a40 f   NetConnectAgent.obj
 0001:0009fb8f       ?GetIpAddress@@YA_NPBDPAE@Z 004a0b8f f   Login.obj
 0001:0009fc48       ?RandMemSet@@YAXHPAE@Z     004a0c48 f   Login.obj
 0001:0009fc91       ??0KLogin@@QAE@XZ          004a0c91 f   Login.obj
 0001:0009fd0a       ?ClearAccountPassword@KLogin@@AAEX_N0@Z 004a0d0a f   Login.obj
 0001:0009fd61       ??1KLogin@@QAE@XZ          004a0d61 f   Login.obj
 0001:0009fd75       ?CreateConnection@KLogin@@QAEHPBE@Z 004a0d75 f   Login.obj
 0001:0009fe45       ?AccountLogin@KLogin@@QAEHPBDABUtagKSG_PASSWORD@@_N@Z 004a0e45 f   Login.obj
 0001:0009fedc       ?SelectRole@KLogin@@QAEHH@Z 004a0edc f   Login.obj
 0001:0009ffa2       ?CreateRole@KLogin@@QAEHPAUKRoleChiefInfo@@@Z 004a0fa2 f   Login.obj
 0001:000a010b       ?DeleteRole@KLogin@@QAEHHABUtagKSG_PASSWORD@@@Z 004a110b f   Login.obj
 0001:000a0248       ?NotifyTimeout@KLogin@@QAEXXZ 004a1248 f   Login.obj
 0001:000a026e       ?NotifyDisconnect@KLogin@@QAEXXZ 004a126e f   Login.obj
 0001:000a0294       ?NotifyToStartGame@KLogin@@QAEXXZ 004a1294 f   Login.obj
 0001:000a030d       ?ReturnToIdle@KLogin@@QAEXXZ 004a130d f   Login.obj
 0001:000a0362       ?AutoLogin@KLogin@@QAEXXZ  004a1362 f   Login.obj
 0001:000a040a       ?IsAutoLoginEnable@KLogin@@QAEHXZ 004a140a f   Login.obj
 0001:000a0463       ?SetLastInvisibleFlag@KLogin@@QAEXH@Z 004a1463 f   Login.obj
 0001:000a047c       ?SetRememberAccountFlag@KLogin@@QAEX_N@Z 004a147c f   Login.obj
 0001:000a04ac       ?SetRememberAllFlag@KLogin@@QAEX_N@Z 004a14ac f   Login.obj
 0001:000a04dc       ?SetVirtualKeyboardFlag@KLogin@@QAEX_N@Z 004a14dc f   Login.obj
 0001:000a04f5       ?GetRoleInfo@KLogin@@QAEHHPAUKRoleChiefInfo@@@Z 004a14f5 f   Login.obj
 0001:000a0551       ?ProcessAccountLoginResponse@KLogin@@AAEXPAUKLoginStructHead@@@Z 004a1551 f   Login.obj
 0001:000a074a       ?ProcessRoleListResponse@KLogin@@AAEXPAUTProcessData@@@Z 004a174a f   Login.obj
 0001:000a08a6       ?ProcessCreateRoleResponse@KLogin@@AAEXPAUtagNewDelRoleResponse@@@Z 004a18a6 f   Login.obj
 0001:000a0924       ?ProcessDeleteRoleResponse@KLogin@@AAEXPAUtagNewDelRoleResponse@@@Z 004a1924 f   Login.obj
 0001:000a0a69       ?ProcessToLoginGameServResponse@KLogin@@AAEXPAUtagNotifyPlayerLogin@@@Z 004a1a69 f   Login.obj
 0001:000a0b1e       ?AcceptNetMsg@KLogin@@UAEXPAX@Z 004a1b1e f   Login.obj
 0001:000a0bb6       ?GetResult@KLogin@@QAE?AW4LOGIN_LOGIC_RESULT_INFO@@XZ 004a1bb6 f   Login.obj
 0001:000a0bd9       ?GetRoleCount@KLogin@@QAEHAAH@Z 004a1bd9 f   Login.obj
 0001:000a0c53       ?GetLoginAccount@KLogin@@QAE_NPAD@Z 004a1c53 f   Login.obj
 0001:000a0c7d       ?GetLoginVirtualKeyboard@KLogin@@QAE_NXZ 004a1c7d f   Login.obj
 0001:000a0c91       ?LoadLoginChoice@KLogin@@QAEXXZ 004a1c91 f   Login.obj
 0001:000a0ec0       ?SaveLoginChoice@KLogin@@QAEXXZ 004a1ec0 f   Login.obj
 0001:000a1343       ?GetRegionServer@KLogin@@QAEXPAD0@Z 004a2343 f   Login.obj
 0001:000a1376       ?GetServerRegionList@KLogin@@QAEPAUKLoginServer@@AAH0@Z 004a2376 f   Login.obj
 0001:000a1560       ?GetServerList@KLogin@@QAEPAUKLoginServer@@HAAH0@Z 004a2560 f   Login.obj
 0001:000a18b6       ?SetAccountServer@KLogin@@QAEHABUKLoginServer@@@Z 004a28b6 f   Login.obj
 0001:000a18dc       ?Request@KLogin@@AAEHPBDPBUtagKSG_PASSWORD@@H@Z 004a28dc f   Login.obj
 0001:000a198d       ?ConnectAccountServer@KLogin@@AAEHPBE@Z 004a298d f   Login.obj
 0001:000a1a44       ?RegistNetAgent@KLogin@@AAEXXZ 004a2a44 f   Login.obj
 0001:000a1a92       ?UnRegistNetAgent@KLogin@@AAEXXZ 004a2a92 f   Login.obj
 0001:000a1ad8       ?SetAccountPassword@KLogin@@AAEXPBDPBUtagKSG_PASSWORD@@@Z 004a2ad8 f   Login.obj
 0001:000a1b8d       ?GetAccountPassword@KLogin@@QAEXPADPAUtagKSG_PASSWORD@@@Z 004a2b8d f   Login.obj
 0001:000a1c30       ?GetLoginLastInvisible@KLogin@@QAEHXZ 004a2c30 f   Login.obj
 0001:000a1c50       ??0iKNetMsgTargetObject@@QAE@XZ 004a2c50 f i Login.obj
 0001:000a1c70       ?TextMsgFilter@@YAHPBDH@Z  004a2c70 f   TextCtrlCmd.obj
 0001:000a1cc0       ?Error_SetErrorCode@@YAXI@Z 004a2cc0 f   ErrorCode.obj
 0001:000a1ccd       ?Error_SetErrorString@@YAXPBD@Z 004a2ccd f   ErrorCode.obj
 0001:000a1ced       ?Error_Box@@YAXXZ          004a2ced f   ErrorCode.obj
 0001:000a1f48       _DeleteFileA@4             004a2f48 f   kernel32:KERNEL32.dll
 0001:000a1f4e       _GetTempFileNameA@16       004a2f4e f   kernel32:KERNEL32.dll
 0001:000a1f54       _GetTempPathA@8            004a2f54 f   kernel32:KERNEL32.dll
 0001:000a1f5a       _GetTickCount@0            004a2f5a f   kernel32:KERNEL32.dll
 0001:000a1f60       _GlobalUnlock@4            004a2f60 f   kernel32:KERNEL32.dll
 0001:000a1f66       _GlobalLock@4              004a2f66 f   kernel32:KERNEL32.dll
 0001:000a1f6c       _GlobalAlloc@8             004a2f6c f   kernel32:KERNEL32.dll
 0001:000a1f72       _MulDiv@12                 004a2f72 f   kernel32:KERNEL32.dll
 0001:000a1f78       _SystemTimeToTzSpecificLocalTime@12 004a2f78 f   kernel32:KERNEL32.dll
 0001:000a1f7e       _RemoveDirectoryA@4        004a2f7e f   kernel32:KERNEL32.dll
 0001:000a1f84       _FindClose@4               004a2f84 f   kernel32:KERNEL32.dll
 0001:000a1f8a       _FindNextFileA@8           004a2f8a f   kernel32:KERNEL32.dll
 0001:000a1f90       _SetFileAttributesA@8      004a2f90 f   kernel32:KERNEL32.dll
 0001:000a1f96       _FindFirstFileA@8          004a2f96 f   kernel32:KERNEL32.dll
 0001:000a1f9c       _GetVersion@0              004a2f9c f   kernel32:KERNEL32.dll
 0001:000a1fa2       _GetTimeFormatA@24         004a2fa2 f   kernel32:KERNEL32.dll
 0001:000a1fa8       _GetDateFormatA@24         004a2fa8 f   kernel32:KERNEL32.dll
 0001:000a1fae       _FileTimeToSystemTime@8    004a2fae f   kernel32:KERNEL32.dll
 0001:000a1fb4       _FileTimeToLocalFileTime@8 004a2fb4 f   kernel32:KERNEL32.dll
 0001:000a1fba       _CloseHandle@4             004a2fba f   kernel32:KERNEL32.dll
 0001:000a1fc0       _GetFileTime@16            004a2fc0 f   kernel32:KERNEL32.dll
 0001:000a1fc6       _CreateFileA@28            004a2fc6 f   kernel32:KERNEL32.dll
 0001:000a1fcc       _GetModuleFileNameA@12     004a2fcc f   kernel32:KERNEL32.dll
 0001:000a1fd2       _FreeConsole@0             004a2fd2 f   kernel32:KERNEL32.dll
 0001:000a1fd8       _AllocConsole@0            004a2fd8 f   kernel32:KERNEL32.dll
 0001:000a1fde       _GetProcAddress@8          004a2fde f   kernel32:KERNEL32.dll
 0001:000a1fe4       _LoadLibraryA@4            004a2fe4 f   kernel32:KERNEL32.dll
 0001:000a1fea       _FreeLibrary@4             004a2fea f   kernel32:KERNEL32.dll
 0001:000a1ff0       _Sleep@4                   004a2ff0 f   kernel32:KERNEL32.dll
 0001:000a1ff6       _SetCursor@4               004a2ff6 f   user32:USER32.dll
 0001:000a1ffc       _LoadCursorA@8             004a2ffc f   user32:USER32.dll
 0001:000a2002       _LoadCursorFromFileA@4     004a3002 f   user32:USER32.dll
 0001:000a2008       _ShowCursor@4              004a3008 f   user32:USER32.dll
 0001:000a200e       _SetCaretPos@8             004a300e f   user32:USER32.dll
 0001:000a2014       _CloseClipboard@0          004a3014 f   user32:USER32.dll
 0001:000a201a       _SetClipboardData@8        004a301a f   user32:USER32.dll
 0001:000a2020       _EmptyClipboard@0          004a3020 f   user32:USER32.dll
 0001:000a2026       _OpenClipboard@4           004a3026 f   user32:USER32.dll
 0001:000a202c       _GetClipboardData@4        004a302c f   user32:USER32.dll
 0001:000a2032       _GetKeyState@4             004a3032 f   user32:USER32.dll
 0001:000a2038       _SetCursorPos@8            004a3038 f   user32:USER32.dll
 0001:000a203e       _ClientToScreen@8          004a303e f   user32:USER32.dll
 0001:000a2044       _SendMessageA@16           004a3044 f   user32:USER32.dll
 0001:000a204a       _SetWindowTextA@8          004a304a f   user32:USER32.dll
 0001:000a2050       _MessageBoxA@16            004a3050 f   user32:USER32.dll
 0001:000a2056       _SHGetSpecialFolderPathA@16 004a3056 f   shell32:SHELL32.dll
 0001:000a205c       _ShellExecuteA@24          004a305c f   shell32:SHELL32.dll
 0001:000a2062       _PathRemoveFileSpecA@4     004a3062 f   shlwapi:SHLWAPI.dll
 0001:000a2068       _PathRemoveExtensionA@4    004a3068 f   shlwapi:SHLWAPI.dll
 0001:000a206e       _PathFindFileNameA@4       004a306e f   shlwapi:SHLWAPI.dll
 0001:000a2074       _lua_tostring              004a3074 f   lualibdll:LuaLibDll.dll
 0001:000a207a       _lua_gettop                004a307a f   lualibdll:LuaLibDll.dll
 0001:000a2080       _lua_tonumber              004a3080 f   lualibdll:LuaLibDll.dll
 0001:000a2086       _lua_type                  004a3086 f   lualibdll:LuaLibDll.dll
 0001:000a208c       _lua_pushnumber            004a308c f   lualibdll:LuaLibDll.dll
 0001:000a2092       _lua_isnumber              004a3092 f   lualibdll:LuaLibDll.dll
 0001:000a2098       _lua_pushstring            004a3098 f   lualibdll:LuaLibDll.dll
 0001:000a209e       _TEncodeText               004a309e f   engine:Engine.dll
 0001:000a20a4       _TGetEncodedTextLineCount  004a30a4 f   engine:Engine.dll
 0001:000a20aa       ??1KIniFile@@QAE@XZ        004a30aa f   engine:Engine.dll
 0001:000a20b0       ?GetString@KIniFile@@QAEHPBD00PADK@Z 004a30b0 f   engine:Engine.dll
 0001:000a20b6       ?GetInteger@KIniFile@@QAEHPBD0HPAH@Z 004a30b6 f   engine:Engine.dll
 0001:000a20bc       ?Load@KIniFile@@QAEHPBD@Z  004a30bc f   engine:Engine.dll
 0001:000a20c2       ??0KIniFile@@QAE@XZ        004a30c2 f   engine:Engine.dll
 0001:000a20c8       _TFindSpecialCtrlInEncodedText 004a30c8 f   engine:Engine.dll
 0001:000a20ce       ?g_CreatePath@@YAXPAD@Z    004a30ce f   engine:Engine.dll
 0001:000a20d4       _AdviseEngine              004a30d4 f   engine:Engine.dll
 0001:000a20da       _UnAdviseEngine            004a30da f   engine:Engine.dll
 0001:000a20e0       ??1KPakFile@@QAE@XZ        004a30e0 f   engine:Engine.dll
 0001:000a20e6       ??1KFile@@QAE@XZ           004a30e6 f   engine:Engine.dll
 0001:000a20ec       ?Close@KFile@@QAEXXZ       004a30ec f   engine:Engine.dll
 0001:000a20f2       ?Close@KPakFile@@QAEXXZ    004a30f2 f   engine:Engine.dll
 0001:000a20f8       ?Write@KFile@@QAEKPAXK@Z   004a30f8 f   engine:Engine.dll
 0001:000a20fe       ?Read@KPakFile@@QAEKPAXI@Z 004a30fe f   engine:Engine.dll
 0001:000a2104       ?Size@KPakFile@@QAEKXZ     004a3104 f   engine:Engine.dll
 0001:000a210a       ?Open@KPakFile@@QAEHPBD@Z  004a310a f   engine:Engine.dll
 0001:000a2110       ?Create@KFile@@QAEHPAD@Z   004a3110 f   engine:Engine.dll
 0001:000a2116       ??0KFile@@QAE@XZ           004a3116 f   engine:Engine.dll
 0001:000a211c       ??0KPakFile@@QAE@XZ        004a311c f   engine:Engine.dll
 0001:000a2122       ??0KIme@@QAE@XZ            004a3122 f   engine:Engine.dll
 0001:000a2128       ??1KIme@@QAE@XZ            004a3128 f   engine:Engine.dll
 0001:000a212e       ?CloseIME@KIme@@QAEXXZ     004a312e f   engine:Engine.dll
 0001:000a2134       ?DisableLanguageChange@KIme@@QAEXXZ 004a3134 f   engine:Engine.dll
 0001:000a213a       ?IsIme@KIme@@QAEHXZ        004a313a f   engine:Engine.dll
 0001:000a2140       ?SetCaretPos@KIme@@QAEXHH@Z 004a3140 f   engine:Engine.dll
 0001:000a2146       ?OpenIME@KIme@@QAEXXZ      004a3146 f   engine:Engine.dll
 0001:000a214c       ?EnableLanguageChange@KIme@@QAEXXZ 004a314c f   engine:Engine.dll
 0001:000a2152       _TSplitString              004a3152 f   engine:Engine.dll
 0001:000a2158       _TGetLimitLenString        004a3158 f   engine:Engine.dll
 0001:000a215e       _TRemoveCtrlInEncodedText  004a315e f   engine:Engine.dll
 0001:000a2164       ?GetInteger2@KIniFile@@QAEXPBD0PAH1@Z 004a3164 f   engine:Engine.dll
 0001:000a216a       ?g_GetMainHWnd@@YAPAUHWND__@@XZ 004a316a f   engine:Engine.dll
 0001:000a2170       ?KSG_StringToMD5String@@YAHQADQBD@Z 004a3170 f   engine:Engine.dll
 0001:000a2176       ?WriteInteger@KIniFile@@QAEXPBD0H@Z 004a3176 f   engine:Engine.dll
 0001:000a217c       ?WriteString@KIniFile@@QAEXPBD00@Z 004a317c f   engine:Engine.dll
 0001:000a2182       ?GetInteger3@KIniFile@@QAEXPBD0PAH11@Z 004a3182 f   engine:Engine.dll
 0001:000a2188       ?WriteInteger3@KIniFile@@QAEXPBD0HHH@Z 004a3188 f   engine:Engine.dll
 0001:000a218e       ?g_DebugLog@@YAXPADZZ      004a318e f   engine:Engine.dll
 0001:000a2194       ?GetStruct@KIniFile@@QAEXPBD0PAXK@Z 004a3194 f   engine:Engine.dll
 0001:000a219a       ?EraseKey@KIniFile@@QAEXPBD0@Z 004a319a f   engine:Engine.dll
 0001:000a21a0       ?WriteStruct@KIniFile@@QAEXPBD0PAXK@Z 004a31a0 f   engine:Engine.dll
 0001:000a21a6       ?g_StrCpyLen@@YAXPADPBDH@Z 004a31a6 f   engine:Engine.dll
 0001:000a21ac       ?KSG_StringSetValue@@YAHHHHH@Z 004a31ac f   engine:Engine.dll
 0001:000a21b2       ?KSG_StringGetValue@@YAHHHH@Z 004a31b2 f   engine:Engine.dll
 0001:000a21b8       _TGetEncodedItemChatLineCount 004a31b8 f   engine:Engine.dll
 0001:000a21be       _TClearSpecialCtrlInEncodedText 004a31be f   engine:Engine.dll
 0001:000a21c4       ??1KTabFile@@UAE@XZ        004a31c4 f   engine:Engine.dll
 0001:000a21ca       ?GetString@KTabFile@@UAEHHPAD00KH@Z 004a31ca f   engine:Engine.dll
 0001:000a21d0       ?Load@KTabFile@@UAEHPAD@Z  004a31d0 f   engine:Engine.dll
 0001:000a21d6       ??0KTabFile@@QAE@XZ        004a31d6 f   engine:Engine.dll
 0001:000a21dc       ?KSG_StringSkipSymbol@@YA_NPAPBDH@Z 004a31dc f   engine:Engine.dll
 0001:000a21e2       ?KSG_StringGetInt@@YAHPAPBDH@Z 004a31e2 f   engine:Engine.dll
 0001:000a21e8       ?Read@KFile@@QAEKPAXK@Z    004a31e8 f   engine:Engine.dll
 0001:000a21ee       ?Open@KFile@@QAEHPAD@Z     004a31ee f   engine:Engine.dll
 0001:000a21f4       ?g_GetFullPath@@YAXPAD0@Z  004a31f4 f   engine:Engine.dll
 0001:000a21fa       ?Clear@KIniFile@@QAEXXZ    004a31fa f   engine:Engine.dll
 0001:000a2200       _TGetEncodedTextEffectCtrls 004a3200 f   engine:Engine.dll
 0001:000a2206       _TSplitEncodedString       004a3206 f   engine:Engine.dll
 0001:000a220c       _TGetEncodedTextOutputLenPos 004a320c f   engine:Engine.dll
 0001:000a2212       ?IsSectionExist@KIniFile@@QAEHPBD@Z 004a3212 f   engine:Engine.dll
 0001:000a2218       ?Save@KIniFile@@QAEHPBD@Z  004a3218 f   engine:Engine.dll
 0001:000a221e       ?EraseSection@KIniFile@@QAEXPBD@Z 004a321e f   engine:Engine.dll
 0001:000a2224       ??0KLuaScript@@QAE@XZ      004a3224 f   engine:Engine.dll
 0001:000a222a       ??1KLuaScript@@UAE@XZ      004a322a f   engine:Engine.dll
 0001:000a2230       ?g_GetRootPath@@YAXPAD@Z   004a3230 f   engine:Engine.dll
 0001:000a2236       ?RegisterFunctions@KLuaScript@@QAEHQAUTLua_Funcs@@H@Z 004a3236 f   engine:Engine.dll
 0001:000a223c       ?Init@KLuaScript@@UAEHXZ   004a323c f   engine:Engine.dll
 0001:000a2242       ?Load@KLuaScript@@UAEHPAD@Z 004a3242 f   engine:Engine.dll
 0001:000a2248       ?ExecuteCode@KLuaScript@@QAEHXZ 004a3248 f   engine:Engine.dll
 0001:000a224e       ?LoadBuffer@KLuaScript@@QAEHPAEK@Z 004a324e f   engine:Engine.dll
 0001:000a2254       ?TurnOn@KIme@@QAEXXZ       004a3254 f   engine:Engine.dll
 0001:000a225a       ?g_FileName2Id@@YAKPAD@Z   004a325a f   engine:Engine.dll
 0001:000a2260       ??0KTimer@@QAE@XZ          004a3260 f   engine:Engine.dll
 0001:000a2266       ?GetFPS@KTimer@@QAEHPAH@Z  004a3266 f   engine:Engine.dll
 0001:000a226c       _EDOneTimePad_Decipher     004a326c f   engine:Engine.dll
 0001:000a2272       ??1KMp3Music@@UAE@XZ       004a3272 f   engine:Engine.dll
 0001:000a2278       ??1KDirectSound@@QAE@XZ    004a3278 f   engine:Engine.dll
 0001:000a227e       ??0KPakList@@QAE@XZ        004a327e f   engine:Engine.dll
 0001:000a2284       ??1KPakList@@QAE@XZ        004a3284 f   engine:Engine.dll
 0001:000a228a       ?Run@KWin32App@@UAEXXZ     004a328a f   engine:Engine.dll
 0001:000a2290       ?Init@KWin32App@@UAEHPAUHINSTANCE__@@@Z 004a3290 f   engine:Engine.dll
 0001:000a2296       ?MsgProc@KWin32App@@UAEJPAUHWND__@@IIJ@Z 004a3296 f   engine:Engine.dll
 0001:000a229c       ?SetMultiGame@KWin32App@@UAEXH@Z 004a329c f   engine:Engine.dll
 0001:000a22a2       ?ShowMouse@KWin32App@@UAEXH@Z 004a32a2 f   engine:Engine.dll
 0001:000a22a8       ?InitWindow@KWin32App@@MAEHPAUHINSTANCE__@@@Z 004a32a8 f   engine:Engine.dll
 0001:000a22ae       ?InitClass@KWin32App@@MAEHPAUHINSTANCE__@@@Z 004a32ae f   engine:Engine.dll
 0001:000a22b4       ??0KDirectSound@@QAE@XZ    004a32b4 f   engine:Engine.dll
 0001:000a22ba       ??0KMp3Music@@QAE@XZ       004a32ba f   engine:Engine.dll
 0001:000a22c0       ??0KWin32App@@QAE@XZ       004a32c0 f   engine:Engine.dll
 0001:000a22c6       ?SetMouseHoverTime@KWin32App@@QAEXI@Z 004a32c6 f   engine:Engine.dll
 0001:000a22cc       ?Start@KTimer@@QAEXXZ      004a32cc f   engine:Engine.dll
 0001:000a22d2       ?Init@KDirectSound@@QAEHXZ 004a32d2 f   engine:Engine.dll
 0001:000a22d8       ?Open@KPakList@@QAE_NPBD@Z 004a32d8 f   engine:Engine.dll
 0001:000a22de       ?g_FindDebugWindow@@YAPAUHWND__@@PAD0@Z 004a32de f   engine:Engine.dll
 0001:000a22e4       ?g_SetFilePath@@YAXPAD@Z   004a32e4 f   engine:Engine.dll
 0001:000a22ea       ?g_SetRootPath@@YAXPAD@Z   004a32ea f   engine:Engine.dll
 0001:000a22f0       ?Exit@KDirectSound@@QAEXXZ 004a32f0 f   engine:Engine.dll
 0001:000a22f6       ?GetElapse@KTimer@@QAEKXZ  004a32f6 f   engine:Engine.dll
 0001:000a22fc       _EDOneTimePad_Encipher     004a32fc f   engine:Engine.dll
 0001:000a2302       _CoreGetShell              004a3302 f   CoreClient:CoreClient.dll
 0001:000a2308       _CreateTextFilter          004a3308 f   FilterText:FilterText.dll
 0001:000a230e       _strcmp                    004a330e f   MSVCRT:MSVCRT.dll
 0001:000a2314       _strlen                    004a3314 f   MSVCRT:MSVCRT.dll
 0001:000a2320       __alloca_probe             004a3320 f   MSVCRT:chkstk.obj
 0001:000a2320       __chkstk                   004a3320 f   MSVCRT:chkstk.obj
 0001:000a2350       _memset                    004a3350 f   MSVCRT:MSVCRT.dll
 0001:000a2356       _memcpy                    004a3356 f   MSVCRT:MSVCRT.dll
 0001:000a235c       _sprintf                   004a335c f   MSVCRT:MSVCRT.dll
 0001:000a2362       ___CxxFrameHandler         004a3362 f   MSVCRT:MSVCRT.dll
 0001:000a2370       _strcpy                    004a3370 f   MSVCRT:MSVCRT.dll
 0001:000a2376       _free                      004a3376 f   MSVCRT:MSVCRT.dll
 0001:000a237c       _strcat                    004a337c f   MSVCRT:MSVCRT.dll
 0001:000a2382       _strftime                  004a3382 f   MSVCRT:MSVCRT.dll
 0001:000a2388       _localtime                 004a3388 f   MSVCRT:MSVCRT.dll
 0001:000a238e       _time                      004a338e f   MSVCRT:MSVCRT.dll
 0001:000a2394       __purecall                 004a3394 f   MSVCRT:MSVCRT.dll
 0001:000a239a       _strncpy                   004a339a f   MSVCRT:MSVCRT.dll
 0001:000a23a0       ??3@YAXPAX@Z               004a33a0 f   MSVCRT:MSVCRT.dll
 0001:000a23a6       ??2@YAPAXI@Z               004a33a6 f   MSVCRT:MSVCRT.dll
 0001:000a23ac       _floor                     004a33ac f   MSVCRT:MSVCRT.dll
 0001:000a23b2       __ftol                     004a33b2 f   MSVCRT:MSVCRT.dll
 0001:000a23b8       __onexit                   004a33b8 f   MSVCRT:atonexit.obj
 0001:000a23e4       _atexit                    004a33e4 f   MSVCRT:atonexit.obj
 0001:000a23f6       _memmove                   004a33f6 f   MSVCRT:MSVCRT.dll
 0001:000a23fc       _atoi                      004a33fc f   MSVCRT:MSVCRT.dll
 0001:000a2402       _malloc                    004a3402 f   MSVCRT:MSVCRT.dll
 0001:000a2408       _realloc                   004a3408 f   MSVCRT:MSVCRT.dll
 0001:000a240e       _memcmp                    004a340e f   MSVCRT:MSVCRT.dll
 0001:000a2414       ??_M@YGXPAXIHP6EX0@Z@Z     004a3414 f   MSVCRT:ehvecdtr.obj
 0001:000a2494       ?__ArrayUnwind@@YGXPAXIHP6EX0@Z@Z 004a3494 f   MSVCRT:ehvecdtr.obj
 0001:000a2508       ??_L@YGXPAXIHP6EX0@Z1@Z    004a3508 f   MSVCRT:ehvecctr.obj
 0001:000a258a       _rand                      004a358a f   MSVCRT:MSVCRT.dll
 0001:000a2590       __mbsicmp                  004a3590 f   MSVCRT:MSVCRT.dll
 0001:000a2596       _strstr                    004a3596 f   MSVCRT:MSVCRT.dll
 0001:000a259c       _srand                     004a359c f   MSVCRT:MSVCRT.dll
 0001:000a25a2       _mktime                    004a35a2 f   MSVCRT:MSVCRT.dll
 0001:000a25a8       _fclose                    004a35a8 f   MSVCRT:MSVCRT.dll
 0001:000a25ae       _fopen                     004a35ae f   MSVCRT:MSVCRT.dll
 0001:000a25b4       _remove                    004a35b4 f   MSVCRT:MSVCRT.dll
 0001:000a25ba       _isgraph                   004a35ba f   MSVCRT:MSVCRT.dll
 0001:000a25c0       _strchr                    004a35c0 f   MSVCRT:MSVCRT.dll
 0001:000a25c6       _sscanf                    004a35c6 f   MSVCRT:MSVCRT.dll
 0001:000a25cc       _WinMainCRTStartup         004a35cc f   MSVCRT:crtexew.obj
 0001:000a272a       ___dllonexit               004a372a f   MSVCRT:MSVCRT.dll
 0001:000a2730       __except_handler3          004a3730 f   MSVCRT:MSVCRT.dll
 0001:000a2736       ?terminate@@YAXXZ          004a3736 f   MSVCRT:MSVCRT.dll
 0001:000a273c       __exit                     004a373c f   MSVCRT:MSVCRT.dll
 0001:000a2742       __XcptFilter               004a3742 f   MSVCRT:MSVCRT.dll
 0001:000a2748       _exit                      004a3748 f   MSVCRT:MSVCRT.dll
 0001:000a274e       ___getmainargs             004a374e f   MSVCRT:MSVCRT.dll
 0001:000a2754       __initterm                 004a3754 f   MSVCRT:MSVCRT.dll
 0001:000a275a       __setdefaultprecision      004a375a f   MSVCRT:fp8.obj
 0001:000a276c       ___setusermatherr          004a376c f   MSVCRT:MSVCRT.dll
 0001:000a2772       __matherr                  004a3772 f   MSVCRT:merr.obj
 0001:000a2775       __setargv                  004a3775 f   MSVCRT:dllargv.obj
 0001:000a2776       ___p__commode              004a3776 f   MSVCRT:MSVCRT.dll
 0001:000a277c       ___p__fmode                004a377c f   MSVCRT:MSVCRT.dll
 0001:000a2782       ___set_app_type            004a3782 f   MSVCRT:MSVCRT.dll
 0001:000a2788       __controlfp                004a3788 f   MSVCRT:MSVCRT.dll
 0001:000a2790       ??1?$basic_string@DU?$char_traits@D@std@@V?$allocator@D@2@@std@@QAE@XZ 004a3790 f   msvcprt:MSVCP60.dll
 0001:000a2796       ??0?$basic_string@DU?$char_traits@D@std@@V?$allocator@D@2@@std@@QAE@PBDABV?$allocator@D@1@@Z 004a3796 f   msvcprt:MSVCP60.dll
 0001:000a279c       ?c_str@?$basic_string@DU?$char_traits@D@std@@V?$allocator@D@2@@std@@QBEPBDXZ 004a379c f   msvcprt:MSVCP60.dll
 0001:000a27a2       ?size@?$basic_string@DU?$char_traits@D@std@@V?$allocator@D@2@@std@@QBEIXZ 004a37a2 f   msvcprt:MSVCP60.dll
 0001:000a27a8       ??1_Lockit@std@@QAE@XZ     004a37a8 f   msvcprt:MSVCP60.dll
 0001:000a27ae       ??0_Lockit@std@@QAE@XZ     004a37ae f   msvcprt:MSVCP60.dll
 0001:000a27b4       ??0?$basic_string@DU?$char_traits@D@std@@V?$allocator@D@2@@std@@QAE@ABV01@@Z 004a37b4 f   msvcprt:MSVCP60.dll
 0001:000a27ba       ??Y?$basic_string@DU?$char_traits@D@std@@V?$allocator@D@2@@std@@QAEAAV01@ABV01@@Z 004a37ba f   msvcprt:MSVCP60.dll
 0001:000a27c0       ??Y?$basic_string@DU?$char_traits@D@std@@V?$allocator@D@2@@std@@QAEAAV01@PBD@Z 004a37c0 f   msvcprt:MSVCP60.dll
 0001:000a27c6       ??4?$basic_string@DU?$char_traits@D@std@@V?$allocator@D@2@@std@@QAEAAV01@PBD@Z 004a37c6 f   msvcprt:MSVCP60.dll
 0001:000a27cc       ??0?$basic_string@DU?$char_traits@D@std@@V?$allocator@D@2@@std@@QAE@ABV?$allocator@D@1@@Z 004a37cc f   msvcprt:MSVCP60.dll
 0001:000a27d2       ?empty@?$basic_string@DU?$char_traits@D@std@@V?$allocator@D@2@@std@@QBE_NXZ 004a37d2 f   msvcprt:MSVCP60.dll
 0001:000a27d8       ??4?$basic_string@DU?$char_traits@D@std@@V?$allocator@D@2@@std@@QAEAAV01@ABV01@@Z 004a37d8 f   msvcprt:MSVCP60.dll
 0001:000a27de       ??8std@@YA_NABV?$basic_string@DU?$char_traits@D@std@@V?$allocator@D@2@@0@0@Z 004a37de f   msvcprt:MSVCP60.dll
 0001:000a27e4       ??8std@@YA_NABV?$basic_string@DU?$char_traits@D@std@@V?$allocator@D@2@@0@PBD@Z 004a37e4 f   msvcprt:MSVCP60.dll
 0001:000a27ea       ??4?$basic_string@DU?$char_traits@D@std@@V?$allocator@D@2@@std@@QAEAAV01@D@Z 004a37ea f   msvcprt:MSVCP60.dll
 0001:000a27f0       ??Mstd@@YA_NABV?$basic_string@DU?$char_traits@D@std@@V?$allocator@D@2@@0@0@Z 004a37f0 f   msvcprt:MSVCP60.dll
 0001:000a27f6       ??0?$basic_string@DU?$char_traits@D@std@@V?$allocator@D@2@@std@@QAE@PBDIABV?$allocator@D@1@@Z 004a37f6 f   msvcprt:MSVCP60.dll
 0001:000a27fc       _GetModuleHandleA@4        004a37fc f   kernel32:KERNEL32.dll
 0001:000a2802       _GetStartupInfoA@4         004a3802 f   kernel32:KERNEL32.dll
 0001:000a2808       __itoa                     004a3808 f   MSVCRT:MSVCRT.dll
 0001:000a280e       __strcmpi                  004a380e f   MSVCRT:MSVCRT.dll
 0001:000a2814       __strlwr                   004a3814 f   MSVCRT:MSVCRT.dll
 0002:00000000       __imp__CoreGetShell        004ad000     CoreClient:CoreClient.dll
 0002:00000004       \177CoreClient_NULL_THUNK_DATA 004ad004     CoreClient:CoreClient.dll
 0002:00000008       __imp_?g_FileName2Id@@YAKPAD@Z 004ad008     engine:Engine.dll
 0002:0000000c       __imp_?g_pIme@@3PAVKIme@@A 004ad00c     engine:Engine.dll
 0002:00000010       __imp_?TurnOn@KIme@@QAEXXZ 004ad010     engine:Engine.dll
 0002:00000014       __imp_?LoadBuffer@KLuaScript@@QAEHPAEK@Z 004ad014     engine:Engine.dll
 0002:00000018       __imp_?ExecuteCode@KLuaScript@@QAEHXZ 004ad018     engine:Engine.dll
 0002:0000001c       __imp_?Load@KLuaScript@@UAEHPAD@Z 004ad01c     engine:Engine.dll
 0002:00000020       __imp_?Init@KLuaScript@@UAEHXZ 004ad020     engine:Engine.dll
 0002:00000024       __imp_?RegisterFunctions@KLuaScript@@QAEHQAUTLua_Funcs@@H@Z 004ad024     engine:Engine.dll
 0002:00000028       __imp_?g_GetRootPath@@YAXPAD@Z 004ad028     engine:Engine.dll
 0002:0000002c       __imp_??1KLuaScript@@UAE@XZ 004ad02c     engine:Engine.dll
 0002:00000030       __imp_??0KLuaScript@@QAE@XZ 004ad030     engine:Engine.dll
 0002:00000034       __imp_?EraseSection@KIniFile@@QAEXPBD@Z 004ad034     engine:Engine.dll
 0002:00000038       __imp_?Save@KIniFile@@QAEHPBD@Z 004ad038     engine:Engine.dll
 0002:0000003c       __imp_?IsSectionExist@KIniFile@@QAEHPBD@Z 004ad03c     engine:Engine.dll
 0002:00000040       __imp__TGetEncodedTextOutputLenPos 004ad040     engine:Engine.dll
 0002:00000044       __imp_??0KTimer@@QAE@XZ    004ad044     engine:Engine.dll
 0002:00000048       __imp_?Clear@KIniFile@@QAEXXZ 004ad048     engine:Engine.dll
 0002:0000004c       __imp_?g_GetFullPath@@YAXPAD0@Z 004ad04c     engine:Engine.dll
 0002:00000050       __imp_?Open@KFile@@QAEHPAD@Z 004ad050     engine:Engine.dll
 0002:00000054       __imp_?Read@KFile@@QAEKPAXK@Z 004ad054     engine:Engine.dll
 0002:00000058       __imp_?KSG_StringGetInt@@YAHPAPBDH@Z 004ad058     engine:Engine.dll
 0002:0000005c       __imp_?KSG_StringSkipSymbol@@YA_NPAPBDH@Z 004ad05c     engine:Engine.dll
 0002:00000060       __imp_??0KTabFile@@QAE@XZ  004ad060     engine:Engine.dll
 0002:00000064       __imp_?Load@KTabFile@@UAEHPAD@Z 004ad064     engine:Engine.dll
 0002:00000068       __imp_?GetString@KTabFile@@UAEHHPAD00KH@Z 004ad068     engine:Engine.dll
 0002:0000006c       __imp_??1KTabFile@@UAE@XZ  004ad06c     engine:Engine.dll
 0002:00000070       __imp__TClearSpecialCtrlInEncodedText 004ad070     engine:Engine.dll
 0002:00000074       __imp__TGetEncodedItemChatLineCount 004ad074     engine:Engine.dll
 0002:00000078       __imp_?KSG_StringGetValue@@YAHHHH@Z 004ad078     engine:Engine.dll
 0002:0000007c       __imp_?KSG_StringSetValue@@YAHHHHH@Z 004ad07c     engine:Engine.dll
 0002:00000080       __imp_?g_StrCpyLen@@YAXPADPBDH@Z 004ad080     engine:Engine.dll
 0002:00000084       __imp_?WriteStruct@KIniFile@@QAEXPBD0PAXK@Z 004ad084     engine:Engine.dll
 0002:00000088       __imp__TGetEncodedTextEffectCtrls 004ad088     engine:Engine.dll
 0002:0000008c       __imp__TSplitEncodedString 004ad08c     engine:Engine.dll
 0002:00000090       __imp__EDOneTimePad_Encipher 004ad090     engine:Engine.dll
 0002:00000094       __imp_?GetElapse@KTimer@@QAEKXZ 004ad094     engine:Engine.dll
 0002:00000098       __imp_?Exit@KDirectSound@@QAEXXZ 004ad098     engine:Engine.dll
 0002:0000009c       __imp_?g_SetRootPath@@YAXPAD@Z 004ad09c     engine:Engine.dll
 0002:000000a0       __imp_?g_SetFilePath@@YAXPAD@Z 004ad0a0     engine:Engine.dll
 0002:000000a4       __imp_?g_FindDebugWindow@@YAPAUHWND__@@PAD0@Z 004ad0a4     engine:Engine.dll
 0002:000000a8       __imp_?Open@KPakList@@QAE_NPBD@Z 004ad0a8     engine:Engine.dll
 0002:000000ac       __imp_?Init@KDirectSound@@QAEHXZ 004ad0ac     engine:Engine.dll
 0002:000000b0       __imp_?Start@KTimer@@QAEXXZ 004ad0b0     engine:Engine.dll
 0002:000000b4       __imp_?SetMouseHoverTime@KWin32App@@QAEXI@Z 004ad0b4     engine:Engine.dll
 0002:000000b8       __imp_??0KWin32App@@QAE@XZ 004ad0b8     engine:Engine.dll
 0002:000000bc       __imp_??0KMp3Music@@QAE@XZ 004ad0bc     engine:Engine.dll
 0002:000000c0       __imp_??0KDirectSound@@QAE@XZ 004ad0c0     engine:Engine.dll
 0002:000000c4       __imp_?InitClass@KWin32App@@MAEHPAUHINSTANCE__@@@Z 004ad0c4     engine:Engine.dll
 0002:000000c8       __imp_?InitWindow@KWin32App@@MAEHPAUHINSTANCE__@@@Z 004ad0c8     engine:Engine.dll
 0002:000000cc       __imp_?ShowMouse@KWin32App@@UAEXH@Z 004ad0cc     engine:Engine.dll
 0002:000000d0       __imp_?SetMultiGame@KWin32App@@UAEXH@Z 004ad0d0     engine:Engine.dll
 0002:000000d4       __imp_?MsgProc@KWin32App@@UAEJPAUHWND__@@IIJ@Z 004ad0d4     engine:Engine.dll
 0002:000000d8       __imp_?Init@KWin32App@@UAEHPAUHINSTANCE__@@@Z 004ad0d8     engine:Engine.dll
 0002:000000dc       __imp_?Run@KWin32App@@UAEXXZ 004ad0dc     engine:Engine.dll
 0002:000000e0       __imp_??1KPakList@@QAE@XZ  004ad0e0     engine:Engine.dll
 0002:000000e4       __imp_??0KPakList@@QAE@XZ  004ad0e4     engine:Engine.dll
 0002:000000e8       __imp_??1KDirectSound@@QAE@XZ 004ad0e8     engine:Engine.dll
 0002:000000ec       __imp_??1KMp3Music@@UAE@XZ 004ad0ec     engine:Engine.dll
 0002:000000f0       __imp__EDOneTimePad_Decipher 004ad0f0     engine:Engine.dll
 0002:000000f4       __imp__TEncodeText         004ad0f4     engine:Engine.dll
 0002:000000f8       __imp__TGetEncodedTextLineCount 004ad0f8     engine:Engine.dll
 0002:000000fc       __imp_??1KIniFile@@QAE@XZ  004ad0fc     engine:Engine.dll
 0002:00000100       __imp_?GetString@KIniFile@@QAEHPBD00PADK@Z 004ad100     engine:Engine.dll
 0002:00000104       __imp_?GetInteger@KIniFile@@QAEHPBD0HPAH@Z 004ad104     engine:Engine.dll
 0002:00000108       __imp_?Load@KIniFile@@QAEHPBD@Z 004ad108     engine:Engine.dll
 0002:0000010c       __imp_??0KIniFile@@QAE@XZ  004ad10c     engine:Engine.dll
 0002:00000110       __imp__TFindSpecialCtrlInEncodedText 004ad110     engine:Engine.dll
 0002:00000114       __imp_?g_CreatePath@@YAXPAD@Z 004ad114     engine:Engine.dll
 0002:00000118       __imp__AdviseEngine        004ad118     engine:Engine.dll
 0002:0000011c       __imp__UnAdviseEngine      004ad11c     engine:Engine.dll
 0002:00000120       __imp_??1KPakFile@@QAE@XZ  004ad120     engine:Engine.dll
 0002:00000124       __imp_??1KFile@@QAE@XZ     004ad124     engine:Engine.dll
 0002:00000128       __imp_?Close@KFile@@QAEXXZ 004ad128     engine:Engine.dll
 0002:0000012c       __imp_?Close@KPakFile@@QAEXXZ 004ad12c     engine:Engine.dll
 0002:00000130       __imp_?Write@KFile@@QAEKPAXK@Z 004ad130     engine:Engine.dll
 0002:00000134       __imp_?Read@KPakFile@@QAEKPAXI@Z 004ad134     engine:Engine.dll
 0002:00000138       __imp_?Size@KPakFile@@QAEKXZ 004ad138     engine:Engine.dll
 0002:0000013c       __imp_?Open@KPakFile@@QAEHPBD@Z 004ad13c     engine:Engine.dll
 0002:00000140       __imp_?Create@KFile@@QAEHPAD@Z 004ad140     engine:Engine.dll
 0002:00000144       __imp_??0KFile@@QAE@XZ     004ad144     engine:Engine.dll
 0002:00000148       __imp_??0KPakFile@@QAE@XZ  004ad148     engine:Engine.dll
 0002:0000014c       __imp_??0KIme@@QAE@XZ      004ad14c     engine:Engine.dll
 0002:00000150       __imp_??1KIme@@QAE@XZ      004ad150     engine:Engine.dll
 0002:00000154       __imp_?CloseIME@KIme@@QAEXXZ 004ad154     engine:Engine.dll
 0002:00000158       __imp_?DisableLanguageChange@KIme@@QAEXXZ 004ad158     engine:Engine.dll
 0002:0000015c       __imp_?IsIme@KIme@@QAEHXZ  004ad15c     engine:Engine.dll
 0002:00000160       __imp_?SetCaretPos@KIme@@QAEXHH@Z 004ad160     engine:Engine.dll
 0002:00000164       __imp_?OpenIME@KIme@@QAEXXZ 004ad164     engine:Engine.dll
 0002:00000168       __imp_?EnableLanguageChange@KIme@@QAEXXZ 004ad168     engine:Engine.dll
 0002:0000016c       __imp__TSplitString        004ad16c     engine:Engine.dll
 0002:00000170       __imp__TGetLimitLenString  004ad170     engine:Engine.dll
 0002:00000174       __imp__TRemoveCtrlInEncodedText 004ad174     engine:Engine.dll
 0002:00000178       __imp_?GetInteger2@KIniFile@@QAEXPBD0PAH1@Z 004ad178     engine:Engine.dll
 0002:0000017c       __imp_?g_GetMainHWnd@@YAPAUHWND__@@XZ 004ad17c     engine:Engine.dll
 0002:00000180       __imp_?KSG_StringToMD5String@@YAHQADQBD@Z 004ad180     engine:Engine.dll
 0002:00000184       __imp_?WriteInteger@KIniFile@@QAEXPBD0H@Z 004ad184     engine:Engine.dll
 0002:00000188       __imp_?WriteString@KIniFile@@QAEXPBD00@Z 004ad188     engine:Engine.dll
 0002:0000018c       __imp_?GetInteger3@KIniFile@@QAEXPBD0PAH11@Z 004ad18c     engine:Engine.dll
 0002:00000190       __imp_?WriteInteger3@KIniFile@@QAEXPBD0HHH@Z 004ad190     engine:Engine.dll
 0002:00000194       __imp_?g_DebugLog@@YAXPADZZ 004ad194     engine:Engine.dll
 0002:00000198       __imp_?GetStruct@KIniFile@@QAEXPBD0PAXK@Z 004ad198     engine:Engine.dll
 0002:0000019c       __imp_?EraseKey@KIniFile@@QAEXPBD0@Z 004ad19c     engine:Engine.dll
 0002:000001a0       __imp_?GetFPS@KTimer@@QAEHPAH@Z 004ad1a0     engine:Engine.dll
 0002:000001a4       \177Engine_NULL_THUNK_DATA 004ad1a4     engine:Engine.dll
 0002:000001a8       __imp__CreateTextFilter    004ad1a8     FilterText:FilterText.dll
 0002:000001ac       \177FilterText_NULL_THUNK_DATA 004ad1ac     FilterText:FilterText.dll
 0002:000001b0       __imp__GetStartupInfoA@4   004ad1b0     kernel32:KERNEL32.dll
 0002:000001b4       __imp__Sleep@4             004ad1b4     kernel32:KERNEL32.dll
 0002:000001b8       __imp__FreeLibrary@4       004ad1b8     kernel32:KERNEL32.dll
 0002:000001bc       __imp__LoadLibraryA@4      004ad1bc     kernel32:KERNEL32.dll
 0002:000001c0       __imp__GetProcAddress@8    004ad1c0     kernel32:KERNEL32.dll
 0002:000001c4       __imp__AllocConsole@0      004ad1c4     kernel32:KERNEL32.dll
 0002:000001c8       __imp__FreeConsole@0       004ad1c8     kernel32:KERNEL32.dll
 0002:000001cc       __imp__GetModuleFileNameA@12 004ad1cc     kernel32:KERNEL32.dll
 0002:000001d0       __imp__CreateFileA@28      004ad1d0     kernel32:KERNEL32.dll
 0002:000001d4       __imp__GetFileTime@16      004ad1d4     kernel32:KERNEL32.dll
 0002:000001d8       __imp__CloseHandle@4       004ad1d8     kernel32:KERNEL32.dll
 0002:000001dc       __imp__FileTimeToLocalFileTime@8 004ad1dc     kernel32:KERNEL32.dll
 0002:000001e0       __imp__FileTimeToSystemTime@8 004ad1e0     kernel32:KERNEL32.dll
 0002:000001e4       __imp__GetModuleHandleA@4  004ad1e4     kernel32:KERNEL32.dll
 0002:000001e8       __imp__GetDateFormatA@24   004ad1e8     kernel32:KERNEL32.dll
 0002:000001ec       __imp__GetTimeFormatA@24   004ad1ec     kernel32:KERNEL32.dll
 0002:000001f0       __imp__GetVersion@0        004ad1f0     kernel32:KERNEL32.dll
 0002:000001f4       __imp__FindFirstFileA@8    004ad1f4     kernel32:KERNEL32.dll
 0002:000001f8       __imp__SetFileAttributesA@8 004ad1f8     kernel32:KERNEL32.dll
 0002:000001fc       __imp__FindNextFileA@8     004ad1fc     kernel32:KERNEL32.dll
 0002:00000200       __imp__FindClose@4         004ad200     kernel32:KERNEL32.dll
 0002:00000204       __imp__RemoveDirectoryA@4  004ad204     kernel32:KERNEL32.dll
 0002:00000208       __imp__SystemTimeToTzSpecificLocalTime@12 004ad208     kernel32:KERNEL32.dll
 0002:0000020c       __imp__MulDiv@12           004ad20c     kernel32:KERNEL32.dll
 0002:00000210       __imp__GlobalAlloc@8       004ad210     kernel32:KERNEL32.dll
 0002:00000214       __imp__GlobalLock@4        004ad214     kernel32:KERNEL32.dll
 0002:00000218       __imp__GlobalUnlock@4      004ad218     kernel32:KERNEL32.dll
 0002:0000021c       __imp__GetTickCount@0      004ad21c     kernel32:KERNEL32.dll
 0002:00000220       __imp__GetTempPathA@8      004ad220     kernel32:KERNEL32.dll
 0002:00000224       __imp__GetTempFileNameA@16 004ad224     kernel32:KERNEL32.dll
 0002:00000228       __imp__DeleteFileA@4       004ad228     kernel32:KERNEL32.dll
 0002:0000022c       \177KERNEL32_NULL_THUNK_DATA 004ad22c     kernel32:KERNEL32.dll
 0002:00000230       __imp__lua_pushstring      004ad230     lualibdll:LuaLibDll.dll
 0002:00000234       __imp__lua_isnumber        004ad234     lualibdll:LuaLibDll.dll
 0002:00000238       __imp__lua_pushnumber      004ad238     lualibdll:LuaLibDll.dll
 0002:0000023c       __imp__lua_type            004ad23c     lualibdll:LuaLibDll.dll
 0002:00000240       __imp__lua_tonumber        004ad240     lualibdll:LuaLibDll.dll
 0002:00000244       __imp__lua_gettop          004ad244     lualibdll:LuaLibDll.dll
 0002:00000248       __imp__lua_tostring        004ad248     lualibdll:LuaLibDll.dll
 0002:0000024c       \177LuaLibDll_NULL_THUNK_DATA 004ad24c     lualibdll:LuaLibDll.dll
 0002:00000250       __imp_??0?$basic_string@DU?$char_traits@D@std@@V?$allocator@D@2@@std@@QAE@PBDABV?$allocator@D@1@@Z 004ad250     msvcprt:MSVCP60.dll
 0002:00000254       __imp_?c_str@?$basic_string@DU?$char_traits@D@std@@V?$allocator@D@2@@std@@QBEPBDXZ 004ad254     msvcprt:MSVCP60.dll
 0002:00000258       __imp_??0?$basic_string@DU?$char_traits@D@std@@V?$allocator@D@2@@std@@QAE@PBDIABV?$allocator@D@1@@Z 004ad258     msvcprt:MSVCP60.dll
 0002:0000025c       __imp_??Mstd@@YA_NABV?$basic_string@DU?$char_traits@D@std@@V?$allocator@D@2@@0@0@Z 004ad25c     msvcprt:MSVCP60.dll
 0002:00000260       __imp_??4?$basic_string@DU?$char_traits@D@std@@V?$allocator@D@2@@std@@QAEAAV01@D@Z 004ad260     msvcprt:MSVCP60.dll
 0002:00000264       __imp_??8std@@YA_NABV?$basic_string@DU?$char_traits@D@std@@V?$allocator@D@2@@0@PBD@Z 004ad264     msvcprt:MSVCP60.dll
 0002:00000268       __imp_??8std@@YA_NABV?$basic_string@DU?$char_traits@D@std@@V?$allocator@D@2@@0@0@Z 004ad268     msvcprt:MSVCP60.dll
 0002:0000026c       __imp_??4?$basic_string@DU?$char_traits@D@std@@V?$allocator@D@2@@std@@QAEAAV01@ABV01@@Z 004ad26c     msvcprt:MSVCP60.dll
 0002:00000270       __imp_?empty@?$basic_string@DU?$char_traits@D@std@@V?$allocator@D@2@@std@@QBE_NXZ 004ad270     msvcprt:MSVCP60.dll
 0002:00000274       __imp_??0?$basic_string@DU?$char_traits@D@std@@V?$allocator@D@2@@std@@QAE@ABV?$allocator@D@1@@Z 004ad274     msvcprt:MSVCP60.dll
 0002:00000278       __imp_??4?$basic_string@DU?$char_traits@D@std@@V?$allocator@D@2@@std@@QAEAAV01@PBD@Z 004ad278     msvcprt:MSVCP60.dll
 0002:0000027c       __imp_??Y?$basic_string@DU?$char_traits@D@std@@V?$allocator@D@2@@std@@QAEAAV01@PBD@Z 004ad27c     msvcprt:MSVCP60.dll
 0002:00000280       __imp_??Y?$basic_string@DU?$char_traits@D@std@@V?$allocator@D@2@@std@@QAEAAV01@ABV01@@Z 004ad280     msvcprt:MSVCP60.dll
 0002:00000284       __imp_??0?$basic_string@DU?$char_traits@D@std@@V?$allocator@D@2@@std@@QAE@ABV01@@Z 004ad284     msvcprt:MSVCP60.dll
 0002:00000288       __imp_??0_Lockit@std@@QAE@XZ 004ad288     msvcprt:MSVCP60.dll
 0002:0000028c       __imp_??1_Lockit@std@@QAE@XZ 004ad28c     msvcprt:MSVCP60.dll
 0002:00000290       __imp_?size@?$basic_string@DU?$char_traits@D@std@@V?$allocator@D@2@@std@@QBEIXZ 004ad290     msvcprt:MSVCP60.dll
 0002:00000294       __imp_??1?$basic_string@DU?$char_traits@D@std@@V?$allocator@D@2@@std@@QAE@XZ 004ad294     msvcprt:MSVCP60.dll
 0002:00000298       \177MSVCP60_NULL_THUNK_DATA 004ad298     msvcprt:MSVCP60.dll
 0002:0000029c       __imp__strcmpi             004ad29c     MSVCRT:MSVCRT.dll
 0002:0000029c       __imp___strcmpi            004ad29c     MSVCRT:MSVCRT.dll
 0002:000002a0       __imp__itoa                004ad2a0     MSVCRT:MSVCRT.dll
 0002:000002a0       __imp___itoa               004ad2a0     MSVCRT:MSVCRT.dll
 0002:000002a4       __imp___controlfp          004ad2a4     MSVCRT:MSVCRT.dll
 0002:000002a8       __imp__strcmp              004ad2a8     MSVCRT:MSVCRT.dll
 0002:000002ac       __imp__strlen              004ad2ac     MSVCRT:MSVCRT.dll
 0002:000002b0       __imp__memset              004ad2b0     MSVCRT:MSVCRT.dll
 0002:000002b4       __imp__memcpy              004ad2b4     MSVCRT:MSVCRT.dll
 0002:000002b8       __imp__sprintf             004ad2b8     MSVCRT:MSVCRT.dll
 0002:000002bc       __imp____CxxFrameHandler   004ad2bc     MSVCRT:MSVCRT.dll
 0002:000002c0       __imp__strcpy              004ad2c0     MSVCRT:MSVCRT.dll
 0002:000002c4       __imp__free                004ad2c4     MSVCRT:MSVCRT.dll
 0002:000002c8       __imp__strcat              004ad2c8     MSVCRT:MSVCRT.dll
 0002:000002cc       __imp__strftime            004ad2cc     MSVCRT:MSVCRT.dll
 0002:000002d0       __imp__localtime           004ad2d0     MSVCRT:MSVCRT.dll
 0002:000002d4       __imp__time                004ad2d4     MSVCRT:MSVCRT.dll
 0002:000002d8       __imp___purecall           004ad2d8     MSVCRT:MSVCRT.dll
 0002:000002dc       __imp__strncpy             004ad2dc     MSVCRT:MSVCRT.dll
 0002:000002e0       __imp_??3@YAXPAX@Z         004ad2e0     MSVCRT:MSVCRT.dll
 0002:000002e4       __imp_??2@YAPAXI@Z         004ad2e4     MSVCRT:MSVCRT.dll
 0002:000002e8       __imp__floor               004ad2e8     MSVCRT:MSVCRT.dll
 0002:000002ec       __imp___ftol               004ad2ec     MSVCRT:MSVCRT.dll
 0002:000002f0       __imp__memmove             004ad2f0     MSVCRT:MSVCRT.dll
 0002:000002f4       __imp__atoi                004ad2f4     MSVCRT:MSVCRT.dll
 0002:000002f8       __imp__malloc              004ad2f8     MSVCRT:MSVCRT.dll
 0002:000002fc       __imp__realloc             004ad2fc     MSVCRT:MSVCRT.dll
 0002:00000300       __imp__memcmp              004ad300     MSVCRT:MSVCRT.dll
 0002:00000304       __imp__rand                004ad304     MSVCRT:MSVCRT.dll
 0002:00000308       __imp___mbsicmp            004ad308     MSVCRT:MSVCRT.dll
 0002:0000030c       __imp__strstr              004ad30c     MSVCRT:MSVCRT.dll
 0002:00000310       __imp__srand               004ad310     MSVCRT:MSVCRT.dll
 0002:00000314       __imp__mktime              004ad314     MSVCRT:MSVCRT.dll
 0002:00000318       __imp__fclose              004ad318     MSVCRT:MSVCRT.dll
 0002:0000031c       __imp__fopen               004ad31c     MSVCRT:MSVCRT.dll
 0002:00000320       __imp__remove              004ad320     MSVCRT:MSVCRT.dll
 0002:00000324       __imp__isgraph             004ad324     MSVCRT:MSVCRT.dll
 0002:00000328       __imp__strchr              004ad328     MSVCRT:MSVCRT.dll
 0002:0000032c       __imp__sscanf              004ad32c     MSVCRT:MSVCRT.dll
 0002:00000330       __imp____dllonexit         004ad330     MSVCRT:MSVCRT.dll
 0002:00000334       __imp___onexit             004ad334     MSVCRT:MSVCRT.dll
 0002:00000338       __imp___except_handler3    004ad338     MSVCRT:MSVCRT.dll
 0002:0000033c       __imp_?terminate@@YAXXZ    004ad33c     MSVCRT:MSVCRT.dll
 0002:00000340       __imp___exit               004ad340     MSVCRT:MSVCRT.dll
 0002:00000344       __imp___XcptFilter         004ad344     MSVCRT:MSVCRT.dll
 0002:00000348       __imp__exit                004ad348     MSVCRT:MSVCRT.dll
 0002:0000034c       __imp___acmdln             004ad34c     MSVCRT:MSVCRT.dll
 0002:00000350       __imp____getmainargs       004ad350     MSVCRT:MSVCRT.dll
 0002:00000354       __imp___initterm           004ad354     MSVCRT:MSVCRT.dll
 0002:00000358       __imp____setusermatherr    004ad358     MSVCRT:MSVCRT.dll
 0002:0000035c       __imp___adjust_fdiv        004ad35c     MSVCRT:MSVCRT.dll
 0002:00000360       __imp____p__commode        004ad360     MSVCRT:MSVCRT.dll
 0002:00000364       __imp____p__fmode          004ad364     MSVCRT:MSVCRT.dll
 0002:00000368       __imp____set_app_type      004ad368     MSVCRT:MSVCRT.dll
 0002:0000036c       __imp__strlwr              004ad36c     MSVCRT:MSVCRT.dll
 0002:0000036c       __imp___strlwr             004ad36c     MSVCRT:MSVCRT.dll
 0002:00000370       \177MSVCRT_NULL_THUNK_DATA 004ad370     MSVCRT:MSVCRT.dll
 0002:00000374       __imp__ShellExecuteA@24    004ad374     shell32:SHELL32.dll
 0002:00000378       __imp__SHGetSpecialFolderPathA@16 004ad378     shell32:SHELL32.dll
 0002:0000037c       \177SHELL32_NULL_THUNK_DATA 004ad37c     shell32:SHELL32.dll
 0002:00000380       __imp__PathRemoveFileSpecA@4 004ad380     shlwapi:SHLWAPI.dll
 0002:00000384       __imp__PathRemoveExtensionA@4 004ad384     shlwapi:SHLWAPI.dll
 0002:00000388       __imp__PathFindFileNameA@4 004ad388     shlwapi:SHLWAPI.dll
 0002:0000038c       \177SHLWAPI_NULL_THUNK_DATA 004ad38c     shlwapi:SHLWAPI.dll
 0002:00000390       __imp__GetKeyState@4       004ad390     user32:USER32.dll
 0002:00000394       __imp__SetCursorPos@8      004ad394     user32:USER32.dll
 0002:00000398       __imp__ClientToScreen@8    004ad398     user32:USER32.dll
 0002:0000039c       __imp__SendMessageA@16     004ad39c     user32:USER32.dll
 0002:000003a0       __imp__GetClipboardData@4  004ad3a0     user32:USER32.dll
 0002:000003a4       __imp__MessageBoxA@16      004ad3a4     user32:USER32.dll
 0002:000003a8       __imp__OpenClipboard@4     004ad3a8     user32:USER32.dll
 0002:000003ac       __imp__EmptyClipboard@0    004ad3ac     user32:USER32.dll
 0002:000003b0       __imp__SetClipboardData@8  004ad3b0     user32:USER32.dll
 0002:000003b4       __imp__CloseClipboard@0    004ad3b4     user32:USER32.dll
 0002:000003b8       __imp__SetCaretPos@8       004ad3b8     user32:USER32.dll
 0002:000003bc       __imp__LoadCursorA@8       004ad3bc     user32:USER32.dll
 0002:000003c0       __imp__SetCursor@4         004ad3c0     user32:USER32.dll
 0002:000003c4       __imp__ShowCursor@4        004ad3c4     user32:USER32.dll
 0002:000003c8       __imp__SetWindowTextA@8    004ad3c8     user32:USER32.dll
 0002:000003cc       __imp__LoadCursorFromFileA@4 004ad3cc     user32:USER32.dll
 0002:000003d0       \177USER32_NULL_THUNK_DATA 004ad3d0     user32:USER32.dll
 0002:000003fc       ??_7KInlinePicSink@@6B@    004ad3fc     TextPic.obj
 0002:0000040c       ??_7IInlinePicEngineSink@@6B@ 004ad40c     TextPic.obj
 0002:0000041c       ??_7KWndButton@@6B@        004ad41c     WndButton.obj
 0002:0000045c       ??_7KWndImageTextButton@@6B@ 004ad45c     WndButton.obj
 0002:0000049c       ??_7KWndEdit@@6B@          004ad49c     WndEdit.obj
 0002:000004dc       ??_7KWndEdit80@@6B@        004ad4dc     WndEdit.obj
 0002:0000051c       ??_7KWndEdit32@@6B@        004ad51c     WndEdit.obj
 0002:0000055c       ??_7KWndEdit512@@6B@       004ad55c     WndEdit.obj
 0002:0000059c       ??_7KWndImage@@6B@         004ad59c     WndImage.obj
 0002:000005d0       ??_7KWndImagePart@@6B@     004ad5d0     WndImagePart.obj
 0002:00000604       ??_7KWndLabeledButton@@6B@ 004ad604     WndLabeledButton.obj
 0002:00000644       ??_7KWndList@@6B@          004ad644     WndList.obj
 0002:00000678       ??_7KWndList2@@6B@         004ad678     WndList2.obj
 0002:000006b4       ??_7KWndMessageListBox@@6B@ 004ad6b4     WndMessageListBox.obj
 0002:000006e8       ??_7KScrollMessageListBox@@6B@ 004ad6e8     WndMessageListBox.obj
 0002:0000071c       ??_7KWndMovingImage@@6B@   004ad71c     WndMovingImage.obj
 0002:00000750       ??_7KWndObjectBox@@6B@     004ad750     WndObjContainer.obj
 0002:00000784       ??_7KWndObjectMatrix@@6B@  004ad784     WndObjContainer.obj
 0002:000007b8       ??_7KWndPageSet@@6B@       004ad7b8     WndPage.obj
 0002:000007f0       ??_7KWndPureTextBtn@@6B@   004ad7f0     WndPureTextBtn.obj
 0002:0000082c       ??_7KWndScrollBar@@6B@     004ad82c     WndScrollBar.obj
 0002:00000860       ??_7KWndShowAnimate@@6B@   004ad860     WndShowAnimate.obj
 0002:00000898       ??_7KWndText@@6B@          004ad898     WndText.obj
 0002:000008d4       ??_7KWndText32@@6B@        004ad8d4     WndText.obj
 0002:00000910       ??_7KWndText80@@6B@        004ad910     WndText.obj
 0002:0000094c       ??_7KWndText256@@6B@       004ad94c     WndText.obj
 0002:00000988       ??_7KWndText512@@6B@       004ad988     WndText.obj
 0002:000009c4       ??_7KWndToolBar@@6B@       004ad9c4     WndToolBar.obj
 0002:000009f8       ??_7KWndValueImage@@6B@    004ad9f8     WndValueImage.obj
 0002:00000a2c       ??_7KWndWindow@@6B@        004ada2c     WndWindow.obj
 0002:00000a60       ??_7KUiConnectInfo@@6B@    004ada60     UiConnectInfo.obj
 0002:00000a94       ??_7KUiLogin@@6B@          004ada94     UiLogin.obj
 0002:00000acc       ??_7KUiLoginBackGround@@6B@ 004adacc     UiLoginBg.obj
 0002:00000b00       ??_7KUiNotice@@6B@         004adb00     UiNotice.obj
 0002:00000b38       ??_7KUiSelServer@@6B@      004adb38     UiSelServer.obj
 0002:00000b70       ??_7KUiChooseFace@@6B@     004adb70     UiChooseFace.obj
 0002:00000ba8       ??_7KUiContainer@@6B@      004adba8     UiContainer.obj
 0002:00000bac       ??_7KUiFaceSelector@@6B@   004adbac     UiFaceSelector.obj
 0002:00000be0       ??_7GameWorld_DateTime@@6B@ 004adbe0     UiPlayerBar.obj
 0002:00000c20       ??_7KUiPlayerBar@@6B@      004adc20     UiPlayerBar.obj
 0002:00000c54       ??_7KImmediaItem@@6B@      004adc54     UiPlayerBar.obj
 0002:00000c88       ??_7KUiPlayerControlBar@@6B@ 004adc88     UiPlayerControlBar.obj
 0002:00000cbc       ??_7KUiStatus@@6B@         004adcbc     UiStatus.obj
 0002:00000cf4       ??_7KUiOptions@@6B@        004adcf4     UiOptions.obj
 0002:00000d28       ??_7KUiInit@@6B@           004add28     UiInit.obj
 0002:00000d60       ??_7KUiAutoPlay@@6B@       004add60     UiAutoPlay.obj
 0002:00000d98       ??_7KUiRecovery@@6B@       004add98     UiAutoPlay.obj
 0002:00000dcc       ??_7KWndShadow@@6B@        004addcc     UiAutoPlay.obj
 0002:00000e00       ??_7KUiPick@@6B@           004ade00     UiAutoPlay.obj
 0002:00000e34       ??_7KUiFight@@6B@          004ade34     UiAutoPlay.obj
 0002:00000e68       ??_7KUiOther@@6B@          004ade68     UiAutoPlay.obj
 0002:00000e9c       ??_7KWndPage@@6B@          004ade9c     UiAutoPlay.obj
 0002:00000ed0       ??_7KUiBreakItem@@6B@      004aded0     UiBreakItem.obj
 0002:00000f04       ??_7KUiExpandItem@@6B@     004adf04     UiExpandItem.obj
 0002:00000f3c       ??_7KUiGetMoney@@6B@       004adf3c     UiGetMoney.obj
 0002:00000f70       ??_7KUiGive@@6B@           004adf70     UiGive.obj
 0002:00000fa4       ??_7KUiItem@@6B@           004adfa4     UiItem.obj
 0002:00000fdc       ??_7KUiPlayerLock@@6B@     004adfdc     UiPlayerLock.obj
 0002:00001014       ??_7KUiFightSkillSubPage@@6B@ 004ae014     UiSkills.obj
 0002:00001048       ??_7KUiSkills@@6B@         004ae048     UiSkills.obj
 0002:00001080       ??_7KUiFightSkill@@6B@     004ae080     UiSkills.obj
 0002:000010b4       ??_7KUiFightSkillSub@@6B@  004ae0b4     UiSkills.obj
 0002:000010ec       ??_7KUiSkillTree@@6B@      004ae0ec     UiSkillTree.obj
 0002:00001120       ??_7KUiStoreBox@@6B@       004ae120     UiStoreBox.obj
 0002:00001158       ??_7KUiESCDlg@@6B@         004ae158     UiESCDlg.obj
 0002:00001190       ??_7KUiGetString@@6B@      004ae190     UiGetString.obj
 0002:000011c4       ??_7KUiMsgSel@@6B@         004ae1c4     UiMsgSel.obj
 0002:000011fc       ??_7KUiParadeItem@@6B@     004ae1fc     UiParadeItem.obj
 0002:00001234       ??_7KUiSelPlayerNearby@@6B@ 004ae234     UiSelPlayerNearby.obj
 0002:0000126c       ??_7KUiNewPlayer@@6B@      004ae26c     UiNewPlayer.obj
 0002:000012a4       ??_7KUiSelNativePlace@@6B@ 004ae2a4     UiSelNativePlace.obj
 0002:000012dc       ??_7KUiSelPlayer@@6B@      004ae2dc     UiSelPlayer.obj
 0002:00001318       ??_7ServerNotify@@6B@      004ae318     UiChatCentre.obj
 0002:00001340       ??_7AddinNotify@@6B@       004ae340     UiChatCentre.obj
 0002:00001368       ??_7FriendNotify@@6B@      004ae368     UiChatCentre.obj
 0002:00001390       ??_7KUiChatCentre@@6B@     004ae390     UiChatCentre.obj
 0002:000013c8       ??_7KUiChatRoom@@6B@       004ae3c8     UiChatRoom.obj
 0002:00001400       ??_7KUiInformation@@6B@    004ae400     UiInformation.obj
 0002:00001438       ??_7KUiInformation1@@6B@   004ae438     UiInformation1.obj
 0002:00001470       ??_7KUiInformation2@@6B@   004ae470     UiInformation2.obj
 0002:000014a8       ??_7KUiTeamManage@@6B@     004ae4a8     UiTeamManage.obj
 0002:000014e0       ??_7KUiChatItem@@6B@       004ae4e0     UiChatItem.obj
 0002:00001514       ??_7KUiHeaderControlBar@@6B@ 004ae514     UiHeaderControlBar.obj
 0002:00001548       ??_7KUiMsgCentrePad@@6B@   004ae548     UiMsgCentrePad.obj
 0002:0000157c       ??_7KSysMsgCentrePad@@6B@  004ae57c     UiMsgCentrePad.obj
 0002:000015b0       ??_7KUiRankData@@6B@       004ae5b0     UiRankData.obj
 0002:000015e4       ??_7KUiToolsControlBar@@6B@ 004ae5e4     UiToolsControlBar.obj
 0002:00001618       ??_7KUiPlayerShop@@6B@     004ae618     UiPlayerShop.obj
 0002:00001650       ??_7KUiSetPrice@@6B@       004ae650     UiSetPrice.obj
 0002:00001684       ??_7KUiShop@@6B@           004ae684     UiShop.obj
 0002:000016bc       ??_7KUiShoppingCart@@6B@   004ae6bc     UiSuperShop.obj
 0002:000016f4       ??_7KUiSuperShop@@6B@      004ae6f4     UiSuperShop.obj
 0002:0000172c       ??_7KWndSellItem@@6B@      004ae72c     UiSuperShop.obj
 0002:00001760       ??_7KCanGetNumFrame@@6B@   004ae760     UiSuperShop.obj
 0002:00001794       ??_7KUiDynamicShop@@6B@    004ae794     UiSuperShop.obj
 0002:000017cc       ??_7KUiTrade@@6B@          004ae7cc     UiTrade.obj
 0002:00001804       ??_7KUiTradeConfirm@@6B@   004ae804     UiTradeConfirmWnd.obj
 0002:00001838       ??_7KUiGameSpace@@6B@      004ae838     UiGame.obj
 0002:0000186c       ??_7KUiSysMsgCentre@@6B@   004ae86c     UiSysMsgCentre.obj
 0002:000018a0       ??_7KUiCaveList@@6B@       004ae8a0     UiCaveList.obj
 0002:000018d4       ??_7KUiMiniMap@@6B@        004ae8d4     UiMiniMap.obj
 0002:00001908       ??_7KUiNewPlayerStartMsg@@6B@ 004ae908     UiNewPlayerStartMsg.obj
 0002:00001940       ??_7KUiHelper@@6B@         004ae940     UiHelper.obj
 0002:00001974       ??_7KUiHelper2@@6B@        004ae974     UiHelper2.obj
 0002:000019ac       ??_7KReconnectWnd@@6B@     004ae9ac     UiReconnect.obj
 0002:000019e0       ??_7KUiTaskNote@@6B@       004ae9e0     UiTaskNote.obj
 0002:00001a18       ??_7KUiMissionNote@@6B@    004aea18     UiTaskNote.obj
 0002:00001a4c       ??_7KUiWorldmap@@6B@       004aea4c     UiWorldMap.obj
 0002:00001a80       ??_7KUiNewsMessage@@6B@    004aea80     UiNewsMessage.obj
 0002:00001ab4       ??_7KUiNewsMessage2@@6B@   004aeab4     UiNewsMessage2.obj
 0002:00001ae8       ??_7KUiNewsSysMsg@@6B@     004aeae8     UiNewsSysMsg.obj
 0002:00001b1c       ??_7KUiStrengthRank@@6B@   004aeb1c     UiStrengthRank.obj
 0002:00001b54       ??_7?$KLinkStruct@UKRankIndexNode@@@@6B@ 004aeb54     UiStrengthRank.obj
 0002:00001b58       ??_7?$KLinkStruct@UKRankNode@@@@6B@ 004aeb58     UiStrengthRank.obj
 0002:00001b5c       ??_7KUiTongAssignBox@@6B@  004aeb5c     UiTongAssignBox.obj
 0002:00001b90       ??_7KUiTongCreateSheet@@6B@ 004aeb90     UiTongCreateSheet.obj
 0002:00001bc4       ??_7KUiTongGetString@@6B@  004aebc4     UiTongGetString.obj
 0002:00001bf8       ??_7KUiTongManager@@6B@    004aebf8     UiTongManager.obj
 0002:00001c2c       ??_7?$KLinkStruct@UKPilgarlicItem@@@@6B@ 004aec2c     UiTongManager.obj
 0002:00001c30       ??_7KUiEnchase@@6B@        004aec30     UiEnchase.obj
 0002:00001c68       ??_7KUiEnchase_Upgrade@@6B@ 004aec68     UiEnchase.obj
 0002:00001c9c       ??_7KGetFarmImage_Upgrade@@6B@ 004aec9c     UiEnchase.obj
 0002:00001cd0       ??_7KUiEnchase_Compound@@6B@ 004aecd0     UiEnchase.obj
 0002:00001d04       ??_7KGetFrameImage_Compound@@6B@ 004aed04     UiEnchase.obj
 0002:00001d38       ??_7KUiEnchase_Distill@@6B@ 004aed38     UiEnchase.obj
 0002:00001d6c       ??_7KGetFarmImage_Distill@@6B@ 004aed6c     UiEnchase.obj
 0002:00001da0       ??_7KUiEnchase_Forge@@6B@  004aeda0     UiEnchase.obj
 0002:00001dd4       ??_7KGetFarmImage_Forge@@6B@ 004aedd4     UiEnchase.obj
 0002:00001e08       ??_7KUiEnchase_Enchase@@6B@ 004aee08     UiEnchase.obj
 0002:00001e3c       ??_7KGetFarmImage_Enchase@@6B@ 004aee3c     UiEnchase.obj
 0002:00001e70       ??_7BlacklistNotify@@6B@   004aee70     GameSpaceChangedNotify.obj
 0002:00001ed0       ??_7Player_Life@@6B@       004aeed0     UiShell.obj
 0002:00001f10       ??_7Player_Mana@@6B@       004aef10     UiShell.obj
 0002:00001f50       ??_7Player_Stamina@@6B@    004aef50     UiShell.obj
 0002:00001f90       ??_7Player_Exp@@6B@        004aef90     UiShell.obj
 0002:00001fd0       ??_7Player_Level@@6B@      004aefd0     UiShell.obj
 0002:00002010       ??_7Player_SectSort@@6B@   004af010     UiShell.obj
 0002:00002050       ??_7Player_WorldSort@@6B@  004af050     UiShell.obj
 0002:00002090       ??_7Player_Status@@6B@     004af090     UiShell.obj
 0002:000020d0       ??_7Player_Items@@6B@      004af0d0     UiShell.obj
 0002:00002110       ??_7Player_ItemEx@@6B@     004af110     UiShell.obj
 0002:00002150       ??_7Player_Skills@@6B@     004af150     UiShell.obj
 0002:00002190       ??_7Player_Team@@6B@       004af190     UiShell.obj
 0002:000021d0       ??_7Player_Faction@@6B@    004af1d0     UiShell.obj
 0002:00002210       ??_7Player_Sit@@6B@        004af210     UiShell.obj
 0002:00002250       ??_7Player_Run@@6B@        004af250     UiShell.obj
 0002:00002290       ??_7Player_Horse@@6B@      004af290     UiShell.obj
 0002:000022d0       ??_7Player_Exchange@@6B@   004af2d0     UiShell.obj
 0002:00002310       ??_7Player_PK@@6B@         004af310     UiShell.obj
 0002:00002350       ??_7Player_ChatRoom@@6B@   004af350     UiShell.obj
 0002:00002390       ??_7Player_Recorder@@6B@   004af390     UiShell.obj
 0002:000023d0       ??_7Player_Auto@@6B@       004af3d0     UiShell.obj
 0002:00002410       __real@4@4005c800000000000000 004af410     UiShell.obj
 0002:00002418       __real@8@4005c800000000000000 004af418     UiShell.obj
 0002:00002438       ??_7CChatFilter@@6B@       004af438     ChatFilter.obj
 0002:0000243c       ??_7CFilterTextLib@@6B@    004af43c     FilterTextLib.obj
 0002:00002440       ??_7KClientCallback@@6B@   004af440     S3Client.obj
 0002:00002468       ??_7IClientCallback@@6B@   004af468     S3Client.obj
 0002:00002490       ??_7KMyApp@@6B@            004af490     S3Client.obj
 0002:000024c0       _IID_IESClient             004af4c0     NetConnectAgent.obj
 0002:000024d0       _IID_IClientFactory        004af4d0     NetConnectAgent.obj
 0002:000024e0       ??_7KLogin@@6B@            004af4e0     Login.obj
 0002:000024e4       ??_7iKNetMsgTargetObject@@6B@ 004af4e4     Login.obj
 0002:0000a978       __IMPORT_DESCRIPTOR_KERNEL32 004b7978     kernel32:KERNEL32.dll
 0002:0000a98c       __IMPORT_DESCRIPTOR_USER32 004b798c     user32:USER32.dll
 0002:0000a9a0       __IMPORT_DESCRIPTOR_SHELL32 004b79a0     shell32:SHELL32.dll
 0002:0000a9b4       __IMPORT_DESCRIPTOR_SHLWAPI 004b79b4     shlwapi:SHLWAPI.dll
 0002:0000a9c8       __IMPORT_DESCRIPTOR_LuaLibDll 004b79c8     lualibdll:LuaLibDll.dll
 0002:0000a9dc       __IMPORT_DESCRIPTOR_Engine 004b79dc     engine:Engine.dll
 0002:0000a9f0       __IMPORT_DESCRIPTOR_CoreClient 004b79f0     CoreClient:CoreClient.dll
 0002:0000aa04       __IMPORT_DESCRIPTOR_FilterText 004b7a04     FilterText:FilterText.dll
 0002:0000aa18       __IMPORT_DESCRIPTOR_MSVCRT 004b7a18     MSVCRT:MSVCRT.dll
 0002:0000aa2c       __IMPORT_DESCRIPTOR_MSVCP60 004b7a2c     msvcprt:MSVCP60.dll
 0002:0000aa40       __NULL_IMPORT_DESCRIPTOR   004b7a40     kernel32:KERNEL32.dll
 0003:00000000       ___xc_a                    004ba000     MSVCRT:cinitexe.obj
 0003:00000078       ___xc_z                    004ba078     MSVCRT:cinitexe.obj
 0003:0000007c       ___xi_a                    004ba07c     MSVCRT:cinitexe.obj
 0003:00000080       ___xi_z                    004ba080     MSVCRT:cinitexe.obj
 0003:00000200       ?m_uDefBorderLineColor@KPopupMenu@@0IA 004ba200     PopupMenu.obj
 0003:00000204       ?m_uDefTextColor@KPopupMenu@@0IA 004ba204     PopupMenu.obj
 0003:00000208       ?m_uDefTextBorderColor@KPopupMenu@@0IA 004ba208     PopupMenu.obj
 0003:0000020c       ?m_uDefSelTextColor@KPopupMenu@@0IA 004ba20c     PopupMenu.obj
 0003:00000210       ?m_uDefSelTextBorderColor@KPopupMenu@@0IA 004ba210     PopupMenu.obj
 0003:00000214       ?m_uDefItemBgColor@KPopupMenu@@0IA 004ba214     PopupMenu.obj
 0003:00000218       ?m_uDefSelItemBgColor@KPopupMenu@@0IA 004ba218     PopupMenu.obj
 0003:000004b4       ?vsColors@@3PAY132HA       004ba4b4     WndBorder.obj
 0003:00000574       ?ms_uBtnTipTextColor@KWndButton@@0IA 004ba574     WndButton.obj
 0003:00000604       ?ms_uBtnTipTextColor@KWndEdit@@0IA 004ba604     WndEdit.obj
 0003:00000858       ?ms_uBtnTipTextColor@KWndList2@@0IA 004ba858     WndList2.obj
 0003:00000a18       ?l_BgColors@@3PAIA         004baa18     WndObjContainer.obj
 0003:00000b58       ?ms_uBtnTipTextColor@KWndPureTextBtn@@0IA 004bab58     WndPureTextBtn.obj
 0003:00000c54       ?ms_nMoveSpeed@KWndShowAnimate@@0HA 004bac54     WndShowAnimate.obj
 0003:00000c58       ?ms_nFullRange@KWndShowAnimate@@0HA 004bac58     WndShowAnimate.obj
 0003:00000c5c       ?ms_uMoveTimeInterval@KWndShowAnimate@@0IA 004bac5c     WndShowAnimate.obj
 0003:00000c6c       ?ms_uBtnTipTextColor@KWndText@@0IA 004bac6c     WndText.obj
 0003:00001508       ?m_one@GameWorld_DateTime@@2UKComClassInfo@@A 004bb508     UiPlayerBar.obj
 0003:0000232c       ?ls_ToggleOptionName@@3PAPBDA 004bc32c     UiOptions.obj
 0003:0000275c       ?szArray_SelRoom@@3PAY0EA@DA 004bc75c     UiAutoPlay.obj
 0003:0000285c       ?szArray_Pickkind@@3PAY0EA@DA 004bc85c     UiAutoPlay.obj
 0003:0000291c       ?szArray_Equipmagic@@3PAY11EA@DA 004bc91c     UiAutoPlay.obj
 0003:00003d1c       ?szArray_FightBack@@3PAY0EA@DA 004bdd1c     UiAutoPlay.obj
 0003:00003d9c       ?szArray_FightBoss@@3PAY0EA@DA 004bdd9c     UiAutoPlay.obj
 0003:00003e9c       ?szArray_Team@@3PAY0EA@DA  004bde9c     UiAutoPlay.obj
 0003:000068c0       ?l_pGrupMenuItemTitle@@3PAPBDA 004c08c0     UiChatCentre.obj
 0003:000068cc       ?l_pFriendMenuItemTitle@@3PAPBDA 004c08cc     UiChatCentre.obj
 0003:00007f8c       ?szArray_NormalPK@@3PAY0EA@DA 004c1f8c     UiToolsControlBar.obj
 0003:000089fc       ?g_ActionName@@3PAY0CA@DA  004c29fc     UiGame.obj
 0003:00009784       ?ms_bEnableIdleMsg@KUiNewsMessage2@@0HA 004c3784     UiNewsMessage2.obj
 0003:0000a20c       ?szArray_QingXiang@@3PAY0EA@DA 004c420c     UiTongManager.obj
 0003:0000a40c       ?szArray_Jiyu@@3PAY0EA@DA  004c440c     UiTongManager.obj
 0003:0000a64c       ?szArray_Jiyu_Ne@@3PAY0EA@DA 004c464c     UiTongManager.obj
 0003:0000aed8       ?szArray_Compound@@3PAY0EA@DA 004c4ed8     UiEnchase.obj
 0003:0000bbd8       ?l_WindowList@@3PAPADA     004c5bd8     ShortcutKey.obj
 0003:0000bc30       ?l_StatusList@@3PAPADA     004c5c30     ShortcutKey.obj
 0003:0000bc68       ?GameScriptFuns@@3PAUTLua_Funcs@@A 004c5c68     ShortcutKey.obj
 0003:0000d408       ?$Main@@3PBDB              004c7408     UiBase.obj
 0003:0000d808       ?m_one@Player_Life@@2UKComClassInfo@@A 004c7808     UiShell.obj
 0003:0000d82c       ?m_bText@Player_Life@@2_NA 004c782c     UiShell.obj
 0003:0000d830       ?m_one@Player_Mana@@2UKComClassInfo@@A 004c7830     UiShell.obj
 0003:0000d854       ?m_bText@Player_Mana@@2_NA 004c7854     UiShell.obj
 0003:0000d858       ?m_one@Player_Stamina@@2UKComClassInfo@@A 004c7858     UiShell.obj
 0003:0000d87c       ?m_bText@Player_Stamina@@2_NA 004c787c     UiShell.obj
 0003:0000d880       ?m_one@Player_Exp@@2UKComClassInfo@@A 004c7880     UiShell.obj
 0003:0000d8a4       ?m_bText@Player_Exp@@2_NA  004c78a4     UiShell.obj
 0003:0000d8a8       ?m_one@Player_Level@@2UKComClassInfo@@A 004c78a8     UiShell.obj
 0003:0000d8d0       ?m_one@Player_SectSort@@2UKComClassInfo@@A 004c78d0     UiShell.obj
 0003:0000d8f8       ?m_one@Player_WorldSort@@2UKComClassInfo@@A 004c78f8     UiShell.obj
 0003:0000d920       ?m_one@Player_Status@@2UKComClassInfo@@A 004c7920     UiShell.obj
 0003:0000d948       ?m_one@Player_Items@@2UKComClassInfo@@A 004c7948     UiShell.obj
 0003:0000d970       ?m_one@Player_ItemEx@@2UKComClassInfo@@A 004c7970     UiShell.obj
 0003:0000d998       ?m_one@Player_Skills@@2UKComClassInfo@@A 004c7998     UiShell.obj
 0003:0000d9c0       ?m_one@Player_Team@@2UKComClassInfo@@A 004c79c0     UiShell.obj
 0003:0000d9e8       ?m_one@Player_Faction@@2UKComClassInfo@@A 004c79e8     UiShell.obj
 0003:0000da10       ?m_one@Player_Sit@@2UKComClassInfo@@A 004c7a10     UiShell.obj
 0003:0000da38       ?m_one@Player_Run@@2UKComClassInfo@@A 004c7a38     UiShell.obj
 0003:0000da60       ?m_one@Player_Horse@@2UKComClassInfo@@A 004c7a60     UiShell.obj
 0003:0000da88       ?m_one@Player_Exchange@@2UKComClassInfo@@A 004c7a88     UiShell.obj
 0003:0000dab0       ?m_one@Player_PK@@2UKComClassInfo@@A 004c7ab0     UiShell.obj
 0003:0000dad8       ?m_one@Player_ChatRoom@@2UKComClassInfo@@A 004c7ad8     UiShell.obj
 0003:0000db00       ?m_one@Player_Recorder@@2UKComClassInfo@@A 004c7b00     UiShell.obj
 0003:0000db28       ?m_one@Player_Auto@@2UKComClassInfo@@A 004c7b28     UiShell.obj
 0003:0000de74       ?g_bScreen@@3HA            004c7e74     S3Client.obj
 0003:0000de78       ?g_szGameName@@3PADA       004c7e78     S3Client.obj
 0003:0000e420       ___defaultmatherr          004c8420     MSVCRT:merr.obj
 0003:0000f248       ?g_MouseOver@@3VKMouseOver@@A 004c9248     MouseHover.obj
 0003:00010448       ?m_pMenu@KPopupMenu@@0PAUKPopupMenuData@@A 004ca448     PopupMenu.obj
 0003:0001044c       ?m_pCaller@KPopupMenu@@0PAVKWndWindow@@A 004ca44c     PopupMenu.obj
 0003:00010450       ?m_uCallerParam@KPopupMenu@@0IA 004ca450     PopupMenu.obj
 0003:00010454       ?m_nImgWidth@KPopupMenu@@0FA 004ca454     PopupMenu.obj
 0003:00010456       ?m_nImgHeight@KPopupMenu@@0FA 004ca456     PopupMenu.obj
 0003:00010458       ?m_nIndent@KPopupMenu@@0FA 004ca458     PopupMenu.obj
 0003:0001045a       ?m_nFrame@KPopupMenu@@0FA  004ca45a     PopupMenu.obj
 0003:0001045c       ?m_nMenuHeight@KPopupMenu@@0HA 004ca45c     PopupMenu.obj
 0003:00010460       ?m_szImage@KPopupMenu@@0PADA 004ca460     PopupMenu.obj
 0003:000104e8       ?g_SpaceOver@@3VKSpaceOver@@A 004ca4e8     SpaceOver.obj
 0003:00010fcc       ?l_Time@@3IA               004cafcc     UiImage.obj
 0003:00010fd0       ?rgbColor@@3PAHA           004cafd0     WndBorder.obj
 0003:00010fdc       ?m_pPressedDownBtn@KWndButton@@0PAV1@A 004cafdc     WndButton.obj
 0003:00010fe0       ?ms_nDisableBtnTip@KWndButton@@0HA 004cafe0     WndButton.obj
 0003:00011008       ?ms_nDisableBtnTip@KWndEdit@@0HA 004cb008     WndEdit.obj
 0003:0001105c       ?ms_nDisableBtnTip@KWndList2@@0HA 004cb05c     WndList2.obj
 0003:00011240       ?WND_SHOW_MOUSE_OVER_WND@@3HA 004cb240     Wnds.obj
 0003:0001124c       ?ms_nDisableBtnTip@KWndText@@0HA 004cb24c     WndText.obj
 0003:00011270       ?WND_SHOW_DEBUG_FRAME_TEXT@@3HA 004cb270     WndWindow.obj
 0003:00011278       ?m_pSelf@KUiConnectInfo@@0PAV1@A 004cb278     UiConnectInfo.obj
 0003:00011284       ?m_pSelf@KUiLogin@@0PAV1@A 004cb284     UiLogin.obj
 0003:0001128c       ?m_pSelf@KUiLoginBackGround@@0PAV1@A 004cb28c     UiLoginBg.obj
 0003:00011290       ?m_pSelf@KUiNotice@@0PAV1@A 004cb290     UiNotice.obj
 0003:0001129c       ?m_pSelf@KUiSelServer@@0PAV1@A 004cb29c     UiSelServer.obj
 0003:000112a4       ?m_pSelf@KUiChooseFace@@0PAV1@A 004cb2a4     UiChooseFace.obj
 0003:000112ac       ?m_pSelf@KUiFaceSelector@@0PAV1@A 004cb2ac     UiFaceSelector.obj
 0003:000112b0       ?ms_pFaceList@KUiFaceSelector@@0PAUKFaceItem@1@A 004cb2b0     UiFaceSelector.obj
 0003:000112b4       ?ms_nNumFaces@KUiFaceSelector@@0HA 004cb2b4     UiFaceSelector.obj
 0003:000112c4       ?m_pSelf@KUiPlayerBar@@0PAV1@A 004cb2c4     UiPlayerBar.obj
 0003:000112c8       ?s_CanFocusColor@@3IA      004cb2c8     UiPlayerBar.obj
 0003:000112cc       ?s_NotCanFocusColor@@3IA   004cb2cc     UiPlayerBar.obj
 0003:000112e4       ?_Nil@?$_Tree@V?$basic_string@DU?$char_traits@D@std@@V?$allocator@D@2@@std@@U?$pair@$$CBV?$basic_string@DU?$char_traits@D@std@@V?$allocator@D@2@@std@@UShortFuncInfo@@@2@U_Kfn@?$map@V?$basic_string@DU?$char_traits@D@std@@V?$allocator@D@2@@std@@UShortFuncInfo@@Ustring_iless@@V?$allocator@UShortFuncInfo@@@2@@2@Ustring_iless@@V?$allocator@UShortFuncInfo@@@2@@std@@1PAU_Node@12@A 004cb2e4     UiPlayerBar.obj
 0003:000112e8       ?m_pSelf@KUiPlayerControlBar@@0PAV1@A 004cb2e8     UiPlayerControlBar.obj
 0003:000112f8       ?m_pSelf@KUiStatus@@0PAV1@A 004cb2f8     UiStatus.obj
 0003:0001137c       ?m_pSelf@KUiOptions@@0PAV1@A 004cb37c     UiOptions.obj
 0003:0001139c       ?m_pSelf@KUiInit@@0PAV1@A  004cb39c     UiInit.obj
 0003:000113ac       ?m_pNearbyPlayersList@@3PAUKUiPlayerItem@@A 004cb3ac     UiAutoPlay.obj
 0003:000113b0       ?m_pSelf@KUiRecovery@@0PAV1@A 004cb3b0     UiAutoPlay.obj
 0003:000113b4       ?m_pSelf@KUiAutoPlay@@0PAV1@A 004cb3b4     UiAutoPlay.obj
 0003:000113c4       ?m_pSelf@KUiBreakItem@@0PAV1@A 004cb3c4     UiBreakItem.obj
 0003:000113c8       ?m_pSelf@KUiExpandItem@@0PAV1@A 004cb3c8     UiExpandItem.obj
 0003:000113cc       ?m_pSelf@KUiGetMoney@@0PAV1@A 004cb3cc     UiGetMoney.obj
 0003:000113d0       ?m_pSelf@KUiGive@@0PAV1@A  004cb3d0     UiGive.obj
 0003:000113d4       ?m_pSelf@KUiItem@@0PAV1@A  004cb3d4     UiItem.obj
 0003:000113e0       ?m_pSelf@KUiPlayerLock@@0PAV1@A 004cb3e0     UiPlayerLock.obj
 0003:000113f0       ?m_pSelf@KUiSkills@@0PAV1@A 004cb3f0     UiSkills.obj
 0003:00011400       ?ms_ShortcutSkills@KUiSkillTree@@0PAUKUiSkillData@@A 004cb400     UiSkillTree.obj
 0003:0001146c       ?m_pSelf@KUiSkillTree@@0PAV1@A 004cb46c     UiSkillTree.obj
 0003:00011474       ?m_pSelf@KUiStoreBox@@0PAV1@A 004cb474     UiStoreBox.obj
 0003:00011478       ?m_pSelf@KUiESCDlg@@0PAV1@A 004cb478     UiESCDlg.obj
 0003:0001147c       ?m_pSelf@KUiGetString@@0PAV1@A 004cb47c     UiGetString.obj
 0003:00011480       ?m_pSelf@KUiMsgSel@@0PAV1@A 004cb480     UiMsgSel.obj
 0003:00011484       ?m_pSelf@KUiParadeItem@@0PAV1@A 004cb484     UiParadeItem.obj
 0003:00011488       ?m_pSelf@KUiSelPlayerNearby@@0PAV1@A 004cb488     UiSelPlayerNearby.obj
 0003:00011490       ?m_pSelf@KUiNewPlayer@@0PAV1@A 004cb490     UiNewPlayer.obj
 0003:000114b4       ?m_pSelf@KUiSelNativePlace@@0PAV1@A 004cb4b4     UiSelNativePlace.obj
 0003:000114c8       ?m_pSelf@KUiSelPlayer@@0PAV1@A 004cb4c8     UiSelPlayer.obj
 0003:000114e0       ?ms_SNotify@KUiChatCentre@@0UServerNotify@@A 004cb4e0     UiChatCentre.obj
 0003:000114e8       ?m_pSelf@KUiChatCentre@@0PAV1@A 004cb4e8     UiChatCentre.obj
 0003:00011510       ?_Nil@?$_Tree@V?$basic_string@DU?$char_traits@D@std@@V?$allocator@D@2@@std@@U?$pair@$$CBV?$basic_string@DU?$char_traits@D@std@@V?$allocator@D@2@@std@@V12@@2@U_Kfn@?$map@V?$basic_string@DU?$char_traits@D@std@@V?$allocator@D@2@@std@@V12@U?$less@V?$basic_string@DU?$char_traits@D@std@@V?$allocator@D@2@@std@@@2@V?$allocator@V?$basic_string@DU?$char_traits@D@std@@V?$allocator@D@2@@std@@@2@@2@U?$less@V?$basic_string@DU?$char_traits@D@std@@V?$allocator@D@2@@std@@@2@V?$allocator@V?$basic_string@DU?$char_traits@D@std@@V?$allocator@D@2@@std@@@2@@std@@1PAU_Node@12@A 004cb510     UiChatCentre.obj
 0003:00011514       ?_Nilrefs@?$_Tree@V?$basic_string@DU?$char_traits@D@std@@V?$allocator@D@2@@std@@U?$pair@$$CBV?$basic_string@DU?$char_traits@D@std@@V?$allocator@D@2@@std@@V12@@2@U_Kfn@?$map@V?$basic_string@DU?$char_traits@D@std@@V?$allocator@D@2@@std@@V12@U?$less@V?$basic_string@DU?$char_traits@D@std@@V?$allocator@D@2@@std@@@2@V?$allocator@V?$basic_string@DU?$char_traits@D@std@@V?$allocator@D@2@@std@@@2@@2@U?$less@V?$basic_string@DU?$char_traits@D@std@@V?$allocator@D@2@@std@@@2@V?$allocator@V?$basic_string@DU?$char_traits@D@std@@V?$allocator@D@2@@std@@@2@@std@@1IA 004cb514     UiChatCentre.obj
 0003:00011518       ?_Nil@?$_Tree@V?$basic_string@DU?$char_traits@D@std@@V?$allocator@D@2@@std@@U?$pair@$$CBV?$basic_string@DU?$char_traits@D@std@@V?$allocator@D@2@@std@@E@2@U_Kfn@?$map@V?$basic_string@DU?$char_traits@D@std@@V?$allocator@D@2@@std@@EU?$less@V?$basic_string@DU?$char_traits@D@std@@V?$allocator@D@2@@std@@@2@V?$allocator@E@2@@2@U?$less@V?$basic_string@DU?$char_traits@D@std@@V?$allocator@D@2@@std@@@2@V?$allocator@E@2@@std@@1PAU_Node@12@A 004cb518     UiChatCentre.obj
 0003:0001151c       ?_Nilrefs@?$_Tree@V?$basic_string@DU?$char_traits@D@std@@V?$allocator@D@2@@std@@U?$pair@$$CBV?$basic_string@DU?$char_traits@D@std@@V?$allocator@D@2@@std@@E@2@U_Kfn@?$map@V?$basic_string@DU?$char_traits@D@std@@V?$allocator@D@2@@std@@EU?$less@V?$basic_string@DU?$char_traits@D@std@@V?$allocator@D@2@@std@@@2@V?$allocator@E@2@@2@U?$less@V?$basic_string@DU?$char_traits@D@std@@V?$allocator@D@2@@std@@@2@V?$allocator@E@2@@std@@1IA 004cb51c     UiChatCentre.obj
 0003:00011520       ?g_UiChatPhrase@@3VKUiChatPhrase@@A 004cb520     UiChatPhrase.obj
 0003:000117f0       ?m_pSelf@KUiChatRoom@@0PAV1@A 004cb7f0     UiChatRoom.obj
 0003:00011818       ?g_UiInformation@@3VKUiInformation@@A 004cb818     UiInformation.obj
 0003:000121e0       ?g_UiInformation1@@3VKUiInformation1@@A 004cc1e0     UiInformation1.obj
 0003:00012d50       ?g_UiInformation2@@3VKUiInformation2@@A 004ccd50     UiInformation2.obj
 0003:000132a0       ?m_pSelf@KUiTeamManage@@0PAV1@A 004cd2a0     UiTeamManage.obj
 0003:000132a4       ?m_pSelf@KUiChatItem@@0PAV1@A 004cd2a4     UiChatItem.obj
 0003:000132ac       ?m_pSelf@KUiHeaderControlBar@@0PAV1@A 004cd2ac     UiHeaderControlBar.obj
 0003:000132b8       ?m_pSelf@KUiMsgCentrePad@@0PAV1@A 004cd2b8     UiMsgCentrePad.obj
 0003:000132bc       ?ms_DefaultWidth@KUiMsgCentrePad@@0HA 004cd2bc     UiMsgCentrePad.obj
 0003:000132c0       ?ms_DefaultHeight@KUiMsgCentrePad@@0HA 004cd2c0     UiMsgCentrePad.obj
 0003:00013324       ?m_pSelf@KUiRankData@@0PAV1@A 004cd324     UiRankData.obj
 0003:0001337c       ?m_pSelf@KUiToolsControlBar@@0PAV1@A 004cd37c     UiToolsControlBar.obj
 0003:00013380       ?m_pSelf@KUiPlayerShop@@0PAV1@A 004cd380     UiPlayerShop.obj
 0003:00013384       ?m_pSelf@KUiSetPrice@@0PAV1@A 004cd384     UiSetPrice.obj
 0003:00013388       ?m_pSelf@KUiShop@@0PAV1@A  004cd388     UiShop.obj
 0003:0001338c       ?m_pSelf@KUiShoppingCart@@0PAV1@A 004cd38c     UiSuperShop.obj
 0003:00013390       ?m_pSelf@KUiSuperShop@@0PAV1@A 004cd390     UiSuperShop.obj
 0003:00013394       ?m_pSelf@KUiDynamicShop@@0PAV1@A 004cd394     UiSuperShop.obj
 0003:000133ac       ?m_pSelf@KUiTrade@@0PAV1@A 004cd3ac     UiTrade.obj
 0003:000133c0       ?m_pSelf@KUiTradeConfirm@@0PAV1@A 004cd3c0     UiTradeConfirmWnd.obj
 0003:000133d0       ?g_WndGameSpace@@3VKUiGameSpace@@A 004cd3d0     UiGame.obj
 0003:0001344c       ?m_pSelf@KUiSysMsgCentre@@0PAV1@A 004cd44c     UiSysMsgCentre.obj
 0003:00013464       ?m_pSelf@KUiCaveList@@0PAV1@A 004cd464     UiCaveList.obj
 0003:0001346c       ?ms_pSelf@KUiMiniMap@@0PAV1@A 004cd46c     UiMiniMap.obj
 0003:00013478       ?m_MenuData@KUiSelColor@@0PAEA 004cd478     UiSelColor.obj
 0003:0001383c       ?m_pSelf@KUiNewPlayerStartMsg@@0PAV1@A 004cd83c     UiNewPlayerStartMsg.obj
 0003:00013840       ?m_pSelf@KUiHelper@@0PAV1@A 004cd840     UiHelper.obj
 0003:00013844       ?ms_nImgFrame@KUiHelper@@0HA 004cd844     UiHelper.obj
 0003:00013850       ?m_pSelf@KUiHelper2@@0PAV1@A 004cd850     UiHelper2.obj
 0003:00013870       ?m_pSelf@KReconnectWnd@@0PAV1@A 004cd870     UiReconnect.obj
 0003:00013874       ?ms_pPersonalRecord@KTaskDataFile@@0PAUKPersonalRecord@1@A 004cd874     UiTaskDataFile.obj
 0003:00013878       ?ms_pSystemRecordList@KTaskDataFile@@0PAUKTaskSystemRecordNode@1@A 004cd878     UiTaskDataFile.obj
 0003:0001387c       ?ms_nSystemHeaderCount@KTaskDataFile@@0HA 004cd87c     UiTaskDataFile.obj
 0003:00013880       ?ms_nSystemRecordCount@KTaskDataFile@@0HA 004cd880     UiTaskDataFile.obj
 0003:00013884       ?m_pSelf@KUiTaskNote@@0PAV1@A 004cd884     UiTaskNote.obj
 0003:00013888       ?m_pSelf@KUiMissionNote@@0PAV1@A 004cd888     UiTaskNote.obj
 0003:000138b0       ?m_pSelf@KUiWorldmap@@0PAV1@A 004cd8b0     UiWorldMap.obj
 0003:000138bc       ?m_pSelf@KUiNewsMessage@@0PAV1@A 004cd8bc     UiNewsMessage.obj
 0003:000138c0       ?ms_bEnableIdleMsg@KUiNewsMessage@@0HA 004cd8c0     UiNewsMessage.obj
 0003:000138cc       ?m_pSelf@KUiNewsMessage2@@0PAV1@A 004cd8cc     UiNewsMessage2.obj
 0003:000138d8       ?m_pSelf@KUiNewsSysMsg@@0PAV1@A 004cd8d8     UiNewsSysMsg.obj
 0003:000138dc       ?ms_nSystemMessageCount@KUiNewsSysMsg@@0HA 004cd8dc     UiNewsSysMsg.obj
 0003:000138e8       ?m_IndexIDIni@KUiStrengthRank@@0VKIniFile@@A 004cd8e8     UiStrengthRank.obj
 0003:00013940       ?m_RankData@KUiStrengthRank@@0V?$KLinkStruct@UKRankNode@@@@A 004cd940     UiStrengthRank.obj
 0003:00013960       ?m_IndexData@KUiStrengthRank@@0V?$KLinkStruct@UKRankIndexNode@@@@A 004cd960     UiStrengthRank.obj
 0003:0001397c       ?m_pSelf@KUiStrengthRank@@0PAV1@A 004cd97c     UiStrengthRank.obj
 0003:00013980       ?m_bIsIndexDataChange@KUiStrengthRank@@0HA 004cd980     UiStrengthRank.obj
 0003:00013984       ?m_bIsRankDataChange@KUiStrengthRank@@0HA 004cd984     UiStrengthRank.obj
 0003:0001399c       ?ms_pSelf@KUiTongAssignBox@@0PAV1@A 004cd99c     UiTongAssignBox.obj
 0003:000139c4       ?ms_pSelf@KUiTongCreateSheet@@0PAV1@A 004cd9c4     UiTongCreateSheet.obj
 0003:000139d8       ?m_pSelf@KUiTongGetString@@0PAV1@A 004cd9d8     UiTongGetString.obj
 0003:000139e0       ?m_TongParam@KUiTongManager@@0UKTongParam@@A 004cd9e0     UiTongManager.obj
 0003:00013a18       ?m_TongData@KUiTongManager@@0UKTongInfo@@A 004cda18     UiTongManager.obj
 0003:00013b84       ?ms_pSelf@KUiTongManager@@0PAV1@A 004cdb84     UiTongManager.obj
 0003:00013b88       ?m_nElderDataIndex@KUiTongManager@@0HA 004cdb88     UiTongManager.obj
 0003:00013b8c       ?m_nMemberDataIndex@KUiTongManager@@0HA 004cdb8c     UiTongManager.obj
 0003:00013b90       ?m_nCaptainDataIndex@KUiTongManager@@0HA 004cdb90     UiTongManager.obj
 0003:00013bdc       ?m_pSelf@KUiEnchase@@0PAV1@A 004cdbdc     UiEnchase.obj
 0003:00013be0       ?ms_pSelf@KUiEnchase_Upgrade@@0PAV1@A 004cdbe0     UiEnchase.obj
 0003:00013be4       ?ms_pSelf@KUiEnchase_Compound@@0PAV1@A 004cdbe4     UiEnchase.obj
 0003:00013be8       ?ms_pSelf@KUiEnchase_Distill@@0PAV1@A 004cdbe8     UiEnchase.obj
 0003:00013bec       ?ms_pSelf@KUiEnchase_Forge@@0PAV1@A 004cdbec     UiEnchase.obj
 0003:00013bf0       ?ms_pSelf@KUiEnchase_Enchase@@0PAV1@A 004cdbf0     UiEnchase.obj
 0003:00013df8       ?s_LNotify@@3UBlacklistNotify@@A 004cddf8     GameSpaceChangedNotify.obj
 0003:00013e00       ?g_BlackListUserNames@@3V?$map@V?$basic_string@DU?$char_traits@D@std@@V?$allocator@D@2@@std@@V12@U?$less@V?$basic_string@DU?$char_traits@D@std@@V?$allocator@D@2@@std@@@2@V?$allocator@V?$basic_string@DU?$char_traits@D@std@@V?$allocator@D@2@@std@@@2@@std@@A 004cde00     GameSpaceChangedNotify.obj
 0003:00013ea0       ?ms_FunsMap@KShortcutKeyCentre@@2V?$map@V?$basic_string@DU?$char_traits@D@std@@V?$allocator@D@2@@std@@UShortFuncInfo@@Ustring_iless@@V?$allocator@UShortFuncInfo@@@2@@std@@A 004cdea0     ShortcutKey.obj
 0003:00013eb8       ?ms_Script@KShortcutKeyCentre@@0VKLuaScript@@A 004cdeb8     ShortcutKey.obj
 0003:00013f2c       ?ms_pCommands@KShortcutKeyCentre@@0PAUCOMMAND_SETTING@@A 004cdf2c     ShortcutKey.obj
 0003:00013f30       ?ms_nCommands@KShortcutKeyCentre@@0HA 004cdf30     ShortcutKey.obj
 0003:00013f34       ?ms_Enable@KShortcutKeyCentre@@0_NA 004cdf34     ShortcutKey.obj
 0003:00013f35       ?ms_bMouse@KShortcutKeyCentre@@2_NA 004cdf35     ShortcutKey.obj
 0003:00013f38       ?ms_MouseX@KShortcutKeyCentre@@2HA 004cdf38     ShortcutKey.obj
 0003:00013f3c       ?ms_MouseY@KShortcutKeyCentre@@2HA 004cdf3c     ShortcutKey.obj
 0003:000141bc       ?_Nilrefs@?$_Tree@V?$basic_string@DU?$char_traits@D@std@@V?$allocator@D@2@@std@@U?$pair@$$CBV?$basic_string@DU?$char_traits@D@std@@V?$allocator@D@2@@std@@UShortFuncInfo@@@2@U_Kfn@?$map@V?$basic_string@DU?$char_traits@D@std@@V?$allocator@D@2@@std@@UShortFuncInfo@@Ustring_iless@@V?$allocator@UShortFuncInfo@@@2@@2@Ustring_iless@@V?$allocator@UShortFuncInfo@@@2@@std@@1IA 004ce1bc     ShortcutKey.obj
 0003:000141c0       ?_Nil@?$_Tree@V?$basic_string@DU?$char_traits@D@std@@V?$allocator@D@2@@std@@U?$pair@$$CBV?$basic_string@DU?$char_traits@D@std@@V?$allocator@D@2@@std@@U?$pair@KK@2@@2@U_Kfn@?$map@V?$basic_string@DU?$char_traits@D@std@@V?$allocator@D@2@@std@@U?$pair@KK@2@Ustring_iless@@V?$allocator@U?$pair@KK@std@@@2@@2@Ustring_iless@@V?$allocator@U?$pair@KK@std@@@2@@std@@1PAU_Node@12@A 004ce1c0     ShortcutKey.obj
 0003:000141c4       ?_Nilrefs@?$_Tree@V?$basic_string@DU?$char_traits@D@std@@V?$allocator@D@2@@std@@U?$pair@$$CBV?$basic_string@DU?$char_traits@D@std@@V?$allocator@D@2@@std@@U?$pair@KK@2@@2@U_Kfn@?$map@V?$basic_string@DU?$char_traits@D@std@@V?$allocator@D@2@@std@@U?$pair@KK@2@Ustring_iless@@V?$allocator@U?$pair@KK@std@@@2@@2@Ustring_iless@@V?$allocator@U?$pair@KK@std@@@2@@std@@1IA 004ce1c4     ShortcutKey.obj
 0003:000141c8       ?s_ANotify@@3UAddinNotify@@A 004ce1c8     UiBase.obj
 0003:000141d0       ?g_UiBase@@3VKUiBase@@A    004ce1d0     UiBase.obj
 0003:0001425c       ?g_nWindowNTFlag@@3HA      004ce25c     UiBase.obj
 0003:00014290       ?_Nil@?$_Tree@V?$basic_string@DU?$char_traits@D@std@@V?$allocator@D@2@@std@@U?$pair@$$CBV?$basic_string@DU?$char_traits@D@std@@V?$allocator@D@2@@std@@PAX@2@U_Kfn@?$map@V?$basic_string@DU?$char_traits@D@std@@V?$allocator@D@2@@std@@PAXU?$less@V?$basic_string@DU?$char_traits@D@std@@V?$allocator@D@2@@std@@@2@V?$allocator@PAX@2@@2@U?$less@V?$basic_string@DU?$char_traits@D@std@@V?$allocator@D@2@@std@@@2@V?$allocator@PAX@2@@std@@1PAU_Node@12@A 004ce290     UiBase.obj
 0003:00014294       ?_Nilrefs@?$_Tree@V?$basic_string@DU?$char_traits@D@std@@V?$allocator@D@2@@std@@U?$pair@$$CBV?$basic_string@DU?$char_traits@D@std@@V?$allocator@D@2@@std@@PAX@2@U_Kfn@?$map@V?$basic_string@DU?$char_traits@D@std@@V?$allocator@D@2@@std@@PAXU?$less@V?$basic_string@DU?$char_traits@D@std@@V?$allocator@D@2@@std@@@2@V?$allocator@PAX@2@@2@U?$less@V?$basic_string@DU?$char_traits@D@std@@V?$allocator@D@2@@std@@@2@V?$allocator@PAX@2@@std@@1IA 004ce294     UiBase.obj
 0003:00014298       ?s_VersionInfo@@3PADA      004ce298     UiShell.obj
 0003:000142fc       ?g_bDisconnect@@3HA        004ce2fc     UiShell.obj
 0003:00014300       ?g_ClientCallback@@3UKClientCallback@@A 004ce300     S3Client.obj
 0003:00014308       ?g_ChatFilter@@3VCChatFilter@@A 004ce308     S3Client.obj
 0003:00014310       ?g_libFilterText@@3VCFilterTextLib@@A 004ce310     S3Client.obj
 0003:00014318       ?g_PakList@@3VKPakList@@A  004ce318     S3Client.obj
 0003:0001439c       ?hInst@@3PAUHINSTANCE__@@A 004ce39c     S3Client.obj
 0003:000143a0       ?MyApp@@3VKMyApp@@A        004ce3a0     S3Client.obj
 0003:000144e8       ?g_pRepresentShell@@3PAUiRepresentShell@@A 004ce4e8     S3Client.obj
 0003:000144ec       ?g_pIInlinePicSink@@3PAUIInlinePicEngineSink@@A 004ce4ec     S3Client.obj
 0003:000144f0       ?g_pCoreShell@@3PAUiCoreShell@@A 004ce4f0     S3Client.obj
 0003:000144f4       ?g_pMusic@@3PAVKMusic@@A   004ce4f4     S3Client.obj
 0003:000144fc       ?g_bRepresent3@@3HA        004ce4fc     S3Client.obj
 0003:00014510       ?g_NetConnectAgent@@3VKNetConnectAgent@@A 004ce510     NetConnectAgent.obj
 0003:00014938       ?g_LoginLogic@@3VKLogin@@A 004ce938     Login.obj
 0003:00014aa4       __dowildcard               004ceaa4     MSVCRT:wildcard.obj
 0003:00014aa8       __newmode                  004ceaa8     MSVCRT:_newmode.obj
 0003:00014aac       __commode                  004ceaac     MSVCRT:xncommod.obj
 0003:00014ab0       __fmode                    004ceab0     MSVCRT:xtxtmode.obj
 0003:00014ab4       __adjust_fdiv              004ceab4     <common>
 0003:00014ab8       ___onexitend               004ceab8     <common>
 0003:00014abc       ___onexitbegin             004ceabc     <common>

 entry point at        0001:000a25cc

 Static symbols

 0001:0009fb50       _$E59                      004a0b50 f   Login.obj
 0001:0009fb5f       _$E56                      004a0b5f f   Login.obj
 0001:0009fb6e       _$E58                      004a0b6e f   Login.obj
 0001:0009fb80       _$E57                      004a0b80 f   Login.obj
 0001:0009fc29       _$E62                      004a0c29 f   Login.obj
 0001:0009fc33       _$E61                      004a0c33 f   Login.obj
 0001:0009fc72       ?_Rand@@YAIXZ              004a0c72 f   Login.obj
 0001:0009f010       _$E37                      004a0010 f   NetConnectAgent.obj
 0001:0009f01f       _$E34                      004a001f f   NetConnectAgent.obj
 0001:0009f02e       _$E36                      004a002e f   NetConnectAgent.obj
 0001:0009f040       _$E35                      004a0040 f   NetConnectAgent.obj
 0001:0009e2a0       _$E59                      0049f2a0 f   S3Client.obj
 0001:0009e2af       _$E56                      0049f2af f   S3Client.obj
 0001:0009e2be       _$E58                      0049f2be f   S3Client.obj
 0001:0009e2d0       _$E57                      0049f2d0 f   S3Client.obj
 0001:0009e2df       _$E64                      0049f2df f   S3Client.obj
 0001:0009e2ee       _$E61                      0049f2ee f   S3Client.obj
 0001:0009e2fe       _$E63                      0049f2fe f   S3Client.obj
 0001:0009e310       _$E62                      0049f310 f   S3Client.obj
 0001:0009e320       _$E69                      0049f320 f   S3Client.obj
 0001:0009e32f       _$E66                      0049f32f f   S3Client.obj
 0001:0009e33e       _$E68                      0049f33e f   S3Client.obj
 0001:0009e350       _$E67                      0049f350 f   S3Client.obj
 0001:0009e35f       _$E74                      0049f35f f   S3Client.obj
 0001:0009e36e       _$E71                      0049f36e f   S3Client.obj
 0001:0009e37d       _$E73                      0049f37d f   S3Client.obj
 0001:0009e38f       _$E72                      0049f38f f   S3Client.obj
 0001:0009e39e       _$E77                      0049f39e f   S3Client.obj
 0001:0009e3a8       _$E76                      0049f3a8 f   S3Client.obj
 0001:0009c490       _$E177                     0049d490 f   UiShell.obj
 0001:0009c49a       _$E176                     0049d49a f   UiShell.obj
 0001:00097330       _$E97                      00498330 f   UiBase.obj
 0001:0009733f       _$E94                      0049833f f   UiBase.obj
 0001:0009734e       _$E96                      0049834e f   UiBase.obj
 0001:00097360       _$E95                      00498360 f   UiBase.obj
 0001:00097d3e       ?_KSG_GetWindowVersion@@YAHXZ 00498d3e f   UiBase.obj
 0001:00098fbc       _$E100                     00499fbc f   UiBase.obj
 0001:00098fc6       _$E99                      00499fc6 f   UiBase.obj
 0001:0008c780       _$E142                     0048d780 f   ShortcutKey.obj
 0001:0008c78f       _$E138                     0048d78f f   ShortcutKey.obj
 0001:0008c79f       _$E141                     0048d79f f   ShortcutKey.obj
 0001:0008c7b1       _$E139                     0048d7b1 f   ShortcutKey.obj
 0001:0008c7de       _$E147                     0048d7de f   ShortcutKey.obj
 0001:0008c7ed       _$E144                     0048d7ed f   ShortcutKey.obj
 0001:0008c809       _$E146                     0048d809 f   ShortcutKey.obj
 0001:0008c81b       _$E145                     0048d81b f   ShortcutKey.obj
 0001:0008d94a       ?__x_isgraph@@YA_ND@Z      0048e94a f   ShortcutKey.obj
 0001:0008eb32       _$E152                     0048fb32 f   ShortcutKey.obj
 0001:00092ba4       _$E155                     00493ba4 f   ShortcutKey.obj
 0001:0008b333       _$E159                     0048c333 f   GameSpaceChangedNotify.obj
 0001:0008b342       _$E156                     0048c342 f   GameSpaceChangedNotify.obj
 0001:0008b35e       _$E158                     0048c35e f   GameSpaceChangedNotify.obj
 0001:0008b370       _$E157                     0048c370 f   GameSpaceChangedNotify.obj
 0001:0008b37f       _$E162                     0048c37f f   GameSpaceChangedNotify.obj
 0001:0008b389       _$E161                     0048c389 f   GameSpaceChangedNotify.obj
 0001:00078d80       _$E44                      00479d80 f   UiStrengthRank.obj
 0001:00078d8f       _$E40                      00479d8f f   UiStrengthRank.obj
 0001:00078d9e       _$E43                      00479d9e f   UiStrengthRank.obj
 0001:00078db0       _$E41                      00479db0 f   UiStrengthRank.obj
 0001:00078ddc       _$E49                      00479ddc f   UiStrengthRank.obj
 0001:00078deb       _$E46                      00479deb f   UiStrengthRank.obj
 0001:00078dfa       _$E48                      00479dfa f   UiStrengthRank.obj
 0001:00078e0c       _$E47                      00479e0c f   UiStrengthRank.obj
 0001:00078e38       _$E54                      00479e38 f   UiStrengthRank.obj
 0001:00078e47       _$E51                      00479e47 f   UiStrengthRank.obj
 0001:00078e57       _$E53                      00479e57 f   UiStrengthRank.obj
 0001:00078e69       _$E52                      00479e69 f   UiStrengthRank.obj
 0001:0006b410       _$E87                      0046c410 f   UiGame.obj
 0001:0006b41f       _$E84                      0046c41f f   UiGame.obj
 0001:0006b42e       _$E86                      0046c42e f   UiGame.obj
 0001:0006b440       _$E85                      0046c440 f   UiGame.obj
 0001:00054bc0       _$E10                      00455bc0 f   UiInformation2.obj
 0001:00054bcf       _$E7                       00455bcf f   UiInformation2.obj
 0001:00054bde       _$E9                       00455bde f   UiInformation2.obj
 0001:00054bf0       _$E8                       00455bf0 f   UiInformation2.obj
 0001:00054350       _$E10                      00455350 f   UiInformation1.obj
 0001:0005435f       _$E7                       0045535f f   UiInformation1.obj
 0001:0005436e       _$E9                       0045536e f   UiInformation1.obj
 0001:00054380       _$E8                       00455380 f   UiInformation1.obj
 0001:00053c60       _$E10                      00454c60 f   UiInformation.obj
 0001:00053c6f       _$E7                       00454c6f f   UiInformation.obj
 0001:00053c7e       _$E9                       00454c7e f   UiInformation.obj
 0001:00053c90       _$E8                       00454c90 f   UiInformation.obj
 0001:00050960       _$E37                      00451960 f   UiChatPhrase.obj
 0001:0005096f       _$E34                      0045196f f   UiChatPhrase.obj
 0001:0005097e       _$E36                      0045197e f   UiChatPhrase.obj
 0001:00050990       _$E35                      00451990 f   UiChatPhrase.obj
 0001:000460d0       _$E60                      004470d0 f   UiChatCentre.obj
 0001:000460da       _$E59                      004470da f   UiChatCentre.obj
 0001:00014d20       _$E55                      00415d20 f   Wnds.obj
 0001:00014d2f       _$E52                      00415d2f f   Wnds.obj
 0001:00014d3e       _$E54                      00415d3e f   Wnds.obj
 0001:00014d50       _$E53                      00415d50 f   Wnds.obj
 0001:00015796       ?Wnd_GetActive@@YAPAVKWndWindow@@HH_N@Z 00416796 f   Wnds.obj
 0001:00007fc0       _$E8                       00408fc0 f   WndEdit.obj
 0001:00007fcf       _$E5                       00408fcf f   WndEdit.obj
 0001:00007fdf       _$E7                       00408fdf f   WndEdit.obj
 0001:00007ff1       _$E6                       00408ff1 f   WndEdit.obj
 0001:00002f90       _$E27                      00403f90 f   SpaceOver.obj
 0001:00002f9a       _$E26                      00403f9a f   SpaceOver.obj
 0001:00000250       _$E27                      00401250 f   MouseHover.obj
 0001:0000025a       _$E26                      0040125a f   MouseHover.obj
 0001:00000100       _$E2                       00401100 f   ComWindow.obj
 0001:0000010a       _$E1                       0040110a f   ComWindow.obj
 0001:000a24f2       ?ArrayUnwindFilter@@YAHPAU_EXCEPTION_POINTERS@@@Z 004a34f2 f   MSVCRT:ehvecdtr.obj
